;
; File generated by cc65 v 2.17 - Git N/A
;
	.fopt		compiler,"cc65 v 2.17 - Git N/A"
	.setcpu		"6502"
	.smart		on
	.autoimport	on
	.case		on
	.debuginfo	off
	.importzp	sp, sreg, regsave, regbank
	.importzp	tmp1, tmp2, tmp3, tmp4, ptr1, ptr2, ptr3, ptr4
	.macpack	longbranch
	.forceimport	__STARTUP__
	.import		_printf
	.import		_rand
	.import		_exit
	.import		_writesameln
	.import		_writeln
	.import		_interrogationAndAnalysis
	.import		_time
	.import		_cputs
	.import		_cgetc
	.import		_verb
	.import		_noun1
	.import		_noun2
	.export		_dummy
	.export		_compressed
	.export		_bpointer
	.export		_cpointer
	.export		_currbyte
	.export		_g_b
	.export		_huftree
	.export		_hufget
	.export		_decode
	.export		_dictionary
	.export		_long_d1
	.export		_s_desc1
	.export		_short_d1
	.export		_long_d2
	.export		_s_desc2
	.export		_short_d2
	.export		_long_d3
	.export		_s_desc3
	.export		_short_d3
	.export		_long_d4
	.export		_s_desc4
	.export		_short_d4
	.export		_long_d5
	.export		_s_desc5
	.export		_short_d5
	.export		_long_d6
	.export		_s_desc6
	.export		_short_d6
	.export		_long_d7
	.export		_s_desc7
	.export		_short_d7
	.export		_long_d8
	.export		_s_desc8
	.export		_short_d8
	.export		_long_d9
	.export		_s_desc9
	.export		_short_d9
	.export		_long_d10
	.export		_s_desc10
	.export		_short_d10
	.export		_long_d11
	.export		_s_desc11
	.export		_short_d11
	.export		_long_d12
	.export		_s_desc12
	.export		_short_d12
	.export		_long_d13
	.export		_s_desc13
	.export		_short_d13
	.export		_long_d14
	.export		_s_desc14
	.export		_short_d14
	.export		_long_d15
	.export		_s_desc15
	.export		_short_d15
	.export		_long_d16
	.export		_s_desc16
	.export		_short_d16
	.export		_long_d17
	.export		_s_desc17
	.export		_short_d17
	.export		_long_d18
	.export		_s_desc18
	.export		_short_d18
	.export		_long_d19
	.export		_s_desc19
	.export		_short_d19
	.export		_long_d20
	.export		_s_desc20
	.export		_short_d20
	.export		_long_d21
	.export		_s_desc21
	.export		_short_d21
	.export		_long_d22
	.export		_s_desc22
	.export		_short_d22
	.export		_long_d23
	.export		_s_desc23
	.export		_short_d23
	.export		_long_d24
	.export		_s_desc24
	.export		_short_d24
	.export		_long_d25
	.export		_s_desc25
	.export		_short_d25
	.export		_long_d26
	.export		_s_desc26
	.export		_short_d26
	.export		_long_d27
	.export		_s_desc27
	.export		_short_d27
	.export		_long_d28
	.export		_s_desc28
	.export		_short_d28
	.export		_long_d29
	.export		_s_desc29
	.export		_short_d29
	.export		_long_d30
	.export		_s_desc30
	.export		_short_d30
	.export		_long_d31
	.export		_s_desc31
	.export		_short_d31
	.export		_long_d32
	.export		_s_desc32
	.export		_short_d32
	.export		_long_d33
	.export		_s_desc33
	.export		_short_d33
	.export		_long_d34
	.export		_s_desc34
	.export		_short_d34
	.export		_long_d35
	.export		_s_desc35
	.export		_short_d35
	.export		_long_d36
	.export		_s_desc36
	.export		_short_d36
	.export		_long_d40
	.export		_s_desc40
	.export		_short_d40
	.export		_long_d41
	.export		_s_desc41
	.export		_short_d41
	.export		_long_d100
	.export		_s_desc100
	.export		_short_d100
	.export		_long_d101
	.export		_s_desc101
	.export		_short_d101
	.export		_world
	.export		_message50
	.export		_message51
	.export		_message52
	.export		_message53
	.export		_message54
	.export		_message55
	.export		_message56
	.export		_message57
	.export		_message58
	.export		_message59
	.export		_message60
	.export		_message61
	.export		_message62
	.export		_message63
	.export		_message64
	.export		_message65
	.export		_message66
	.export		_message67
	.export		_message68
	.export		_message69
	.export		_message70
	.export		_message71
	.export		_message72
	.export		_message73
	.export		_message74
	.export		_message75
	.export		_message100
	.export		_message101
	.export		_message102
	.export		_message104
	.export		_message105
	.export		_message106
	.export		_message107
	.export		_message108
	.export		_message110
	.export		_message111
	.export		_message112
	.export		_message113
	.export		_message114
	.export		_message115
	.export		_message116
	.export		_message117
	.export		_message118
	.export		_message119
	.export		_message120
	.export		_message121
	.export		_message122
	.export		_message123
	.export		_message124
	.export		_message125
	.export		_message126
	.export		_message127
	.export		_message128
	.export		_message129
	.export		_message130
	.export		_message131
	.export		_message132
	.export		_message133
	.export		_message134
	.export		_message137
	.export		_message138
	.export		_message139
	.export		_message140
	.export		_message141
	.export		_message142
	.export		_message144
	.export		_message145
	.export		_message146
	.export		_message147
	.export		_message148
	.export		_message149
	.export		_message150
	.export		_message151
	.export		_message152
	.export		_message153
	.export		_message154
	.export		_message155
	.export		_message156
	.export		_message157
	.export		_message158
	.export		_message159
	.export		_message160
	.export		_message161
	.export		_message162
	.export		_message163
	.export		_message164
	.export		_message165
	.export		_message166
	.export		_message167
	.export		_message170
	.export		_message171
	.export		_message172
	.export		_message173
	.export		_message174
	.export		_message175
	.export		_message176
	.export		_message177
	.export		_message178
	.export		_message179
	.export		_message180
	.export		_message181
	.export		_message182
	.export		_message183
	.export		_message184
	.export		_message200
	.export		_message201
	.export		_message210
	.export		_message211
	.export		_message212
	.export		_message213
	.export		_message214
	.export		_message215
	.export		_message216
	.export		_message217
	.export		_message218
	.export		_message219
	.export		_message220
	.export		_message221
	.export		_message222
	.export		_message223
	.export		_message224
	.export		_message225
	.export		_message226
	.export		_message227
	.export		_message228
	.export		_message229
	.export		_message230
	.export		_message231
	.export		_message232
	.export		_message233
	.export		_message234
	.export		_message235
	.export		_message236
	.export		_message237
	.export		_message238
	.export		_message239
	.export		_message240
	.export		_message241
	.export		_message242
	.export		_message243
	.export		_message244
	.export		_message245
	.export		_message246
	.export		_message247
	.export		_message248
	.export		_message249
	.export		_message250
	.export		_message251
	.export		_message252
	.export		_message253
	.export		_message254
	.export		_message255
	.export		_message256
	.export		_message257
	.export		_message258
	.export		_message259
	.export		_message260
	.export		_message261
	.export		_message262
	.export		_message263
	.export		_message264
	.export		_message265
	.export		_message266
	.export		_message267
	.export		_message268
	.export		_message269
	.export		_message270
	.export		_message271
	.export		_message272
	.export		_message273
	.export		_message274
	.export		_message275
	.export		_message276
	.export		_message277
	.export		_message278
	.export		_message279
	.export		_message280
	.export		_message281
	.export		_message282
	.export		_message283
	.export		_message284
	.export		_message285
	.export		_message286
	.export		_message287
	.export		_message288
	.export		_message289
	.export		_message290
	.export		_message291
	.export		_message292
	.export		_message293
	.export		_message294
	.export		_message295
	.export		_message296
	.export		_message297
	.export		_message298
	.export		_message299
	.export		_message300
	.export		_message301
	.export		_message302
	.export		_message303
	.export		_message304
	.export		_message305
	.export		_message306
	.export		_message310
	.export		_message311
	.export		_message312
	.export		_message313
	.export		_message314
	.export		_message315
	.export		_message316
	.export		_message317
	.export		_message318
	.export		_message319
	.export		_message320
	.export		_message321
	.export		_message322
	.export		_message323
	.export		_message324
	.export		_message325
	.export		_message326
	.export		_message327
	.export		_message328
	.export		_message329
	.export		_message330
	.export		_message331
	.export		_message332
	.export		_message333
	.export		_message334
	.export		_message335
	.export		_message336
	.export		_message337
	.export		_message338
	.export		_message339
	.export		_message340
	.export		_message341
	.export		_message342
	.export		_message343
	.export		_message344
	.export		_message345
	.export		_message346
	.export		_message347
	.export		_message348
	.export		_message349
	.export		_message350
	.export		_message351
	.export		_message352
	.export		_message353
	.export		_message354
	.export		_message355
	.export		_message356
	.export		_message357
	.export		_message358
	.export		_message359
	.export		_message360
	.export		_message361
	.export		_message362
	.export		_message363
	.export		_message364
	.export		_message365
	.export		_message366
	.export		_message367
	.export		_message368
	.export		_message369
	.export		_message370
	.export		_message371
	.export		_message372
	.export		_message373
	.export		_message374
	.export		_message375
	.export		_message376
	.export		_message377
	.export		_message378
	.export		_message379
	.export		_message380
	.export		_message381
	.export		_message382
	.export		_message383
	.export		_message384
	.export		_message385
	.export		_message386
	.export		_message387
	.export		_message388
	.export		_message389
	.export		_message390
	.export		_message391
	.export		_message392
	.export		_message393
	.export		_message394
	.export		_message395
	.export		_message396
	.export		_message397
	.export		_message398
	.export		_message399
	.export		_message500
	.export		_message501
	.export		_message502
	.export		_message503
	.export		_message504
	.export		_message505
	.export		_message506
	.export		_message507
	.export		_message508
	.export		_message509
	.export		_message510
	.export		_message511
	.export		_message512
	.export		_message513
	.export		_message514
	.export		_message515
	.export		_message516
	.export		_message517
	.export		_message518
	.export		_message519
	.export		_message520
	.export		_message521
	.export		_message522
	.export		_message523
	.export		_message524
	.export		_message525
	.export		_message526
	.export		_message527
	.export		_message528
	.export		_message529
	.export		_message530
	.export		_message531
	.export		_message532
	.export		_message533
	.export		_message534
	.export		_message535
	.export		_message536
	.export		_message537
	.export		_message600
	.export		_message900
	.export		_message901
	.export		_message902
	.export		_message903
	.export		_message1000
	.export		_message1001
	.export		_message1002
	.export		_message1003
	.export		_message1004
	.export		_message1005
	.export		_message1006
	.export		_message1007
	.export		_message1008
	.export		_message1009
	.export		_message1010
	.export		_message1011
	.export		_message1012
	.export		_message1013
	.export		_message1014
	.export		_message1015
	.export		_message1016
	.export		_message1018
	.export		_message1019
	.export		_message1020
	.export		_message1021
	.export		_message1022
	.export		_message1023
	.export		_message1024
	.export		_message1025
	.export		_message1026
	.export		_message1027
	.export		_message1028
	.export		_message1029
	.export		_message1030
	.export		_message1031
	.export		_message1032
	.export		_message1033
	.export		_message1035
	.export		_message1050
	.export		_message1051
	.export		_message1052
	.export		_dir
	.export		_desc_l1
	.export		_desc_l2
	.export		_desc_l3
	.export		_desc_l4
	.export		_desc_l5
	.export		_desc_l6
	.export		_desc_l7
	.export		_desc_l8
	.export		_desc_l9
	.export		_desc_l10
	.export		_desc_l12
	.export		_desc_l13
	.export		_desc_l14
	.export		_desc_l16
	.export		_desc_l17
	.export		_desc_l18
	.export		_desc_l19
	.export		_desc_l20
	.export		_desc_l21
	.export		_desc_l22
	.export		_desc_l23
	.export		_desc_l100
	.export		_desc_l101
	.export		_desc_l102
	.export		_desc_l104
	.export		_desc_l105
	.export		_desc_l106
	.export		_desc_l108
	.export		_desc_l109
	.export		_desc_l110
	.export		_desc_l112
	.export		_obj
	.export		_current_position
	.export		_next_position
	.import		_ls
	.export		_marker
	.export		_counter
	.export		_odummy
	.export		_decompress_b
	.export		_search_object
	.export		_search_room
	.export		_show_messagenlf
	.export		_show_message
	.export		_inventory
	.export		_move
	.export		_get
	.export		_cvn
	.export		_get_object_position
	.export		_object_is_here
	.export		_object_is_carried
	.export		_object_is_available
	.export		_set_object_position
	.export		_amsm
	.export		_cvna
	.export		_drop
	.export		_jump
	.export		_hold
	.export		_greetings
	.export		_hi_cond
	.export		_low_cond
	.export		_local_cond
	.export		_game_cycle
	.export		_main

.segment	"DATA"

_huftree:
	.byte	$60
	.byte	$FF
	.byte	$FF
	.byte	$3D
	.byte	$FF
	.byte	$FF
	.byte	$FF
	.byte	$00
	.byte	$01
	.byte	$40
	.byte	$FF
	.byte	$FF
	.byte	$4B
	.byte	$FF
	.byte	$FF
	.byte	$FF
	.byte	$03
	.byte	$04
	.byte	$58
	.byte	$FF
	.byte	$FF
	.byte	$5A
	.byte	$FF
	.byte	$FF
	.byte	$FF
	.byte	$06
	.byte	$07
	.byte	$5B
	.byte	$FF
	.byte	$FF
	.byte	$5D
	.byte	$FF
	.byte	$FF
	.byte	$FF
	.byte	$09
	.byte	$0A
	.byte	$6A
	.byte	$FF
	.byte	$FF
	.byte	$8F
	.byte	$FF
	.byte	$FF
	.byte	$FF
	.byte	$0C
	.byte	$0D
	.byte	$9C
	.byte	$FF
	.byte	$FF
	.byte	$9D
	.byte	$FF
	.byte	$FF
	.byte	$FF
	.byte	$0F
	.byte	$10
	.byte	$AB
	.byte	$FF
	.byte	$FF
	.byte	$C3
	.byte	$FF
	.byte	$FF
	.byte	$FF
	.byte	$12
	.byte	$13
	.byte	$A8
	.byte	$FF
	.byte	$FF
	.byte	$FF
	.byte	$15
	.byte	$14
	.byte	$FF
	.byte	$0B
	.byte	$08
	.byte	$FF
	.byte	$0E
	.byte	$05
	.byte	$3B
	.byte	$FF
	.byte	$FF
	.byte	$FF
	.byte	$19
	.byte	$02
	.byte	$78
	.byte	$FF
	.byte	$FF
	.byte	$FF
	.byte	$11
	.byte	$1B
	.byte	$B8
	.byte	$FF
	.byte	$FF
	.byte	$E1
	.byte	$FF
	.byte	$FF
	.byte	$FF
	.byte	$1D
	.byte	$1E
	.byte	$23
	.byte	$FF
	.byte	$FF
	.byte	$35
	.byte	$FF
	.byte	$FF
	.byte	$FF
	.byte	$20
	.byte	$21
	.byte	$A6
	.byte	$FF
	.byte	$FF
	.byte	$FF
	.byte	$16
	.byte	$23
	.byte	$FF
	.byte	$1F
	.byte	$1C
	.byte	$57
	.byte	$FF
	.byte	$FF
	.byte	$FF
	.byte	$26
	.byte	$18
	.byte	$FF
	.byte	$1A
	.byte	$17
	.byte	$77
	.byte	$FF
	.byte	$FF
	.byte	$4A
	.byte	$FF
	.byte	$FF
	.byte	$FF
	.byte	$29
	.byte	$2A
	.byte	$36
	.byte	$FF
	.byte	$FF
	.byte	$2A
	.byte	$FF
	.byte	$FF
	.byte	$FF
	.byte	$2C
	.byte	$2D
	.byte	$56
	.byte	$FF
	.byte	$FF
	.byte	$FF
	.byte	$22
	.byte	$2F
	.byte	$32
	.byte	$FF
	.byte	$FF
	.byte	$FF
	.byte	$24
	.byte	$31
	.byte	$38
	.byte	$FF
	.byte	$FF
	.byte	$2D
	.byte	$FF
	.byte	$FF
	.byte	$FF
	.byte	$33
	.byte	$34
	.byte	$FF
	.byte	$2B
	.byte	$28
	.byte	$2F
	.byte	$FF
	.byte	$FF
	.byte	$FF
	.byte	$37
	.byte	$25
	.byte	$FF
	.byte	$27
	.byte	$2E
	.byte	$22
	.byte	$FF
	.byte	$FF
	.byte	$79
	.byte	$FF
	.byte	$FF
	.byte	$FF
	.byte	$3A
	.byte	$3B
	.byte	$28
	.byte	$FF
	.byte	$FF
	.byte	$29
	.byte	$FF
	.byte	$FF
	.byte	$FF
	.byte	$3D
	.byte	$3E
	.byte	$34
	.byte	$FF
	.byte	$FF
	.byte	$FF
	.byte	$40
	.byte	$30
	.byte	$6B
	.byte	$FF
	.byte	$FF
	.byte	$FF
	.byte	$42
	.byte	$32
	.byte	$47
	.byte	$FF
	.byte	$FF
	.byte	$52
	.byte	$FF
	.byte	$FF
	.byte	$FF
	.byte	$44
	.byte	$45
	.byte	$30
	.byte	$FF
	.byte	$FF
	.byte	$31
	.byte	$FF
	.byte	$FF
	.byte	$FF
	.byte	$47
	.byte	$48
	.byte	$33
	.byte	$FF
	.byte	$FF
	.byte	$FF
	.byte	$4A
	.byte	$35
	.byte	$39
	.byte	$FF
	.byte	$FF
	.byte	$46
	.byte	$FF
	.byte	$FF
	.byte	$FF
	.byte	$4C
	.byte	$4D
	.byte	$FF
	.byte	$38
	.byte	$36
	.byte	$FF
	.byte	$39
	.byte	$3C
	.byte	$55
	.byte	$FF
	.byte	$FF
	.byte	$99
	.byte	$FF
	.byte	$FF
	.byte	$FF
	.byte	$51
	.byte	$52
	.byte	$3A
	.byte	$FF
	.byte	$FF
	.byte	$FF
	.byte	$3F
	.byte	$54
	.byte	$4F
	.byte	$FF
	.byte	$FF
	.byte	$FF
	.byte	$56
	.byte	$41
	.byte	$42
	.byte	$FF
	.byte	$FF
	.byte	$FF
	.byte	$58
	.byte	$43
	.byte	$E2
	.byte	$FF
	.byte	$FF
	.byte	$48
	.byte	$FF
	.byte	$FF
	.byte	$FF
	.byte	$5A
	.byte	$5B
	.byte	$80
	.byte	$FF
	.byte	$FF
	.byte	$FF
	.byte	$46
	.byte	$5D
	.byte	$FF
	.byte	$49
	.byte	$4B
	.byte	$44
	.byte	$FF
	.byte	$FF
	.byte	$5C
	.byte	$FF
	.byte	$FF
	.byte	$FF
	.byte	$60
	.byte	$61
	.byte	$FF
	.byte	$4E
	.byte	$4F
	.byte	$FF
	.byte	$50
	.byte	$53
	.byte	$4D
	.byte	$FF
	.byte	$FF
	.byte	$FF
	.byte	$55
	.byte	$65
	.byte	$51
	.byte	$FF
	.byte	$FF
	.byte	$FF
	.byte	$67
	.byte	$57
	.byte	$41
	.byte	$FF
	.byte	$FF
	.byte	$FF
	.byte	$69
	.byte	$59
	.byte	$FF
	.byte	$5E
	.byte	$5C
	.byte	$54
	.byte	$FF
	.byte	$FF
	.byte	$FF
	.byte	$6C
	.byte	$5F
	.byte	$50
	.byte	$FF
	.byte	$FF
	.byte	$FF
	.byte	$62
	.byte	$6E
	.byte	$43
	.byte	$FF
	.byte	$FF
	.byte	$FF
	.byte	$70
	.byte	$63
	.byte	$3F
	.byte	$FF
	.byte	$FF
	.byte	$FF
	.byte	$72
	.byte	$64
	.byte	$4E
	.byte	$FF
	.byte	$FF
	.byte	$4C
	.byte	$FF
	.byte	$FF
	.byte	$FF
	.byte	$74
	.byte	$75
	.byte	$FF
	.byte	$66
	.byte	$68
	.byte	$45
	.byte	$FF
	.byte	$FF
	.byte	$71
	.byte	$FF
	.byte	$FF
	.byte	$FF
	.byte	$78
	.byte	$79
	.byte	$FF
	.byte	$6A
	.byte	$6B
	.byte	$21
	.byte	$FF
	.byte	$FF
	.byte	$FF
	.byte	$6D
	.byte	$7C
	.byte	$49
	.byte	$FF
	.byte	$FF
	.byte	$FF
	.byte	$7E
	.byte	$6F
	.byte	$7A
	.byte	$FF
	.byte	$FF
	.byte	$FF
	.byte	$71
	.byte	$80
	.byte	$53
	.byte	$FF
	.byte	$FF
	.byte	$FF
	.byte	$82
	.byte	$73
	.byte	$FF
	.byte	$76
	.byte	$77
	.byte	$FF
	.byte	$7A
	.byte	$7B
	.byte	$62
	.byte	$FF
	.byte	$FF
	.byte	$FF
	.byte	$7D
	.byte	$86
	.byte	$FF
	.byte	$7F
	.byte	$81
	.byte	$2C
	.byte	$FF
	.byte	$FF
	.byte	$FF
	.byte	$89
	.byte	$83
	.byte	$66
	.byte	$FF
	.byte	$FF
	.byte	$68
	.byte	$FF
	.byte	$FF
	.byte	$FF
	.byte	$8B
	.byte	$8C
	.byte	$FF
	.byte	$84
	.byte	$85
	.byte	$27
	.byte	$FF
	.byte	$FF
	.byte	$76
	.byte	$FF
	.byte	$FF
	.byte	$FF
	.byte	$8F
	.byte	$90
	.byte	$67
	.byte	$FF
	.byte	$FF
	.byte	$FF
	.byte	$87
	.byte	$92
	.byte	$2E
	.byte	$FF
	.byte	$FF
	.byte	$FF
	.byte	$94
	.byte	$88
	.byte	$00
	.byte	$FF
	.byte	$FF
	.byte	$FF
	.byte	$96
	.byte	$8A
	.byte	$FF
	.byte	$8D
	.byte	$8E
	.byte	$70
	.byte	$FF
	.byte	$FF
	.byte	$6D
	.byte	$FF
	.byte	$FF
	.byte	$FF
	.byte	$99
	.byte	$9A
	.byte	$FF
	.byte	$91
	.byte	$93
	.byte	$75
	.byte	$FF
	.byte	$FF
	.byte	$FF
	.byte	$95
	.byte	$9D
	.byte	$64
	.byte	$FF
	.byte	$FF
	.byte	$FF
	.byte	$97
	.byte	$9F
	.byte	$63
	.byte	$FF
	.byte	$FF
	.byte	$FF
	.byte	$A1
	.byte	$98
	.byte	$73
	.byte	$FF
	.byte	$FF
	.byte	$FF
	.byte	$A3
	.byte	$9B
	.byte	$72
	.byte	$FF
	.byte	$FF
	.byte	$FF
	.byte	$9C
	.byte	$A5
	.byte	$6C
	.byte	$FF
	.byte	$FF
	.byte	$74
	.byte	$FF
	.byte	$FF
	.byte	$FF
	.byte	$A7
	.byte	$A8
	.byte	$6E
	.byte	$FF
	.byte	$FF
	.byte	$FF
	.byte	$AA
	.byte	$9E
	.byte	$FF
	.byte	$A0
	.byte	$A2
	.byte	$6F
	.byte	$FF
	.byte	$FF
	.byte	$FF
	.byte	$AD
	.byte	$A4
	.byte	$69
	.byte	$FF
	.byte	$FF
	.byte	$61
	.byte	$FF
	.byte	$FF
	.byte	$FF
	.byte	$AF
	.byte	$B0
	.byte	$65
	.byte	$FF
	.byte	$FF
	.byte	$FF
	.byte	$B2
	.byte	$A6
	.byte	$FF
	.byte	$A9
	.byte	$AB
	.byte	$20
	.byte	$FF
	.byte	$FF
	.byte	$FF
	.byte	$AC
	.byte	$B5
	.byte	$FF
	.byte	$AE
	.byte	$B1
	.byte	$FF
	.byte	$B3
	.byte	$B4
	.byte	$FF
	.byte	$B6
	.byte	$B7
	.byte	$FF
	.byte	$B8
	.byte	$B9
_dictionary:
	.addr	L0284
	.word	$0001
	.byte	$02
	.addr	L0288
	.word	$0002
	.byte	$02
	.addr	L028C
	.word	$0003
	.byte	$02
	.addr	L0290
	.word	$0003
	.byte	$02
	.addr	L0294
	.word	$0004
	.byte	$02
	.addr	L0298
	.word	$0005
	.byte	$02
	.addr	L029C
	.word	$0005
	.byte	$02
	.addr	L02A0
	.word	$0005
	.byte	$02
	.addr	L02A4
	.word	$0006
	.byte	$02
	.addr	L02A8
	.word	$0007
	.byte	$02
	.addr	L02AC
	.word	$0007
	.byte	$02
	.addr	L02B0
	.word	$0008
	.byte	$02
	.addr	L02B4
	.word	$0009
	.byte	$02
	.addr	L02B8
	.word	$000A
	.byte	$02
	.addr	L02BC
	.word	$000A
	.byte	$02
	.addr	L02C0
	.word	$000B
	.byte	$02
	.addr	L02C4
	.word	$000C
	.byte	$02
	.addr	L02C8
	.word	$000D
	.byte	$02
	.addr	L02CC
	.word	$000D
	.byte	$02
	.addr	L02D0
	.word	$000D
	.byte	$02
	.addr	L02D4
	.word	$000E
	.byte	$02
	.addr	L02D8
	.word	$000E
	.byte	$02
	.addr	L02DC
	.word	$000F
	.byte	$02
	.addr	L02E0
	.word	$0010
	.byte	$02
	.addr	L02E4
	.word	$0011
	.byte	$02
	.addr	L02E8
	.word	$0012
	.byte	$02
	.addr	L02EC
	.word	$0013
	.byte	$02
	.addr	L02F0
	.word	$0014
	.byte	$02
	.addr	L02F4
	.word	$0015
	.byte	$02
	.addr	L02F8
	.word	$0016
	.byte	$02
	.addr	L02FC
	.word	$0017
	.byte	$02
	.addr	L0300
	.word	$0017
	.byte	$02
	.addr	L0304
	.word	$0018
	.byte	$02
	.addr	L0308
	.word	$0018
	.byte	$02
	.addr	L030C
	.word	$0018
	.byte	$02
	.addr	L0310
	.word	$0019
	.byte	$02
	.addr	L0314
	.word	$001A
	.byte	$02
	.addr	L0318
	.word	$001B
	.byte	$02
	.addr	L031C
	.word	$001C
	.byte	$02
	.addr	L0320
	.word	$001D
	.byte	$02
	.addr	L0324
	.word	$001F
	.byte	$01
	.addr	L0328
	.word	$0020
	.byte	$02
	.addr	L032C
	.word	$0020
	.byte	$02
	.addr	L0330
	.word	$0021
	.byte	$01
	.addr	L0334
	.word	$0021
	.byte	$01
	.addr	L0338
	.word	$0021
	.byte	$01
	.addr	L033C
	.word	$0022
	.byte	$01
	.addr	L0340
	.word	$0028
	.byte	$01
	.addr	L0344
	.word	$0028
	.byte	$01
	.addr	L0348
	.word	$002D
	.byte	$01
	.addr	L034C
	.word	$0032
	.byte	$01
	.addr	L0350
	.word	$0032
	.byte	$01
	.addr	L0354
	.word	$0037
	.byte	$01
	.addr	L0358
	.word	$0037
	.byte	$01
	.addr	L035C
	.word	$0037
	.byte	$01
	.addr	L0360
	.word	$0037
	.byte	$01
	.addr	L0364
	.word	$0037
	.byte	$01
	.addr	L0368
	.word	$003C
	.byte	$02
	.addr	L036C
	.word	$003D
	.byte	$02
	.addr	L0370
	.word	$003D
	.byte	$02
	.addr	L0374
	.word	$003E
	.byte	$02
	.addr	L0378
	.word	$003E
	.byte	$02
	.addr	L037C
	.word	$0046
	.byte	$01
	.addr	L0380
	.word	$0048
	.byte	$02
	.addr	L0384
	.word	$0048
	.byte	$02
	.addr	L0388
	.word	$0048
	.byte	$02
	.addr	L038C
	.word	$004A
	.byte	$01
	.addr	L0390
	.word	$004B
	.byte	$01
	.addr	L0394
	.word	$004C
	.byte	$01
	.addr	L0398
	.word	$0050
	.byte	$02
	.addr	L039C
	.word	$0050
	.byte	$02
	.addr	L03A0
	.word	$0051
	.byte	$02
	.addr	L03A4
	.word	$0051
	.byte	$02
	.addr	L03A8
	.word	$0052
	.byte	$02
	.addr	L03AC
	.word	$0052
	.byte	$02
	.addr	L03B0
	.word	$0053
	.byte	$02
	.addr	L03B4
	.word	$0053
	.byte	$02
	.addr	L03B8
	.word	$0054
	.byte	$02
	.addr	L03BC
	.word	$0054
	.byte	$02
	.addr	L03C0
	.word	$0054
	.byte	$02
	.addr	L03C4
	.word	$0055
	.byte	$02
	.addr	L03C8
	.word	$0055
	.byte	$02
	.addr	L03CC
	.word	$0055
	.byte	$01
	.addr	L03D0
	.word	$0055
	.byte	$02
	.addr	L03D4
	.word	$005A
	.byte	$02
	.addr	L03D8
	.word	$005A
	.byte	$02
	.addr	L03DC
	.word	$005B
	.byte	$02
	.addr	L03E0
	.word	$005B
	.byte	$02
	.addr	L03E4
	.word	$005B
	.byte	$02
	.addr	L03E8
	.word	$005B
	.byte	$02
	.addr	L03EC
	.word	$005C
	.byte	$02
	.addr	L03F0
	.word	$005D
	.byte	$02
	.addr	L03F4
	.word	$005D
	.byte	$02
	.addr	L03F8
	.word	$005D
	.byte	$02
	.addr	L03FC
	.word	$005D
	.byte	$02
	.addr	L0400
	.word	$005E
	.byte	$02
	.addr	L0404
	.word	$005F
	.byte	$01
	.addr	L0408
	.word	$005F
	.byte	$01
	.addr	L040C
	.word	$0060
	.byte	$02
	.addr	L0410
	.word	$0060
	.byte	$02
	.addr	L0414
	.word	$0060
	.byte	$02
	.addr	L0418
	.word	$0061
	.byte	$02
	.addr	L041C
	.word	$0062
	.byte	$02
	.addr	L0420
	.word	$0062
	.byte	$02
	.addr	L0424
	.word	$0063
	.byte	$01
	.addr	L0428
	.word	$0064
	.byte	$01
	.addr	L042C
	.word	$0064
	.byte	$01
	.addr	L0430
	.word	$0064
	.byte	$01
	.addr	L0434
	.word	$0065
	.byte	$01
	.addr	L0438
	.word	$0065
	.byte	$01
	.addr	L043C
	.word	$0066
	.byte	$01
	.addr	L0440
	.word	$0066
	.byte	$01
	.addr	L0444
	.word	$0067
	.byte	$01
	.addr	L0448
	.word	$0068
	.byte	$02
	.addr	L044C
	.word	$0069
	.byte	$02
	.addr	L0450
	.word	$0069
	.byte	$02
	.addr	L0454
	.word	$006A
	.byte	$02
	.addr	L0458
	.word	$006C
	.byte	$02
	.addr	L045C
	.word	$006C
	.byte	$02
	.addr	L0460
	.word	$006D
	.byte	$02
	.addr	L0464
	.word	$006E
	.byte	$01
	.addr	L0468
	.word	$006E
	.byte	$01
	.addr	L046C
	.word	$006E
	.byte	$01
	.addr	L0470
	.word	$006F
	.byte	$01
	.addr	L0474
	.word	$006F
	.byte	$01
	.addr	L0478
	.word	$006F
	.byte	$01
	.addr	L047C
	.word	$006F
	.byte	$01
	.addr	L0480
	.word	$0070
	.byte	$02
	.addr	L0484
	.word	$0070
	.byte	$02
	.addr	L0488
	.word	$0071
	.byte	$02
	.addr	L048C
	.word	$0071
	.byte	$02
	.addr	L0490
	.word	$0072
	.byte	$02
	.addr	L0494
	.word	$0073
	.byte	$02
	.addr	L0498
	.word	$0073
	.byte	$02
	.addr	L049C
	.word	$0074
	.byte	$02
	.addr	L04A0
	.word	$0074
	.byte	$02
	.addr	L04A4
	.word	$0075
	.byte	$02
	.addr	L04A8
	.word	$0075
	.byte	$02
	.addr	L04AC
	.word	$0078
	.byte	$01
	.addr	L04B0
	.word	$0078
	.byte	$01
	.addr	L04B4
	.word	$0079
	.byte	$01
	.addr	L04B8
	.word	$0096
	.byte	$00
	.addr	L04BC
	.word	$00A0
	.byte	$02
	.addr	L04C0
	.word	$00A1
	.byte	$02
	.addr	L04C4
	.word	$00A2
	.byte	$02
	.addr	L04C8
	.word	$00A3
	.byte	$02
	.addr	L04CC
	.word	$00B8
	.byte	$01
	.addr	L04D0
	.word	$00B9
	.byte	$01
	.addr	L04D4
	.word	$00C8
	.byte	$01
	.addr	L04D8
	.word	$00C9
	.byte	$01
	.addr	L04DC
	.word	$00CA
	.byte	$01
	.addr	L04E0
	.word	$00CA
	.byte	$01
	.addr	L04E4
	.word	$00CA
	.byte	$01
	.addr	L04E8
	.word	$00CA
	.byte	$01
	.addr	L04EC
	.word	$00CB
	.byte	$01
	.addr	L04F0
	.word	$00CC
	.byte	$01
	.addr	L04F4
	.word	$00CC
	.byte	$01
	.addr	L04F8
	.word	$00CD
	.byte	$01
	.addr	L04FC
	.word	$00CE
	.byte	$01
	.addr	L0500
	.word	$00CF
	.byte	$01
	.addr	L0504
	.word	$00D0
	.byte	$01
	.addr	L0508
	.word	$00D1
	.byte	$01
	.addr	L050C
	.word	$00D2
	.byte	$01
	.addr	L0510
	.word	$00D3
	.byte	$01
	.addr	L0514
	.word	$00D3
	.byte	$01
	.addr	L0518
	.word	$00D4
	.byte	$01
	.addr	L051C
	.word	$00D5
	.byte	$01
	.addr	L0520
	.word	$00D6
	.byte	$01
	.addr	L0524
	.word	$00D7
	.byte	$01
	.addr	L0528
	.word	$00D8
	.byte	$01
	.addr	L052C
	.word	$00D8
	.byte	$01
	.addr	L0530
	.word	$00D8
	.byte	$01
	.addr	L0534
	.word	$00D8
	.byte	$01
	.addr	L0538
	.word	$00D8
	.byte	$01
	.addr	L053C
	.word	$00D9
	.byte	$01
	.addr	L0540
	.word	$00DA
	.byte	$00
	.addr	L0544
	.word	$00DA
	.byte	$00
	.addr	L0548
	.word	$00DA
	.byte	$00
	.addr	L054C
	.word	$00DB
	.byte	$01
	.addr	L0550
	.word	$00DC
	.byte	$01
	.addr	L0554
	.word	$00DD
	.byte	$02
	.addr	L0558
	.word	$00DD
	.byte	$02
	.addr	L055C
	.word	$00E6
	.byte	$01
	.addr	L0560
	.word	$00E7
	.byte	$01
	.addr	L0564
	.word	$00E8
	.byte	$02
	.addr	L0568
	.word	$00E8
	.byte	$02
	.addr	L056C
	.word	$00E9
	.byte	$01
	.addr	L0570
	.word	$00EA
	.byte	$01
	.addr	L0574
	.word	$00EB
	.byte	$01
	.addr	L0578
	.word	$00FA
	.byte	$02
	.addr	L057C
	.word	$00FB
	.byte	$02
	.addr	L0580
	.word	$00FC
	.byte	$02
	.addr	L0584
	.word	$00FD
	.byte	$02
	.addr	L0588
	.word	$00FE
	.byte	$02
	.addr	L058C
	.word	$00FE
	.byte	$02
	.addr	L0590
	.word	$00FE
	.byte	$02
	.addr	L0594
	.word	$00FF
	.byte	$02
	.addr	L0598
	.word	$0100
	.byte	$02
	.addr	L059C
	.word	$0100
	.byte	$02
	.addr	L05A0
	.word	$0101
	.byte	$02
	.addr	L05A4
	.word	$0102
	.byte	$02
	.addr	L05A8
	.word	$0103
	.byte	$02
	.addr	L05AC
	.word	$0104
	.byte	$02
	.addr	L05B0
	.word	$0104
	.byte	$02
	.addr	L05B4
	.word	$0105
	.byte	$02
	.addr	L05B8
	.word	$0105
	.byte	$02
	.addr	L05BC
	.word	$0106
	.byte	$02
	.addr	L05C0
	.word	$0107
	.byte	$02
	.addr	L05C4
	.word	$0107
	.byte	$02
	.addr	L05C8
	.word	$0108
	.byte	$02
	.addr	L05CC
	.word	$0108
	.byte	$02
	.addr	L05D0
	.word	$0109
	.byte	$02
	.addr	L05D4
	.word	$010A
	.byte	$02
	.addr	L05D8
	.word	$010A
	.byte	$02
	.addr	L05DC
	.word	$010B
	.byte	$02
	.addr	L05E0
	.word	$010C
	.byte	$02
	.addr	L05E4
	.word	$010D
	.byte	$02
	.addr	L05E8
	.word	$010D
	.byte	$02
	.addr	L05EC
	.word	$010E
	.byte	$02
	.addr	L05F0
	.word	$010E
	.byte	$02
	.addr	L05F4
	.word	$010F
	.byte	$02
	.addr	L05F8
	.word	$0110
	.byte	$02
	.addr	L05FC
	.word	$0111
	.byte	$02
	.addr	L0600
	.word	$0112
	.byte	$02
	.addr	L0604
	.word	$0113
	.byte	$02
	.addr	L0608
	.word	$0113
	.byte	$02
	.addr	L060C
	.word	$0113
	.byte	$02
	.addr	L0610
	.word	$0114
	.byte	$02
	.addr	L0614
	.word	$0115
	.byte	$02
	.addr	L0618
	.word	$0115
	.byte	$02
	.addr	L061C
	.word	$0116
	.byte	$02
	.addr	L0620
	.word	$0116
	.byte	$02
	.addr	L0624
	.word	$0117
	.byte	$02
	.addr	L0628
	.word	$0117
	.byte	$02
	.addr	L062C
	.word	$0117
	.byte	$02
	.addr	L0630
	.word	$0118
	.byte	$02
	.addr	L0634
	.word	$0119
	.byte	$02
	.addr	L0638
	.word	$011A
	.byte	$02
	.addr	L063C
	.word	$011B
	.byte	$02
	.addr	L0640
	.word	$011B
	.byte	$02
	.addr	L0644
	.word	$011C
	.byte	$02
	.addr	L0648
	.word	$011D
	.byte	$02
	.addr	L064C
	.word	$011E
	.byte	$02
	.addr	L0650
	.word	$011F
	.byte	$02
	.addr	L0654
	.word	$0120
	.byte	$02
	.addr	L0658
	.word	$0121
	.byte	$02
	.addr	L065C
	.word	$0122
	.byte	$02
	.addr	L0660
	.word	$0123
	.byte	$02
	.addr	L0664
	.word	$0124
	.byte	$02
	.addr	L0668
	.word	$0124
	.byte	$02
	.addr	L066C
	.word	$0125
	.byte	$02
	.addr	L0670
	.word	$0125
	.byte	$02
	.addr	L0674
	.word	$0126
	.byte	$02
	.addr	L0678
	.word	$0127
	.byte	$02
	.addr	L067C
	.word	$0128
	.byte	$02
	.addr	L0680
	.word	$0128
	.byte	$02
	.addr	L0684
	.word	$0129
	.byte	$02
	.addr	L0688
	.word	$012A
	.byte	$02
	.addr	L068C
	.word	$012B
	.byte	$02
	.addr	L0690
	.word	$012C
	.byte	$02
	.addr	L0694
	.word	$012C
	.byte	$02
	.addr	L0698
	.word	$012D
	.byte	$02
	.addr	L069C
	.word	$012E
	.byte	$02
	.addr	L06A0
	.word	$012F
	.byte	$01
	.addr	L06A4
	.word	$012F
	.byte	$01
	.addr	L06A8
	.word	$0193
	.byte	$02
	.addr	L06AC
	.word	$0193
	.byte	$02
	.addr	L06B0
	.word	$0193
	.byte	$02
	.addr	L06B4
	.word	$0193
	.byte	$02
	.addr	L06B8
	.word	$0193
	.byte	$02
	.addr	L06BC
	.word	$0194
	.byte	$02
	.addr	L06C0
	.word	$0195
	.byte	$01
	.addr	L06C4
	.word	$0196
	.byte	$01
	.addr	L06C8
	.word	$0197
	.byte	$01
	.addr	L06CC
	.word	$0198
	.byte	$02
	.addr	L06D0
	.word	$0198
	.byte	$02
	.addr	L06D4
	.word	$0198
	.byte	$02
	.addr	L06D8
	.word	$0198
	.byte	$02
	.addr	L06DC
	.word	$0199
	.byte	$02
	.addr	L06E0
	.word	$0199
	.byte	$02
	.addr	L06E4
	.word	$019A
	.byte	$02
	.addr	L06E8
	.word	$019B
	.byte	$02
	.addr	L06EC
	.word	$019C
	.byte	$02
	.addr	L06F0
	.word	$01F4
	.byte	$02
	.addr	L06F4
	.word	$01F4
	.byte	$01
	.addr	L06F8
	.word	$01F5
	.byte	$01
	.addr	L06FC
	.word	$01F6
	.byte	$01
	.addr	L0700
	.word	$01F7
	.byte	$01
	.addr	L0704
	.word	$03B6
	.byte	$01
	.addr	L0708
	.word	$03DB
	.byte	$01
	.addr	L070C
	.word	$03DC
	.byte	$01
	.addr	L0710
	.word	$03DD
	.byte	$01
	.addr	L0714
	.word	$044C
	.byte	$01
	.addr	L0718
	.word	$04B0
	.byte	$01
	.addr	L071C
	.word	$0514
	.byte	$01
	.addr	L0720
	.word	$0515
	.byte	$01
	.addr	L0724
	.word	$270F
	.byte	$03
	.addr	L0728
	.word	$270F
	.byte	$03
_long_d1:
	.byte	$61
	.byte	$B8
	.byte	$9E
	.byte	$75
	.byte	$3B
	.byte	$C4
	.byte	$2B
	.byte	$79
	.byte	$E9
	.byte	$6C
	.byte	$FA
	.byte	$22
	.byte	$DF
	.byte	$0C
	.byte	$78
	.byte	$7F
	.byte	$FD
	.byte	$46
	.byte	$88
	.byte	$10
	.byte	$EF
	.byte	$75
	.byte	$A8
	.byte	$7E
	.byte	$85
	.byte	$FA
	.byte	$DD
	.byte	$26
	.byte	$65
	.byte	$AF
	.byte	$DB
	.byte	$AF
	.byte	$75
	.byte	$8D
	.byte	$2F
	.byte	$F2
	.byte	$5D
	.byte	$E9
	.byte	$E5
	.byte	$EC
	.byte	$F5
	.byte	$9B
	.byte	$B2
	.byte	$E8
	.byte	$7A
	.byte	$41
	.byte	$49
	.byte	$F0
	.byte	$9A
	.byte	$0A
	.byte	$71
	.byte	$46
	.byte	$33
	.byte	$D6
	.byte	$9A
	.byte	$46
	.byte	$48
	.byte	$F3
	.byte	$C5
	.byte	$A7
	.byte	$B7
	.byte	$B2
	.byte	$CD
	.byte	$D5
	.byte	$2F
	.byte	$F8
	.byte	$DD
	.byte	$09
	.byte	$00
_s_desc1:
	.byte	$B9
	.byte	$3E
	.byte	$A7
	.byte	$FB
	.byte	$ED
	.byte	$10
	.byte	$11
	.byte	$00
_short_d1:
	.byte	$B9
	.byte	$3E
	.byte	$A7
	.byte	$FB
	.byte	$ED
	.byte	$10
	.byte	$11
	.byte	$00
_long_d2:
	.byte	$61
	.byte	$B8
	.byte	$9E
	.byte	$75
	.byte	$3B
	.byte	$C4
	.byte	$EB
	.byte	$F2
	.byte	$D2
	.byte	$FD
	.byte	$39
	.byte	$DD
	.byte	$6F
	.byte	$87
	.byte	$88
	.byte	$50
	.byte	$BF
	.byte	$DB
	.byte	$A4
	.byte	$EC
	.byte	$75
	.byte	$FB
	.byte	$B5
	.byte	$AE
	.byte	$F1
	.byte	$45
	.byte	$BE
	.byte	$2B
	.byte	$BD
	.byte	$9C
	.byte	$BD
	.byte	$BE
	.byte	$13
	.byte	$00
_s_desc2:
	.byte	$B9
	.byte	$3E
	.byte	$A7
	.byte	$FB
	.byte	$ED
	.byte	$10
	.byte	$11
	.byte	$00
_short_d2:
	.byte	$B9
	.byte	$3E
	.byte	$A7
	.byte	$FB
	.byte	$ED
	.byte	$10
	.byte	$11
	.byte	$00
_long_d3:
	.byte	$61
	.byte	$B8
	.byte	$9E
	.byte	$75
	.byte	$3B
	.byte	$C4
	.byte	$EB
	.byte	$F2
	.byte	$D2
	.byte	$FD
	.byte	$39
	.byte	$DD
	.byte	$6F
	.byte	$87
	.byte	$88
	.byte	$50
	.byte	$BF
	.byte	$DB
	.byte	$A4
	.byte	$EC
	.byte	$75
	.byte	$FB
	.byte	$B5
	.byte	$AE
	.byte	$F1
	.byte	$45
	.byte	$BE
	.byte	$2B
	.byte	$BD
	.byte	$9C
	.byte	$BD
	.byte	$BE
	.byte	$13
	.byte	$00
_s_desc3:
	.byte	$B9
	.byte	$3E
	.byte	$A7
	.byte	$FB
	.byte	$ED
	.byte	$10
	.byte	$11
	.byte	$00
_short_d3:
	.byte	$B9
	.byte	$3E
	.byte	$A7
	.byte	$FB
	.byte	$ED
	.byte	$10
	.byte	$11
	.byte	$00
_long_d4:
	.byte	$61
	.byte	$B8
	.byte	$2E
	.byte	$2F
	.byte	$DD
	.byte	$F8
	.byte	$F6
	.byte	$E9
	.byte	$4A
	.byte	$2F
	.byte	$67
	.byte	$D3
	.byte	$78
	.byte	$F5
	.byte	$F6
	.byte	$15
	.byte	$6F
	.byte	$F4
	.byte	$77
	.byte	$81
	.byte	$0F
	.byte	$8D
	.byte	$D7
	.byte	$95
	.byte	$5E
	.byte	$CE
	.byte	$AE
	.byte	$29
	.byte	$8B
	.byte	$A6
	.byte	$D9
	.byte	$B7
	.byte	$31
	.byte	$7A
	.byte	$6C
	.byte	$9A
	.byte	$D7
	.byte	$63
	.byte	$E9
	.byte	$77
	.byte	$A5
	.byte	$97
	.byte	$B3
	.byte	$D7
	.byte	$77
	.byte	$02
_s_desc4:
	.byte	$AE
	.byte	$0F
	.byte	$F1
	.byte	$1A
	.byte	$21
	.byte	$F2
	.byte	$5D
	.byte	$E9
	.byte	$E5
	.byte	$EC
	.byte	$F5
	.byte	$9B
	.byte	$F3
	.byte	$75
	.byte	$9A
	.byte	$63
	.byte	$38
	.byte	$06
	.byte	$00
_short_d4:
	.byte	$AE
	.byte	$0F
	.byte	$F1
	.byte	$1A
	.byte	$21
	.byte	$F2
	.byte	$5D
	.byte	$E9
	.byte	$E5
	.byte	$EC
	.byte	$F5
	.byte	$03
_long_d5:
	.byte	$61
	.byte	$B8
	.byte	$2E
	.byte	$2F
	.byte	$DD
	.byte	$F8
	.byte	$F6
	.byte	$E9
	.byte	$4A
	.byte	$2F
	.byte	$67
	.byte	$D3
	.byte	$78
	.byte	$F5
	.byte	$F6
	.byte	$15
	.byte	$6F
	.byte	$F4
	.byte	$77
	.byte	$81
	.byte	$0F
	.byte	$8D
	.byte	$D7
	.byte	$95
	.byte	$5E
	.byte	$CE
	.byte	$AE
	.byte	$29
	.byte	$8B
	.byte	$A6
	.byte	$D9
	.byte	$B7
	.byte	$31
	.byte	$7A
	.byte	$6C
	.byte	$9A
	.byte	$D7
	.byte	$63
	.byte	$E9
	.byte	$77
	.byte	$A5
	.byte	$97
	.byte	$B3
	.byte	$D7
	.byte	$77
	.byte	$02
_s_desc5:
	.byte	$AE
	.byte	$0F
	.byte	$F1
	.byte	$1A
	.byte	$21
	.byte	$F2
	.byte	$5D
	.byte	$E9
	.byte	$E5
	.byte	$EC
	.byte	$F5
	.byte	$03
_short_d5:
	.byte	$AE
	.byte	$0F
	.byte	$F1
	.byte	$1A
	.byte	$21
	.byte	$F2
	.byte	$5D
	.byte	$E9
	.byte	$E5
	.byte	$EC
	.byte	$F5
	.byte	$03
_long_d6:
	.byte	$61
	.byte	$B8
	.byte	$2E
	.byte	$2F
	.byte	$DD
	.byte	$F8
	.byte	$F6
	.byte	$E9
	.byte	$4A
	.byte	$2F
	.byte	$67
	.byte	$D3
	.byte	$78
	.byte	$F5
	.byte	$F6
	.byte	$15
	.byte	$6F
	.byte	$F4
	.byte	$77
	.byte	$81
	.byte	$0F
	.byte	$8D
	.byte	$D7
	.byte	$95
	.byte	$5E
	.byte	$CE
	.byte	$AE
	.byte	$29
	.byte	$8B
	.byte	$A6
	.byte	$D9
	.byte	$B7
	.byte	$31
	.byte	$7A
	.byte	$6C
	.byte	$9A
	.byte	$D7
	.byte	$63
	.byte	$E9
	.byte	$77
	.byte	$A5
	.byte	$97
	.byte	$B3
	.byte	$D7
	.byte	$77
	.byte	$02
_s_desc6:
	.byte	$AE
	.byte	$0F
	.byte	$F1
	.byte	$1A
	.byte	$21
	.byte	$F2
	.byte	$5D
	.byte	$E9
	.byte	$E5
	.byte	$EC
	.byte	$F5
	.byte	$9B
	.byte	$F3
	.byte	$75
	.byte	$1A
	.byte	$E6
	.byte	$63
	.byte	$00
_short_d6:
	.byte	$AE
	.byte	$0F
	.byte	$F1
	.byte	$1A
	.byte	$21
	.byte	$F2
	.byte	$5D
	.byte	$E9
	.byte	$E5
	.byte	$EC
	.byte	$F5
	.byte	$03
_long_d7:
	.byte	$61
	.byte	$B8
	.byte	$2E
	.byte	$2F
	.byte	$F2
	.byte	$5D
	.byte	$E9
	.byte	$E5
	.byte	$EC
	.byte	$F5
	.byte	$9B
	.byte	$B2
	.byte	$68
	.byte	$1A
	.byte	$8B
	.byte	$3E
	.byte	$A1
	.byte	$24
	.byte	$78
	.byte	$4D
	.byte	$85
	.byte	$38
	.byte	$A3
	.byte	$19
	.byte	$6B
	.byte	$4D
	.byte	$23
	.byte	$A4
	.byte	$BB
	.byte	$5F
	.byte	$18
	.byte	$27
	.byte	$00
_s_desc7:
	.byte	$61
	.byte	$E9
	.byte	$E5
	.byte	$EC
	.byte	$F5
	.byte	$9B
	.byte	$F3
	.byte	$75
	.byte	$9A
	.byte	$63
	.byte	$38
	.byte	$06
	.byte	$00
_short_d7:
	.byte	$61
	.byte	$E9
	.byte	$E5
	.byte	$EC
	.byte	$F5
	.byte	$03
_long_d8:
	.byte	$61
	.byte	$B8
	.byte	$2E
	.byte	$2F
	.byte	$F2
	.byte	$5D
	.byte	$E9
	.byte	$E5
	.byte	$EC
	.byte	$F5
	.byte	$9B
	.byte	$B2
	.byte	$68
	.byte	$1A
	.byte	$8B
	.byte	$3E
	.byte	$A1
	.byte	$24
	.byte	$78
	.byte	$4D
	.byte	$85
	.byte	$38
	.byte	$A3
	.byte	$19
	.byte	$6B
	.byte	$4D
	.byte	$23
	.byte	$A4
	.byte	$BB
	.byte	$5F
	.byte	$18
	.byte	$27
	.byte	$00
_s_desc8:
	.byte	$61
	.byte	$E9
	.byte	$E5
	.byte	$EC
	.byte	$F5
	.byte	$03
_short_d8:
	.byte	$61
	.byte	$E9
	.byte	$E5
	.byte	$EC
	.byte	$F5
	.byte	$03
_long_d9:
	.byte	$61
	.byte	$B8
	.byte	$2E
	.byte	$2F
	.byte	$F2
	.byte	$5D
	.byte	$E9
	.byte	$E5
	.byte	$EC
	.byte	$F5
	.byte	$9B
	.byte	$B2
	.byte	$68
	.byte	$1A
	.byte	$8B
	.byte	$3E
	.byte	$A1
	.byte	$24
	.byte	$78
	.byte	$4D
	.byte	$85
	.byte	$38
	.byte	$A3
	.byte	$19
	.byte	$6B
	.byte	$4D
	.byte	$23
	.byte	$A4
	.byte	$BB
	.byte	$5F
	.byte	$18
	.byte	$27
	.byte	$00
_s_desc9:
	.byte	$61
	.byte	$E9
	.byte	$E5
	.byte	$EC
	.byte	$F5
	.byte	$9B
	.byte	$F3
	.byte	$75
	.byte	$1A
	.byte	$E6
	.byte	$63
	.byte	$00
_short_d9:
	.byte	$61
	.byte	$E9
	.byte	$E5
	.byte	$EC
	.byte	$F5
	.byte	$03
_long_d10:
	.byte	$61
	.byte	$B8
	.byte	$1A
	.byte	$44
	.byte	$08
	.byte	$D8
	.byte	$F0
	.byte	$8E
	.byte	$BE
	.byte	$F2
	.byte	$4D
	.byte	$E3
	.byte	$F5
	.byte	$8C
	.byte	$66
	.byte	$AC
	.byte	$35
	.byte	$8D
	.byte	$90
	.byte	$EE
	.byte	$7E
	.byte	$61
	.byte	$9C
	.byte	$BA
	.byte	$F6
	.byte	$73
	.byte	$25
	.byte	$11
	.byte	$C1
	.byte	$A8
	.byte	$B7
	.byte	$C2
	.byte	$86
	.byte	$77
	.byte	$34
	.byte	$3D
	.byte	$2B
	.byte	$44
	.byte	$A6
	.byte	$9B
	.byte	$A7
	.byte	$52
	.byte	$E5
	.byte	$D2
	.byte	$E9
	.byte	$F3
	.byte	$4D
	.byte	$A8
	.byte	$2F
	.byte	$3A
	.byte	$7D
	.byte	$D9
	.byte	$61
	.byte	$53
	.byte	$65
	.byte	$74
	.byte	$87
	.byte	$F2
	.byte	$39
	.byte	$01
_s_desc10:
	.byte	$F9
	.byte	$28
	.byte	$DF
	.byte	$34
	.byte	$5E
	.byte	$CF
	.byte	$68
	.byte	$C6
	.byte	$5A
	.byte	$D3
	.byte	$9C
	.byte	$AF
	.byte	$D3
	.byte	$1C
	.byte	$C3
	.byte	$31
	.byte	$00
_short_d10:
	.byte	$F9
	.byte	$28
	.byte	$DF
	.byte	$34
	.byte	$5E
	.byte	$CF
	.byte	$68
	.byte	$C6
	.byte	$5A
	.byte	$13
	.byte	$00
_long_d11:
	.byte	$61
	.byte	$B8
	.byte	$1A
	.byte	$44
	.byte	$08
	.byte	$D8
	.byte	$F0
	.byte	$8E
	.byte	$BE
	.byte	$F2
	.byte	$4D
	.byte	$E3
	.byte	$F5
	.byte	$8C
	.byte	$66
	.byte	$AC
	.byte	$35
	.byte	$8D
	.byte	$90
	.byte	$EE
	.byte	$7E
	.byte	$61
	.byte	$9C
	.byte	$00
_s_desc11:
	.byte	$F9
	.byte	$28
	.byte	$DF
	.byte	$34
	.byte	$5E
	.byte	$CF
	.byte	$68
	.byte	$C6
	.byte	$5A
	.byte	$13
	.byte	$00
_short_d11:
	.byte	$F9
	.byte	$28
	.byte	$DF
	.byte	$34
	.byte	$5E
	.byte	$CF
	.byte	$68
	.byte	$C6
	.byte	$5A
	.byte	$13
	.byte	$00
_long_d12:
	.byte	$61
	.byte	$B8
	.byte	$1A
	.byte	$44
	.byte	$08
	.byte	$D8
	.byte	$F0
	.byte	$8E
	.byte	$BE
	.byte	$F2
	.byte	$4D
	.byte	$E3
	.byte	$F5
	.byte	$8C
	.byte	$66
	.byte	$AC
	.byte	$35
	.byte	$8D
	.byte	$90
	.byte	$EE
	.byte	$7E
	.byte	$61
	.byte	$9C
	.byte	$BA
	.byte	$F6
	.byte	$73
	.byte	$25
	.byte	$11
	.byte	$C1
	.byte	$A8
	.byte	$B7
	.byte	$C2
	.byte	$86
	.byte	$77
	.byte	$34
	.byte	$3D
	.byte	$2B
	.byte	$44
	.byte	$A6
	.byte	$9B
	.byte	$A7
	.byte	$52
	.byte	$E5
	.byte	$D2
	.byte	$E9
	.byte	$F3
	.byte	$4D
	.byte	$A8
	.byte	$2F
	.byte	$3A
	.byte	$7D
	.byte	$D9
	.byte	$61
	.byte	$53
	.byte	$65
	.byte	$74
	.byte	$87
	.byte	$F2
	.byte	$39
	.byte	$01
_s_desc12:
	.byte	$F9
	.byte	$28
	.byte	$DF
	.byte	$34
	.byte	$5E
	.byte	$CF
	.byte	$68
	.byte	$C6
	.byte	$5A
	.byte	$D3
	.byte	$9C
	.byte	$AF
	.byte	$D3
	.byte	$30
	.byte	$1F
	.byte	$03
_short_d12:
	.byte	$F9
	.byte	$28
	.byte	$DF
	.byte	$34
	.byte	$5E
	.byte	$CF
	.byte	$68
	.byte	$C6
	.byte	$5A
	.byte	$13
	.byte	$00
_long_d13:
	.byte	$61
	.byte	$B8
	.byte	$C6
	.byte	$27
	.byte	$DF
	.byte	$F4
	.byte	$FA
	.byte	$22
	.byte	$DF
	.byte	$6D
	.byte	$58
	.byte	$BF
	.byte	$F1
	.byte	$7A
	.byte	$46
	.byte	$33
	.byte	$D6
	.byte	$9A
	.byte	$46
	.byte	$48
	.byte	$37
	.byte	$F0
	.byte	$1A
	.byte	$7B
	.byte	$81
	.byte	$13
	.byte	$00
_s_desc13:
	.byte	$AE
	.byte	$87
	.byte	$F5
	.byte	$1B
	.byte	$89
	.byte	$33
	.byte	$9A
	.byte	$B1
	.byte	$D6
	.byte	$04
	.byte	$00
_short_d13:
	.byte	$AE
	.byte	$87
	.byte	$F5
	.byte	$03
_long_d14:
	.byte	$61
	.byte	$B8
	.byte	$C6
	.byte	$27
	.byte	$DF
	.byte	$F4
	.byte	$FA
	.byte	$22
	.byte	$5F
	.byte	$EA
	.byte	$D1
	.byte	$72
	.byte	$50
	.byte	$05
	.byte	$DF
	.byte	$37
	.byte	$42
	.byte	$BA
	.byte	$FB
	.byte	$85
	.byte	$71
	.byte	$EA
	.byte	$22
	.byte	$25
	.byte	$9F
	.byte	$D3
	.byte	$34
	.byte	$5E
	.byte	$3F
	.byte	$25
	.byte	$AC
	.byte	$35
	.byte	$05
	.byte	$D1
	.byte	$94
	.byte	$3D
	.byte	$BF
	.byte	$26
	.byte	$D4
	.byte	$34
	.byte	$EB
	.byte	$88
	.byte	$A6
	.byte	$D9
	.byte	$D1
	.byte	$2B
	.byte	$F9
	.byte	$7C
	.byte	$5D
	.byte	$DB
	.byte	$B0
	.byte	$42
	.byte	$E4
	.byte	$1A
	.byte	$87
	.byte	$44
	.byte	$D7
	.byte	$95
	.byte	$84
	.byte	$C5
	.byte	$B1
	.byte	$E9
	.byte	$95
	.byte	$7A
	.byte	$B4
	.byte	$1C
	.byte	$54
	.byte	$CF
	.byte	$69
	.byte	$00
_s_desc14:
	.byte	$F9
	.byte	$3A
	.byte	$5A
	.byte	$0E
	.byte	$AA
	.byte	$E0
	.byte	$FB
	.byte	$00
_short_d14:
	.byte	$F9
	.byte	$3A
	.byte	$5A
	.byte	$0E
	.byte	$AA
	.byte	$E0
	.byte	$FB
	.byte	$00
_long_d15:
	.byte	$39
	.byte	$BF
	.byte	$EB
	.byte	$E5
	.byte	$4B
	.byte	$82
	.byte	$23
	.byte	$0A
	.byte	$A2
	.byte	$DE
	.byte	$08
	.byte	$AC
	.byte	$57
	.byte	$FD
	.byte	$32
	.byte	$36
	.byte	$B9
	.byte	$F4
	.byte	$8D
	.byte	$10
	.byte	$21
	.byte	$DE
	.byte	$5E
	.byte	$86
	.byte	$FE
	.byte	$AE
	.byte	$97
	.byte	$6F
	.byte	$84
	.byte	$C8
	.byte	$D7
	.byte	$F5
	.byte	$F1
	.byte	$EF
	.byte	$17
	.byte	$D1
	.byte	$78
	.byte	$75
	.byte	$F1
	.byte	$66
	.byte	$3E
	.byte	$EB
	.byte	$94
	.byte	$82
	.byte	$57
	.byte	$9D
	.byte	$82
	.byte	$E8
	.byte	$06
	.byte	$CE
	.byte	$40
	.byte	$75
	.byte	$9A
	.byte	$39
	.byte	$AB
	.byte	$E1
	.byte	$BA
	.byte	$9F
	.byte	$DD
	.byte	$7E
	.byte	$8D
	.byte	$50
	.byte	$7D
	.byte	$5A
	.byte	$CE
	.byte	$71
	.byte	$D5
	.byte	$C2
	.byte	$BC
	.byte	$54
	.byte	$5E
	.byte	$A7
	.byte	$43
	.byte	$62
	.byte	$69
	.byte	$13
	.byte	$01
	.byte	$A2
	.byte	$DE
	.byte	$BE
	.byte	$DB
	.byte	$B0
	.byte	$7E
	.byte	$E3
	.byte	$75
	.byte	$5D
	.byte	$F2
	.byte	$0C
	.byte	$77
	.byte	$F7
	.byte	$0F
	.byte	$35
	.byte	$8E
	.byte	$BE
	.byte	$7E
	.byte	$E3
	.byte	$75
	.byte	$7F
	.byte	$3B
	.byte	$5A
	.byte	$6E
	.byte	$0C
	.byte	$7D
	.byte	$D3
	.byte	$DB
	.byte	$DE
	.byte	$2E
	.byte	$8D
	.byte	$13
	.byte	$00
_s_desc15:
	.byte	$61
	.byte	$2F
	.byte	$DF
	.byte	$DC
	.byte	$0F
	.byte	$8E
	.byte	$08
	.byte	$00
_short_d15:
	.byte	$61
	.byte	$2F
	.byte	$DF
	.byte	$DC
	.byte	$0F
	.byte	$8E
	.byte	$08
	.byte	$00
_long_d16:
	.byte	$61
	.byte	$B8
	.byte	$BE
	.byte	$08
	.byte	$71
	.byte	$46
	.byte	$33
	.byte	$D6
	.byte	$9A
	.byte	$46
	.byte	$48
	.byte	$D7
	.byte	$CB
	.byte	$18
	.byte	$9A
	.byte	$60
	.byte	$CA
	.byte	$2F
	.byte	$08
	.byte	$15
	.byte	$36
	.byte	$BC
	.byte	$23
	.byte	$D4
	.byte	$34
	.byte	$D6
	.byte	$35
	.byte	$99
	.byte	$CC
	.byte	$A9
	.byte	$5E
	.byte	$5F
	.byte	$F4
	.byte	$D6
	.byte	$BA
	.byte	$FD
	.byte	$9C
	.byte	$E6
	.byte	$21
	.byte	$0A
	.byte	$F2
	.byte	$22
	.byte	$4C
	.byte	$51
	.byte	$F9
	.byte	$2E
	.byte	$FF
	.byte	$5D
	.byte	$CA
	.byte	$5E
	.byte	$D5
	.byte	$F3
	.byte	$37
	.byte	$5E
	.byte	$23
	.byte	$F8
	.byte	$C8
	.byte	$77
	.byte	$BF
	.byte	$31
	.byte	$74
	.byte	$54
	.byte	$27
	.byte	$C1
	.byte	$14
	.byte	$2B
	.byte	$BD
	.byte	$D3
	.byte	$30
	.byte	$2F
	.byte	$95
	.byte	$D7
	.byte	$E9
	.byte	$90
	.byte	$58
	.byte	$DA
	.byte	$44
	.byte	$80
	.byte	$A8
	.byte	$10
	.byte	$B0
	.byte	$E1
	.byte	$1D
	.byte	$DD
	.byte	$86
	.byte	$75
	.byte	$0C
	.byte	$8D
	.byte	$D7
	.byte	$4F
	.byte	$09
	.byte	$6B
	.byte	$4D
	.byte	$A8
	.byte	$54
	.byte	$58
	.byte	$53
	.byte	$F6
	.byte	$FC
	.byte	$1A
	.byte	$A7
	.byte	$AE
	.byte	$7C
	.byte	$BD
	.byte	$55
	.byte	$5E
	.byte	$27
	.byte	$D4
	.byte	$44
	.byte	$80
	.byte	$A8
	.byte	$B7
	.byte	$A6
	.byte	$D9
	.byte	$37
	.byte	$AF
	.byte	$E0
	.byte	$92
	.byte	$67
	.byte	$FA
	.byte	$34
	.byte	$42
	.byte	$F5
	.byte	$56
	.byte	$0A
	.byte	$2E
	.byte	$6E
	.byte	$71
	.byte	$4B
	.byte	$73
	.byte	$CF
	.byte	$6D
	.byte	$F2
	.byte	$71
	.byte	$02
_s_desc16:
	.byte	$61
	.byte	$2F
	.byte	$63
	.byte	$A8
	.byte	$1B
	.byte	$98
	.byte	$F2
	.byte	$0B
	.byte	$9A
	.byte	$F3
	.byte	$75
	.byte	$9A
	.byte	$3B
	.byte	$12
	.byte	$4B
	.byte	$03
_short_d16:
	.byte	$61
	.byte	$2F
	.byte	$63
	.byte	$68
	.byte	$82
	.byte	$29
	.byte	$BF
	.byte	$20
	.byte	$00
_long_d17:
	.byte	$AE
	.byte	$0C
	.byte	$E9
	.byte	$2D
	.byte	$AF
	.byte	$47
	.byte	$F5
	.byte	$4A
	.byte	$1F
	.byte	$5F
	.byte	$A8
	.byte	$F2
	.byte	$5D
	.byte	$2F
	.byte	$5F
	.byte	$10
	.byte	$E5
	.byte	$4B
	.byte	$B3
	.byte	$81
	.byte	$F5
	.byte	$1B
	.byte	$AF
	.byte	$B7
	.byte	$12
	.byte	$9F
	.byte	$FB
	.byte	$8D
	.byte	$5D
	.byte	$CF
	.byte	$4A
	.byte	$83
	.byte	$87
	.byte	$96
	.byte	$CB
	.byte	$5C
	.byte	$BA
	.byte	$F2
	.byte	$AD
	.byte	$17
	.byte	$98
	.byte	$5E
	.byte	$5F
	.byte	$E4
	.byte	$1B
	.byte	$CF
	.byte	$7E
	.byte	$E9
	.byte	$7D
	.byte	$23
	.byte	$A4
	.byte	$6E
	.byte	$7D
	.byte	$FE
	.byte	$31
	.byte	$D4
	.byte	$C5
	.byte	$9B
	.byte	$F9
	.byte	$AC
	.byte	$D3
	.byte	$B0
	.byte	$B1
	.byte	$69
	.byte	$84
	.byte	$08
	.byte	$CA
	.byte	$B7
	.byte	$F1
	.byte	$44
	.byte	$EF
	.byte	$7E
	.byte	$63
	.byte	$D7
	.byte	$B3
	.byte	$C4
	.byte	$88
	.byte	$47
	.byte	$3D
	.byte	$D9
	.byte	$61
	.byte	$8A
	.byte	$7E
	.byte	$4A
	.byte	$9E
	.byte	$5F
	.byte	$D1
	.byte	$08
	.byte	$11
	.byte	$F4
	.byte	$56
	.byte	$E2
	.byte	$73
	.byte	$BF
	.byte	$B1
	.byte	$AB
	.byte	$F2
	.byte	$90
	.byte	$AF
	.byte	$E8
	.byte	$8B
	.byte	$10
	.byte	$67
	.byte	$0A
	.byte	$B6
	.byte	$69
	.byte	$84
	.byte	$C8
	.byte	$77
	.byte	$3B
	.byte	$FE
	.byte	$FD
	.byte	$22
	.byte	$9C
	.byte	$E6
	.byte	$18
	.byte	$EB
	.byte	$6F
	.byte	$DB
	.byte	$B3
	.byte	$C2
	.byte	$E8
	.byte	$B1
	.byte	$E9
	.byte	$C7
	.byte	$7A
	.byte	$FB
	.byte	$AE
	.byte	$97
	.byte	$EF
	.byte	$59
	.byte	$B7
	.byte	$67
	.byte	$BD
	.byte	$34
	.byte	$F2
	.byte	$8C
	.byte	$50
	.byte	$17
	.byte	$76
	.byte	$2A
	.byte	$7F
	.byte	$B7
	.byte	$F3
	.byte	$AA
	.byte	$B3
	.byte	$74
	.byte	$9A
	.byte	$B2
	.byte	$A8
	.byte	$A0
	.byte	$B7
	.byte	$12
	.byte	$9F
	.byte	$FB
	.byte	$8D
	.byte	$5D
	.byte	$23
	.byte	$44
	.byte	$50
	.byte	$F2
	.byte	$F9
	.byte	$D0
	.byte	$F5
	.byte	$82
	.byte	$0E
	.byte	$1F
	.byte	$7D
	.byte	$F6
	.byte	$7C
	.byte	$68
	.byte	$84
	.byte	$C8
	.byte	$77
	.byte	$3B
	.byte	$FE
	.byte	$FD
	.byte	$22
	.byte	$BA
	.byte	$EE
	.byte	$6D
	.byte	$BA
	.byte	$F4
	.byte	$15
	.byte	$E5
	.byte	$4F
	.byte	$69
	.byte	$44
	.byte	$D1
	.byte	$E5
	.byte	$9B
	.byte	$D7
	.byte	$63
	.byte	$29
	.byte	$BA
	.byte	$3D
	.byte	$43
	.byte	$CF
	.byte	$09
	.byte	$00
_s_desc17:
	.byte	$61
	.byte	$2F
	.byte	$DF
	.byte	$88
	.byte	$2B
	.byte	$0D
	.byte	$1E
	.byte	$5A
	.byte	$2E
	.byte	$73
	.byte	$E9
	.byte	$02
_short_d17:
	.byte	$61
	.byte	$2F
	.byte	$DF
	.byte	$88
	.byte	$2B
	.byte	$0D
	.byte	$1E
	.byte	$5A
	.byte	$2E
	.byte	$73
	.byte	$E9
	.byte	$02
_long_d18:
	.byte	$61
	.byte	$B8
	.byte	$9E
	.byte	$D5
	.byte	$DB
	.byte	$77
	.byte	$BD
	.byte	$7C
	.byte	$D3
	.byte	$EC
	.byte	$9B
	.byte	$40
	.byte	$7F
	.byte	$87
	.byte	$29
	.byte	$4A
	.byte	$BD
	.byte	$B7
	.byte	$F4
	.byte	$A1
	.byte	$C6
	.byte	$AB
	.byte	$B7
	.byte	$A6
	.byte	$B7
	.byte	$38
	.byte	$8C
	.byte	$3E
	.byte	$95
	.byte	$FA
	.byte	$E9
	.byte	$EC
	.byte	$4D
	.byte	$E1
	.byte	$04
	.byte	$00
_s_desc18:
	.byte	$61
	.byte	$2F
	.byte	$5F
	.byte	$EA
	.byte	$BD
	.byte	$A5
	.byte	$0F
	.byte	$00
_short_d18:
	.byte	$61
	.byte	$2F
	.byte	$5F
	.byte	$EA
	.byte	$BD
	.byte	$A5
	.byte	$0F
	.byte	$00
_long_d19:
	.byte	$14
	.byte	$AE
	.byte	$CA
	.byte	$43
	.byte	$5E
	.byte	$BF
	.byte	$3B
	.byte	$F4
	.byte	$89
	.byte	$46
	.byte	$48
	.byte	$D7
	.byte	$CB
	.byte	$18
	.byte	$9A
	.byte	$60
	.byte	$CA
	.byte	$2F
	.byte	$70
	.byte	$EA
	.byte	$22
	.byte	$DD
	.byte	$9E
	.byte	$BC
	.byte	$1D
	.byte	$A6
	.byte	$D3
	.byte	$78
	.byte	$DD
	.byte	$9F
	.byte	$F7
	.byte	$29
	.byte	$CD
	.byte	$48
	.byte	$D3
	.byte	$0D
	.byte	$A6
	.byte	$90
	.byte	$4B
	.byte	$53
	.byte	$10
	.byte	$DD
	.byte	$BC
	.byte	$9C
	.byte	$DE
	.byte	$5A
	.byte	$B7
	.byte	$8F
	.byte	$D3
	.byte	$FC
	.byte	$F0
	.byte	$CF
	.byte	$F1
	.byte	$2D
	.byte	$4E
	.byte	$CF
	.byte	$FA
	.byte	$A2
	.byte	$D3
	.byte	$CD
	.byte	$CF
	.byte	$95
	.byte	$44
	.byte	$04
	.byte	$A3
	.byte	$DE
	.byte	$0A
	.byte	$1B
	.byte	$DE
	.byte	$51
	.byte	$F9
	.byte	$7D
	.byte	$FB
	.byte	$F8
	.byte	$7C
	.byte	$D3
	.byte	$78
	.byte	$4D
	.byte	$7C
	.byte	$4B
	.byte	$5F
	.byte	$64
	.byte	$42
	.byte	$4D
	.byte	$60
	.byte	$FD
	.byte	$1D
	.byte	$A6
	.byte	$E8
	.byte	$36
	.byte	$4B
	.byte	$A7
	.byte	$72
	.byte	$44
	.byte	$95
	.byte	$BF
	.byte	$42
	.byte	$8C
	.byte	$EA
	.byte	$24
	.byte	$98
	.byte	$4E
	.byte	$51
	.byte	$21
	.byte	$CE
	.byte	$CE
	.byte	$FD
	.byte	$A6
	.byte	$11
	.byte	$52
	.byte	$1B
	.byte	$12
	.byte	$09
	.byte	$A6
	.byte	$13
	.byte	$EA
	.byte	$06
	.byte	$BE
	.byte	$89
	.byte	$D3
	.byte	$78
	.byte	$DD
	.byte	$7F
	.byte	$AD
	.byte	$DB
	.byte	$A7
	.byte	$6B
	.byte	$13
	.byte	$58
	.byte	$1C
	.byte	$46
	.byte	$23
	.byte	$44
	.byte	$50
	.byte	$AC
	.byte	$4D
	.byte	$86
	.byte	$DF
	.byte	$FD
	.byte	$C6
	.byte	$AE
	.byte	$67
	.byte	$CD
	.byte	$43
	.byte	$9F
	.byte	$EA
	.byte	$38
	.byte	$01
_s_desc19:
	.byte	$61
	.byte	$2F
	.byte	$63
	.byte	$A8
	.byte	$1B
	.byte	$98
	.byte	$F2
	.byte	$0B
	.byte	$1A
	.byte	$00
_short_d19:
	.byte	$61
	.byte	$2F
	.byte	$63
	.byte	$A8
	.byte	$1B
	.byte	$98
	.byte	$F2
	.byte	$0B
	.byte	$02
_long_d20:
	.byte	$39
	.byte	$BF
	.byte	$99
	.byte	$E1
	.byte	$FD
	.byte	$BB
	.byte	$3D
	.byte	$EB
	.byte	$A5
	.byte	$91
	.byte	$67
	.byte	$34
	.byte	$5E
	.byte	$F3
	.byte	$7A
	.byte	$2C
	.byte	$FD
	.byte	$AE
	.byte	$97
	.byte	$2F
	.byte	$88
	.byte	$CA
	.byte	$37
	.byte	$CD
	.byte	$FA
	.byte	$A6
	.byte	$2C
	.byte	$9A
	.byte	$46
	.byte	$B6
	.byte	$5B
	.byte	$09
	.byte	$8D
	.byte	$D7
	.byte	$ED
	.byte	$3C
	.byte	$E1
	.byte	$D4
	.byte	$45
	.byte	$CA
	.byte	$58
	.byte	$3A
	.byte	$B5
	.byte	$B1
	.byte	$82
	.byte	$E8
	.byte	$3E
	.byte	$A2
	.byte	$D3
	.byte	$78
	.byte	$24
	.byte	$78
	.byte	$4D
	.byte	$E3
	.byte	$8B
	.byte	$A0
	.byte	$2F
	.byte	$CA
	.byte	$E8
	.byte	$7A
	.byte	$81
	.byte	$53
	.byte	$57
	.byte	$BE
	.byte	$DE
	.byte	$2A
	.byte	$AF
	.byte	$D3
	.byte	$44
	.byte	$80
	.byte	$A8
	.byte	$B7
	.byte	$EF
	.byte	$76
	.byte	$29
	.byte	$8D
	.byte	$7C
	.byte	$57
	.byte	$7A
	.byte	$F9
	.byte	$C6
	.byte	$EB
	.byte	$02
	.byte	$93
	.byte	$E7
	.byte	$7E
	.byte	$D3
	.byte	$94
	.byte	$45
	.byte	$D3
	.byte	$58
	.byte	$F4
	.byte	$09
	.byte	$3D
	.byte	$EB
	.byte	$8B
	.byte	$8E
	.byte	$53
	.byte	$57
	.byte	$9E
	.byte	$7C
	.byte	$D3
	.byte	$EB
	.byte	$8B
	.byte	$7C
	.byte	$57
	.byte	$7A
	.byte	$F9
	.byte	$26
	.byte	$02
	.byte	$44
	.byte	$BD
	.byte	$75
	.byte	$81
	.byte	$B6
	.byte	$17
	.byte	$34
	.byte	$5E
	.byte	$E3
	.byte	$91
	.byte	$07
	.byte	$9D
	.byte	$C6
	.byte	$EB
	.byte	$A7
	.byte	$84
	.byte	$B5
	.byte	$C6
	.byte	$09
	.byte	$00
_s_desc20:
	.byte	$61
	.byte	$2F
	.byte	$5F
	.byte	$E5
	.byte	$7B
	.byte	$A3
	.byte	$47
	.byte	$9E
	.byte	$11
	.byte	$00
_short_d20:
	.byte	$61
	.byte	$2F
	.byte	$5F
	.byte	$E5
	.byte	$7B
	.byte	$A3
	.byte	$47
	.byte	$9E
	.byte	$11
	.byte	$00
_long_d21:
	.byte	$61
	.byte	$B8
	.byte	$9E
	.byte	$D5
	.byte	$DB
	.byte	$77
	.byte	$BD
	.byte	$7C
	.byte	$D3
	.byte	$EC
	.byte	$9B
	.byte	$40
	.byte	$7F
	.byte	$87
	.byte	$29
	.byte	$CA
	.byte	$B3
	.byte	$D6
	.byte	$87
	.byte	$EA
	.byte	$AD
	.byte	$69
	.byte	$64
	.byte	$18
	.byte	$4D
	.byte	$59
	.byte	$34
	.byte	$8D
	.byte	$6C
	.byte	$B7
	.byte	$12
	.byte	$2A
	.byte	$C4
	.byte	$DB
	.byte	$ED
	.byte	$5F
	.byte	$54
	.byte	$AF
	.byte	$3B
	.byte	$54
	.byte	$51
	.byte	$6F
	.byte	$DD
	.byte	$86
	.byte	$E8
	.byte	$37
	.byte	$DE
	.byte	$7A
	.byte	$FA
	.byte	$C6
	.byte	$09
	.byte	$00
_s_desc21:
	.byte	$61
	.byte	$2F
	.byte	$5F
	.byte	$9E
	.byte	$B5
	.byte	$3E
	.byte	$00
_short_d21:
	.byte	$61
	.byte	$2F
	.byte	$5F
	.byte	$9E
	.byte	$B5
	.byte	$3E
	.byte	$00
_long_d22:
	.byte	$14
	.byte	$AE
	.byte	$CA
	.byte	$43
	.byte	$5E
	.byte	$5F
	.byte	$84
	.byte	$78
	.byte	$51
	.byte	$9E
	.byte	$62
	.byte	$29
	.byte	$63
	.byte	$9F
	.byte	$46
	.byte	$88
	.byte	$10
	.byte	$B0
	.byte	$E1
	.byte	$1D
	.byte	$5D
	.byte	$2F
	.byte	$63
	.byte	$68
	.byte	$82
	.byte	$29
	.byte	$BF
	.byte	$20
	.byte	$D4
	.byte	$F8
	.byte	$4D
	.byte	$FE
	.byte	$BA
	.byte	$AE
	.byte	$F1
	.byte	$B6
	.byte	$67
	.byte	$1D
	.byte	$9B
	.byte	$D2
	.byte	$72
	.byte	$FD
	.byte	$94
	.byte	$B0
	.byte	$D6
	.byte	$F5
	.byte	$63
	.byte	$5F
	.byte	$94
	.byte	$D1
	.byte	$A5
	.byte	$6F
	.byte	$EE
	.byte	$68
	.byte	$84
	.byte	$74
	.byte	$F7
	.byte	$0B
	.byte	$E3
	.byte	$D4
	.byte	$A5
	.byte	$6B
	.byte	$32
	.byte	$99
	.byte	$53
	.byte	$BD
	.byte	$BE
	.byte	$E8
	.byte	$AD
	.byte	$75
	.byte	$FB
	.byte	$75
	.byte	$5D
	.byte	$F9
	.byte	$D6
	.byte	$86
	.byte	$94
	.byte	$B2
	.byte	$F7
	.byte	$36
	.byte	$3D
	.byte	$AB
	.byte	$B7
	.byte	$6E
	.byte	$4F
	.byte	$DE
	.byte	$0E
	.byte	$D3
	.byte	$E9
	.byte	$E6
	.byte	$E5
	.byte	$F4
	.byte	$D6
	.byte	$BA
	.byte	$7D
	.byte	$9C
	.byte	$00
_s_desc22:
	.byte	$61
	.byte	$2F
	.byte	$63
	.byte	$A8
	.byte	$1B
	.byte	$98
	.byte	$F2
	.byte	$0B
	.byte	$9A
	.byte	$F3
	.byte	$75
	.byte	$9A
	.byte	$67
	.byte	$69
	.byte	$00
_short_d22:
	.byte	$61
	.byte	$2F
	.byte	$63
	.byte	$A8
	.byte	$1B
	.byte	$98
	.byte	$F2
	.byte	$0B
	.byte	$02
_long_d23:
	.byte	$B9
	.byte	$79
	.byte	$2C
	.byte	$FD
	.byte	$AE
	.byte	$97
	.byte	$2F
	.byte	$88
	.byte	$7A
	.byte	$FB
	.byte	$F2
	.byte	$A5
	.byte	$59
	.byte	$CA
	.byte	$DE
	.byte	$FD
	.byte	$C6
	.byte	$D0
	.byte	$78
	.byte	$CD
	.byte	$EB
	.byte	$21
	.byte	$F2
	.byte	$8D
	.byte	$57
	.byte	$6F
	.byte	$7D
	.byte	$49
	.byte	$D9
	.byte	$DB
	.byte	$6F
	.byte	$E9
	.byte	$37
	.byte	$42
	.byte	$84
	.byte	$78
	.byte	$D3
	.byte	$4B
	.byte	$D3
	.byte	$3C
	.byte	$F4
	.byte	$A9
	.byte	$4E
	.byte	$A8
	.byte	$E2
	.byte	$87
	.byte	$9E
	.byte	$C6
	.byte	$21
	.byte	$51
	.byte	$10
	.byte	$B5
	.byte	$D7
	.byte	$AF
	.byte	$10
	.byte	$2F
	.byte	$29
	.byte	$7B
	.byte	$FB
	.byte	$7D
	.byte	$A8
	.byte	$99
	.byte	$B1
	.byte	$F8
	.byte	$FA
	.byte	$8D
	.byte	$2F
	.byte	$8D
	.byte	$37
	.byte	$A5
	.byte	$90
	.byte	$1D
	.byte	$75
	.byte	$9A
	.byte	$F3
	.byte	$BB
	.byte	$5E
	.byte	$BE
	.byte	$1B
	.byte	$63
	.byte	$C1
	.byte	$F4
	.byte	$1B
	.byte	$71
	.byte	$55
	.byte	$2C
	.byte	$BD
	.byte	$C6
	.byte	$6B
	.byte	$E6
	.byte	$64
	.byte	$D6
	.byte	$64
	.byte	$AE
	.byte	$34
	.byte	$23
	.byte	$5D
	.byte	$D7
	.byte	$6C
	.byte	$FC
	.byte	$24
	.byte	$79
	.byte	$6B
	.byte	$79
	.byte	$BD
	.byte	$9E
	.byte	$55
	.byte	$F9
	.byte	$A3
	.byte	$77
	.byte	$BF
	.byte	$B1
	.byte	$EB
	.byte	$2D
	.byte	$F9
	.byte	$FD
	.byte	$52
	.byte	$16
	.byte	$4E
	.byte	$DD
	.byte	$CC
	.byte	$8E
	.byte	$AE
	.byte	$BF
	.byte	$50
	.byte	$AF
	.byte	$8A
	.byte	$A5
	.byte	$57
	.byte	$D0
	.byte	$E7
	.byte	$7E
	.byte	$6F
	.byte	$D7
	.byte	$B7
	.byte	$F8
	.byte	$3C
	.byte	$36
	.byte	$DD
	.byte	$C0
	.byte	$D1
	.byte	$EB
	.byte	$D5
	.byte	$20
	.byte	$42
	.byte	$9C
	.byte	$25
	.byte	$58
	.byte	$BC
	.byte	$69
	.byte	$84
	.byte	$C8
	.byte	$97
	.byte	$7A
	.byte	$54
	.byte	$B9
	.byte	$51
	.byte	$A4
	.byte	$6F
	.byte	$BC
	.byte	$E6
	.byte	$23
	.byte	$58
	.byte	$EB
	.byte	$2D
	.byte	$F2
	.byte	$7D
	.byte	$23
	.byte	$A4
	.byte	$14
	.byte	$73
	.byte	$0B
	.byte	$45
	.byte	$9D
	.byte	$BA
	.byte	$72
	.byte	$B5
	.byte	$51
	.byte	$90
	.byte	$23
	.byte	$E8
	.byte	$ED
	.byte	$DB
	.byte	$B0
	.byte	$BE
	.byte	$B9
	.byte	$7F
	.byte	$41
	.byte	$54
	.byte	$BE
	.byte	$14
	.byte	$9E
	.byte	$1C
	.byte	$F9
	.byte	$C6
	.byte	$6B
	.byte	$D8
	.byte	$0E
	.byte	$7E
	.byte	$89
	.byte	$D3
	.byte	$78
	.byte	$4D
	.byte	$FE
	.byte	$9A
	.byte	$50
	.byte	$43
	.byte	$41
	.byte	$D4
	.byte	$DB
	.byte	$37
	.byte	$CD
	.byte	$76
	.byte	$1F
	.byte	$6A
	.byte	$5E
	.byte	$7F
	.byte	$4E
	.byte	$00
_s_desc23:
	.byte	$61
	.byte	$2F
	.byte	$DF
	.byte	$08
	.byte	$11
	.byte	$E2
	.byte	$25
	.byte	$65
	.byte	$6F
	.byte	$BF
	.byte	$A5
	.byte	$1F
	.byte	$00
_short_d23:
	.byte	$61
	.byte	$2F
	.byte	$DF
	.byte	$08
	.byte	$11
	.byte	$E2
	.byte	$25
	.byte	$65
	.byte	$6F
	.byte	$BF
	.byte	$A5
	.byte	$1F
	.byte	$00
_long_d24:
	.byte	$B9
	.byte	$79
	.byte	$2C
	.byte	$FD
	.byte	$82
	.byte	$A8
	.byte	$B7
	.byte	$6F
	.byte	$9A
	.byte	$ED
	.byte	$BE
	.byte	$11
	.byte	$22
	.byte	$DF
	.byte	$F5
	.byte	$F2
	.byte	$CD
	.byte	$78
	.byte	$03
	.byte	$3F
	.byte	$DF
	.byte	$37
	.byte	$5E
	.byte	$F3
	.byte	$FF
	.byte	$16
	.byte	$DE
	.byte	$F9
	.byte	$86
	.byte	$50
	.byte	$D7
	.byte	$36
	.byte	$EB
	.byte	$1B
	.byte	$21
	.byte	$CD
	.byte	$3C
	.byte	$FF
	.byte	$18
	.byte	$EA
	.byte	$E2
	.byte	$CD
	.byte	$7C
	.byte	$D6
	.byte	$69
	.byte	$4E
	.byte	$74
	.byte	$7B
	.byte	$86
	.byte	$5E
	.byte	$D7
	.byte	$D8
	.byte	$F4
	.byte	$33
	.byte	$19
	.byte	$C6
	.byte	$4A
	.byte	$AF
	.byte	$68
	.byte	$1A
	.byte	$EB
	.byte	$4A
	.byte	$30
	.byte	$34
	.byte	$42
	.byte	$E4
	.byte	$4B
	.byte	$9E
	.byte	$7E
	.byte	$E3
	.byte	$35
	.byte	$FF
	.byte	$6F
	.byte	$E1
	.byte	$9D
	.byte	$6F
	.byte	$28
	.byte	$2A
	.byte	$68
	.byte	$92
	.byte	$5F
	.byte	$EB
	.byte	$52
	.byte	$16
	.byte	$BD
	.byte	$7D
	.byte	$7F
	.byte	$FA
	.byte	$EC
	.byte	$1A
	.byte	$21
	.byte	$55
	.byte	$FE
	.byte	$ED
	.byte	$D7
	.byte	$9A
	.byte	$1A
	.byte	$44
	.byte	$88
	.byte	$97
	.byte	$78
	.byte	$F2
	.byte	$44
	.byte	$53
	.byte	$16
	.byte	$5D
	.byte	$57
	.byte	$12
	.byte	$71
	.byte	$6C
	.byte	$6A
	.byte	$90
	.byte	$E6
	.byte	$3C
	.byte	$2A
	.byte	$4F
	.byte	$23
	.byte	$AE
	.byte	$B9
	.byte	$0E
	.byte	$EB
	.byte	$39
	.byte	$01
_s_desc24:
	.byte	$61
	.byte	$2F
	.byte	$63
	.byte	$68
	.byte	$BC
	.byte	$E6
	.byte	$FF
	.byte	$2D
	.byte	$BC
	.byte	$F3
	.byte	$0D
	.byte	$01
_short_d24:
	.byte	$61
	.byte	$2F
	.byte	$63
	.byte	$68
	.byte	$BC
	.byte	$E6
	.byte	$FF
	.byte	$2D
	.byte	$BC
	.byte	$F3
	.byte	$0D
	.byte	$01
_long_d25:
	.byte	$B9
	.byte	$79
	.byte	$2C
	.byte	$FD
	.byte	$D2
	.byte	$FC
	.byte	$16
	.byte	$D1
	.byte	$F5
	.byte	$F2
	.byte	$4D
	.byte	$63
	.byte	$7A
	.byte	$30
	.byte	$54
	.byte	$08
	.byte	$D8
	.byte	$F0
	.byte	$8E
	.byte	$AE
	.byte	$E7
	.byte	$34
	.byte	$99
	.byte	$A7
	.byte	$A7
	.byte	$11
	.byte	$52
	.byte	$B7
	.byte	$3E
	.byte	$FF
	.byte	$18
	.byte	$EA
	.byte	$E2
	.byte	$CD
	.byte	$7C
	.byte	$36
	.byte	$D4
	.byte	$CC
	.byte	$19
	.byte	$76
	.byte	$98
	.byte	$A2
	.byte	$11
	.byte	$69
	.byte	$F8
	.byte	$75
	.byte	$9A
	.byte	$C6
	.byte	$BA
	.byte	$12
	.byte	$0C
	.byte	$8D
	.byte	$10
	.byte	$F9
	.byte	$2E
	.byte	$FF
	.byte	$25
	.byte	$4F
	.byte	$BF
	.byte	$E8
	.byte	$6F
	.byte	$DB
	.byte	$D0
	.byte	$F4
	.byte	$BD
	.byte	$4E
	.byte	$97
	.byte	$6F
	.byte	$5E
	.byte	$FF
	.byte	$AA
	.byte	$3C
	.byte	$DD
	.byte	$0E
	.byte	$F1
	.byte	$FA
	.byte	$CD
	.byte	$0C
	.byte	$EF
	.byte	$DF
	.byte	$78
	.byte	$0D
	.byte	$CB
	.byte	$9C
	.byte	$D1
	.byte	$70
	.byte	$1A
	.byte	$E6
	.byte	$A5
	.byte	$DB
	.byte	$93
	.byte	$B7
	.byte	$C3
	.byte	$74
	.byte	$4A
	.byte	$5E
	.byte	$D7
	.byte	$D8
	.byte	$34
	.byte	$E2
	.byte	$BA
	.byte	$40
	.byte	$DB
	.byte	$85
	.byte	$9A
	.byte	$66
	.byte	$47
	.byte	$F3
	.byte	$7A
	.byte	$88
	.byte	$5C
	.byte	$53
	.byte	$16
	.byte	$5D
	.byte	$57
	.byte	$12
	.byte	$71
	.byte	$6C
	.byte	$1A
	.byte	$67
	.byte	$9B
	.byte	$3E
	.byte	$09
	.byte	$AE
	.byte	$F2
	.byte	$AF
	.byte	$74
	.byte	$F6
	.byte	$3A
	.byte	$F5
	.byte	$D6
	.byte	$A1
	.byte	$69
	.byte	$A8
	.byte	$8E
	.byte	$13
	.byte	$00
_s_desc25:
	.byte	$61
	.byte	$2F
	.byte	$63
	.byte	$68
	.byte	$84
	.byte	$74
	.byte	$3D
	.byte	$A7
	.byte	$C9
	.byte	$3C
	.byte	$3D
	.byte	$01
_short_d25:
	.byte	$61
	.byte	$2F
	.byte	$63
	.byte	$68
	.byte	$84
	.byte	$74
	.byte	$3D
	.byte	$A7
	.byte	$C9
	.byte	$3C
	.byte	$3D
	.byte	$01
_long_d26:
	.byte	$B9
	.byte	$A3
	.byte	$69
	.byte	$A8
	.byte	$4E
	.byte	$E3
	.byte	$35
	.byte	$F3
	.byte	$2B
	.byte	$9D
	.byte	$4D
	.byte	$D1
	.byte	$78
	.byte	$7D
	.byte	$55
	.byte	$7E
	.byte	$F7
	.byte	$1B
	.byte	$43
	.byte	$0D
	.byte	$22
	.byte	$F9
	.byte	$CB
	.byte	$6F
	.byte	$F8
	.byte	$DF
	.byte	$F4
	.byte	$52
	.byte	$F6
	.byte	$F4
	.byte	$89
	.byte	$50
	.byte	$05
	.byte	$DD
	.byte	$FD
	.byte	$BE
	.byte	$1F
	.byte	$BA
	.byte	$C6
	.byte	$A6
	.byte	$DE
	.byte	$A6
	.byte	$11
	.byte	$D7
	.byte	$75
	.byte	$3B
	.byte	$75
	.byte	$E4
	.byte	$1A
	.byte	$21
	.byte	$92
	.byte	$BF
	.byte	$FC
	.byte	$86
	.byte	$FF
	.byte	$4D
	.byte	$2F
	.byte	$7D
	.byte	$D3
	.byte	$91
	.byte	$27
	.byte	$FA
	.byte	$44
	.byte	$41
	.byte	$9F
	.byte	$FB
	.byte	$7D
	.byte	$D1
	.byte	$93
	.byte	$6E
	.byte	$3C
	.byte	$71
	.byte	$54
	.byte	$A7
	.byte	$F1
	.byte	$EA
	.byte	$2D
	.byte	$7F
	.byte	$F9
	.byte	$0D
	.byte	$FF
	.byte	$B3
	.byte	$A2
	.byte	$FB
	.byte	$89
	.byte	$C0
	.byte	$9E
	.byte	$EF
	.byte	$BB
	.byte	$60
	.byte	$EE
	.byte	$DF
	.byte	$ED
	.byte	$F9
	.byte	$9C
	.byte	$E6
	.byte	$80
	.byte	$48
	.byte	$FE
	.byte	$F2
	.byte	$1B
	.byte	$FE
	.byte	$37
	.byte	$BD
	.byte	$34
	.byte	$CD
	.byte	$43
	.byte	$9F
	.byte	$EA
	.byte	$84
	.byte	$2A
	.byte	$DF
	.byte	$DD
	.byte	$EF
	.byte	$FB
	.byte	$7D
	.byte	$C1
	.byte	$5F
	.byte	$6F
	.byte	$5F
	.byte	$FA
	.byte	$F9
	.byte	$CD
	.byte	$FD
	.byte	$BE
	.byte	$F1
	.byte	$BA
	.byte	$66
	.byte	$E3
	.byte	$27
	.byte	$C9
	.byte	$23
	.byte	$61
	.byte	$EE
	.byte	$5F
	.byte	$83
	.byte	$48
	.byte	$FE
	.byte	$F2
	.byte	$1B
	.byte	$FE
	.byte	$97
	.byte	$78
	.byte	$F2
	.byte	$44
	.byte	$2E
	.byte	$BB
	.byte	$90
	.byte	$C6
	.byte	$E2
	.byte	$54
	.byte	$D0
	.byte	$C4
	.byte	$88
	.byte	$30
	.byte	$77
	.byte	$94
	.byte	$21
	.byte	$47
	.byte	$DF
	.byte	$2C
	.byte	$84
	.byte	$2A
	.byte	$F9
	.byte	$CB
	.byte	$6F
	.byte	$F8
	.byte	$DF
	.byte	$6E
	.byte	$FF
	.byte	$C6
	.byte	$DB
	.byte	$60
	.byte	$11
	.byte	$E4
	.byte	$37
	.byte	$BE
	.byte	$34
	.byte	$0D
	.byte	$6F
	.byte	$D3
	.byte	$0D
	.byte	$9C
	.byte	$B2
	.byte	$20
	.byte	$AA
	.byte	$FC
	.byte	$FB
	.byte	$29
	.byte	$8A
	.byte	$B5
	.byte	$A6
	.byte	$DB
	.byte	$28
	.byte	$C8
	.byte	$6F
	.byte	$1A
	.byte	$D3
	.byte	$33
	.byte	$FF
	.byte	$8C
	.byte	$7E
	.byte	$F7
	.byte	$37
	.byte	$85
	.byte	$81
	.byte	$D1
	.byte	$93
	.byte	$A6
	.byte	$31
	.byte	$7D
	.byte	$D5
	.byte	$69
	.byte	$1A
	.byte	$EB
	.byte	$49
	.byte	$F7
	.byte	$B1
	.byte	$38
	.byte	$8D
	.byte	$B8
	.byte	$92
	.byte	$47
	.byte	$5E
	.byte	$11
	.byte	$EA
	.byte	$9A
	.byte	$8D
	.byte	$5F
	.byte	$D5
	.byte	$AB
	.byte	$4E
	.byte	$A8
	.byte	$5F
	.byte	$BF
	.byte	$7C
	.byte	$86
	.byte	$FD
	.byte	$31
	.byte	$1A
	.byte	$21
	.byte	$82
	.byte	$4E
	.byte	$26
	.byte	$03
	.byte	$56
	.byte	$14
	.byte	$8D
	.byte	$90
	.byte	$26
	.byte	$2F
	.byte	$3A
	.byte	$CD
	.byte	$78
	.byte	$03
	.byte	$3F
	.byte	$DF
	.byte	$84
	.byte	$7A
	.byte	$16
	.byte	$6F
	.byte	$6D
	.byte	$B0
	.byte	$F5
	.byte	$D4
	.byte	$93
	.byte	$EB
	.byte	$06
	.byte	$AE
	.byte	$7C
	.byte	$D7
	.byte	$6C
	.byte	$FC
	.byte	$24
	.byte	$79
	.byte	$24
	.byte	$CC
	.byte	$FD
	.byte	$6B
	.byte	$10
	.byte	$C9
	.byte	$5F
	.byte	$7E
	.byte	$C3
	.byte	$FF
	.byte	$12
	.byte	$4F
	.byte	$9E
	.byte	$70
	.byte	$7B
	.byte	$2A
	.byte	$DF
	.byte	$78
	.byte	$4B
	.byte	$D9
	.byte	$BB
	.byte	$DF
	.byte	$18
	.byte	$1A
	.byte	$21
	.byte	$82
	.byte	$AE
	.byte	$6D
	.byte	$68
	.byte	$39
	.byte	$74
	.byte	$1F
	.byte	$D6
	.byte	$97
	.byte	$EB
	.byte	$93
	.byte	$0C
	.byte	$2A
	.byte	$15
	.byte	$3D
	.byte	$03
	.byte	$79
	.byte	$FA
	.byte	$D4
	.byte	$93
	.byte	$1D
	.byte	$A6
	.byte	$68
	.byte	$9A
	.byte	$7D
	.byte	$1B
	.byte	$D6
	.byte	$D7
	.byte	$A9
	.byte	$B7
	.byte	$EF
	.byte	$42
	.byte	$1A
	.byte	$8B
	.byte	$5F
	.byte	$34
	.byte	$22
	.byte	$73
	.byte	$76
	.byte	$7A
	.byte	$E4
	.byte	$77
	.byte	$1F
	.byte	$56
	.byte	$84
	.byte	$2A
	.byte	$DF
	.byte	$ED
	.byte	$3C
	.byte	$51
	.byte	$9A
	.byte	$DF
	.byte	$22
	.byte	$BA
	.byte	$BD
	.byte	$E7
	.byte	$EF
	.byte	$06
	.byte	$2E
	.byte	$2D
	.byte	$D7
	.byte	$3C
	.byte	$F4
	.byte	$B9
	.byte	$9F
	.byte	$53
	.byte	$17
	.byte	$D3
	.byte	$61
	.byte	$9B
	.byte	$7E
	.byte	$15
	.byte	$DD
	.byte	$FC
	.byte	$5C
	.byte	$49
	.byte	$44
	.byte	$30
	.byte	$4A
	.byte	$CB
	.byte	$75
	.byte	$29
	.byte	$FB
	.byte	$1D
	.byte	$A6
	.byte	$57
	.byte	$BD
	.byte	$ED
	.byte	$D2
	.byte	$35
	.byte	$5E
	.byte	$BD
	.byte	$F5
	.byte	$76
	.byte	$EA
	.byte	$CB
	.byte	$FA
	.byte	$FD
	.byte	$75
	.byte	$18
	.byte	$45
	.byte	$EC
	.byte	$5B
	.byte	$CA
	.byte	$A2
	.byte	$11
	.byte	$57
	.byte	$F2
	.byte	$D7
	.byte	$35
	.byte	$BD
	.byte	$CD
	.byte	$76
	.byte	$4E
	.byte	$00
_s_desc26:
	.byte	$39
	.byte	$9F
	.byte	$3A
	.byte	$FC
	.byte	$3A
	.byte	$7C
	.byte	$D3
	.byte	$08
	.byte	$11
	.byte	$E2
	.byte	$76
	.byte	$EA
	.byte	$CB
	.byte	$FA
	.byte	$FD
	.byte	$75
	.byte	$18
	.byte	$01
_short_d26:
	.byte	$39
	.byte	$9F
	.byte	$3A
	.byte	$FC
	.byte	$3A
	.byte	$7C
	.byte	$D3
	.byte	$08
	.byte	$11
	.byte	$E2
	.byte	$76
	.byte	$EA
	.byte	$CB
	.byte	$FA
	.byte	$FD
	.byte	$75
	.byte	$18
	.byte	$01
_long_d27:
	.byte	$14
	.byte	$AE
	.byte	$CA
	.byte	$43
	.byte	$5E
	.byte	$CF
	.byte	$EA
	.byte	$AD
	.byte	$32
	.byte	$E9
	.byte	$05
	.byte	$8D
	.byte	$D7
	.byte	$CC
	.byte	$F0
	.byte	$FE
	.byte	$CD
	.byte	$EB
	.byte	$3F
	.byte	$F2
	.byte	$EB
	.byte	$87
	.byte	$EA
	.byte	$F7
	.byte	$8B
	.byte	$53
	.byte	$34
	.byte	$8D
	.byte	$55
	.byte	$F9
	.byte	$53
	.byte	$42
	.byte	$E3
	.byte	$75
	.byte	$F7
	.byte	$99
	.byte	$CC
	.byte	$77
	.byte	$79
	.byte	$11
	.byte	$74
	.byte	$7B
	.byte	$86
	.byte	$9E
	.byte	$D3
	.byte	$F0
	.byte	$D9
	.byte	$37
	.byte	$0D
	.byte	$C7
	.byte	$EF
	.byte	$4A
	.byte	$B0
	.byte	$88
	.byte	$C6
	.byte	$AF
	.byte	$B7
	.byte	$66
	.byte	$86
	.byte	$A7
	.byte	$06
	.byte	$E9
	.byte	$9A
	.byte	$4C
	.byte	$E6
	.byte	$54
	.byte	$C7
	.byte	$09
	.byte	$00
_s_desc27:
	.byte	$6E
	.byte	$DE
	.byte	$F4
	.byte	$EC
	.byte	$03
_short_d27:
	.byte	$6E
	.byte	$DE
	.byte	$F4
	.byte	$EC
	.byte	$03
_long_d28:
	.byte	$61
	.byte	$B8
	.byte	$1A
	.byte	$44
	.byte	$BE
	.byte	$E9
	.byte	$B7
	.byte	$0D
	.byte	$22
	.byte	$DF
	.byte	$8C
	.byte	$37
	.byte	$F0
	.byte	$F3
	.byte	$BD
	.byte	$D3
	.byte	$FC
	.byte	$BC
	.byte	$8D
	.byte	$27
	.byte	$FA
	.byte	$84
	.byte	$9E
	.byte	$55
	.byte	$BD
	.byte	$EA
	.byte	$14
	.byte	$DD
	.byte	$C0
	.byte	$55
	.byte	$AF
	.byte	$3A
	.byte	$95
	.byte	$6F
	.byte	$FA
	.byte	$6D
	.byte	$83
	.byte	$C8
	.byte	$37
	.byte	$E3
	.byte	$0D
	.byte	$FC
	.byte	$7C
	.byte	$DF
	.byte	$08
	.byte	$91
	.byte	$AF
	.byte	$EB
	.byte	$E3
	.byte	$DF
	.byte	$2F
	.byte	$A2
	.byte	$F1
	.byte	$EA
	.byte	$E2
	.byte	$CD
	.byte	$7C
	.byte	$D6
	.byte	$71
	.byte	$43
	.byte	$80
	.byte	$A8
	.byte	$B7
	.byte	$D2
	.byte	$FC
	.byte	$16
	.byte	$D1
	.byte	$17
	.byte	$7D
	.byte	$46
	.byte	$CF
	.byte	$D6
	.byte	$1B
	.byte	$ED
	.byte	$CF
	.byte	$5E
	.byte	$A7
	.byte	$68
	.byte	$5E
	.byte	$8F
	.byte	$A5
	.byte	$53
	.byte	$1B
	.byte	$2B
	.byte	$88
	.byte	$7A
	.byte	$FB
	.byte	$F2
	.byte	$6D
	.byte	$3C
	.byte	$D1
	.byte	$BB
	.byte	$DF
	.byte	$18
	.byte	$BA
	.byte	$7F
	.byte	$85
	.byte	$18
	.byte	$3E
	.byte	$FA
	.byte	$EC
	.byte	$05
	.byte	$94
	.byte	$AE
	.byte	$5A
	.byte	$F8
	.byte	$8C
	.byte	$78
	.byte	$51
	.byte	$FE
	.byte	$2E
	.byte	$E5
	.byte	$37
	.byte	$B8
	.byte	$BB
	.byte	$7F
	.byte	$E3
	.byte	$55
	.byte	$FD
	.byte	$74
	.byte	$FB
	.byte	$C8
	.byte	$08
	.byte	$17
	.byte	$00
_s_desc28:
	.byte	$6E
	.byte	$7E
	.byte	$DB
	.byte	$20
	.byte	$F2
	.byte	$CD
	.byte	$78
	.byte	$03
	.byte	$3F
	.byte	$DF
	.byte	$07
	.byte	$00
_short_d28:
	.byte	$6E
	.byte	$7E
	.byte	$DB
	.byte	$20
	.byte	$F2
	.byte	$CD
	.byte	$78
	.byte	$03
	.byte	$3F
	.byte	$DF
	.byte	$07
	.byte	$00
_long_d29:
	.byte	$61
	.byte	$B8
	.byte	$9E
	.byte	$D5
	.byte	$5B
	.byte	$D5
	.byte	$9B
	.byte	$41
	.byte	$9C
	.byte	$06
	.byte	$00
_s_desc29:
	.byte	$14
	.byte	$BC
	.byte	$19
	.byte	$24
	.byte	$00
_short_d29:
	.byte	$14
	.byte	$BC
	.byte	$19
	.byte	$24
	.byte	$00
_long_d30:
	.byte	$61
	.byte	$B8
	.byte	$1A
	.byte	$44
	.byte	$A6
	.byte	$4B
	.byte	$7D
	.byte	$BC
	.byte	$69
	.byte	$BC
	.byte	$AA
	.byte	$9F
	.byte	$6E
	.byte	$1F
	.byte	$19
	.byte	$7D
	.byte	$11
	.byte	$E2
	.byte	$4C
	.byte	$C1
	.byte	$36
	.byte	$8D
	.byte	$90
	.byte	$EE
	.byte	$7E
	.byte	$61
	.byte	$28
	.byte	$9B
	.byte	$63
	.byte	$F4
	.byte	$9A
	.byte	$C6
	.byte	$BA
	.byte	$DD
	.byte	$27
	.byte	$30
	.byte	$2A
	.byte	$04
	.byte	$04
	.byte	$F4
	.byte	$9B
	.byte	$FB
	.byte	$37
	.byte	$42
	.byte	$64
	.byte	$BA
	.byte	$12
	.byte	$9F
	.byte	$EA
	.byte	$DC
	.byte	$14
	.byte	$95
	.byte	$2F
	.byte	$7F
	.byte	$26
	.byte	$73
	.byte	$F6
	.byte	$0A
	.byte	$77
	.byte	$F7
	.byte	$6F
	.byte	$04
	.byte	$2D
	.byte	$D7
	.byte	$67
	.byte	$46
	.byte	$3C
	.byte	$A7
	.byte	$6E
	.byte	$FC
	.byte	$EE
	.byte	$E5
	.byte	$1A
	.byte	$AF
	.byte	$72
	.byte	$54
	.byte	$BE
	.byte	$F2
	.byte	$A5
	.byte	$D9
	.byte	$78
	.byte	$6C
	.byte	$2A
	.byte	$E8
	.byte	$F6
	.byte	$0C
	.byte	$BD
	.byte	$50
	.byte	$87
	.byte	$E3
	.byte	$D9
	.byte	$EB
	.byte	$EF
	.byte	$30
	.byte	$45
	.byte	$CF
	.byte	$16
	.byte	$F8
	.byte	$F4
	.byte	$7A
	.byte	$56
	.byte	$6F
	.byte	$5F
	.byte	$EA
	.byte	$51
	.byte	$E5
	.byte	$46
	.byte	$91
	.byte	$BE
	.byte	$F1
	.byte	$2A
	.byte	$A0
	.byte	$6D
	.byte	$1A
	.byte	$AF
	.byte	$FB
	.byte	$D0
	.byte	$6F
	.byte	$E3
	.byte	$D4
	.byte	$C5
	.byte	$EA
	.byte	$AD
	.byte	$6F
	.byte	$F4
	.byte	$C8
	.byte	$34
	.byte	$11
	.byte	$20
	.byte	$EA
	.byte	$AD
	.byte	$10
	.byte	$D0
	.byte	$6F
	.byte	$8A
	.byte	$AE
	.byte	$C4
	.byte	$A7
	.byte	$3A
	.byte	$37
	.byte	$4D
	.byte	$63
	.byte	$F5
	.byte	$F6
	.byte	$95
	.byte	$DF
	.byte	$B7
	.byte	$8F
	.byte	$EF
	.byte	$04
	.byte	$00
_s_desc30:
	.byte	$61
	.byte	$EA
	.byte	$E3
	.byte	$4D
	.byte	$00
_short_d30:
	.byte	$61
	.byte	$EA
	.byte	$E3
	.byte	$4D
	.byte	$00
_long_d31:
	.byte	$61
	.byte	$B8
	.byte	$9E
	.byte	$D5
	.byte	$5B
	.byte	$D5
	.byte	$9B
	.byte	$41
	.byte	$9C
	.byte	$06
	.byte	$00
_s_desc31:
	.byte	$14
	.byte	$BC
	.byte	$19
	.byte	$24
	.byte	$00
_short_d31:
	.byte	$14
	.byte	$BC
	.byte	$19
	.byte	$24
	.byte	$00
_long_d32:
	.byte	$61
	.byte	$B8
	.byte	$9E
	.byte	$D5
	.byte	$5B
	.byte	$D5
	.byte	$9B
	.byte	$41
	.byte	$9C
	.byte	$06
	.byte	$00
_s_desc32:
	.byte	$14
	.byte	$BC
	.byte	$19
	.byte	$24
	.byte	$00
_short_d32:
	.byte	$14
	.byte	$BC
	.byte	$19
	.byte	$24
	.byte	$00
_long_d33:
	.byte	$61
	.byte	$B8
	.byte	$9E
	.byte	$D5
	.byte	$5B
	.byte	$65
	.byte	$D2
	.byte	$0B
	.byte	$9A
	.byte	$C6
	.byte	$2A
	.byte	$E8
	.byte	$F6
	.byte	$0C
	.byte	$BD
	.byte	$AE
	.byte	$F4
	.byte	$99
	.byte	$CC
	.byte	$CB
	.byte	$2B
	.byte	$9C
	.byte	$BA
	.byte	$F1
	.byte	$BB
	.byte	$97
	.byte	$6B
	.byte	$BC
	.byte	$CA
	.byte	$51
	.byte	$F9
	.byte	$CA
	.byte	$97
	.byte	$66
	.byte	$E3
	.byte	$B1
	.byte	$A9
	.byte	$7A
	.byte	$D5
	.byte	$EB
	.byte	$55
	.byte	$5E
	.byte	$AF
	.byte	$11
	.byte	$22
	.byte	$DF
	.byte	$A5
	.byte	$6F
	.byte	$EE
	.byte	$1F
	.byte	$6A
	.byte	$7C
	.byte	$E9
	.byte	$9A
	.byte	$4C
	.byte	$E6
	.byte	$54
	.byte	$A7
	.byte	$2F
	.byte	$DD
	.byte	$9E
	.byte	$BC
	.byte	$1D
	.byte	$A6
	.byte	$E3
	.byte	$04
	.byte	$00
_s_desc33:
	.byte	$39
	.byte	$8F
	.byte	$CA
	.byte	$E0
	.byte	$FB
	.byte	$00
_short_d33:
	.byte	$39
	.byte	$8F
	.byte	$CA
	.byte	$E0
	.byte	$FB
	.byte	$00
_long_d34:
	.byte	$61
	.byte	$B8
	.byte	$9E
	.byte	$D5
	.byte	$5B
	.byte	$D5
	.byte	$9B
	.byte	$41
	.byte	$9C
	.byte	$00
_s_desc34:
	.byte	$14
	.byte	$BC
	.byte	$19
	.byte	$24
	.byte	$00
_short_d34:
	.byte	$14
	.byte	$BC
	.byte	$19
	.byte	$24
	.byte	$00
_long_d35:
	.byte	$61
	.byte	$B8
	.byte	$9E
	.byte	$D5
	.byte	$5B
	.byte	$D5
	.byte	$9B
	.byte	$41
	.byte	$9C
	.byte	$86
	.byte	$CF
	.byte	$BE
	.byte	$2B
	.byte	$F1
	.byte	$A9
	.byte	$7E
	.byte	$E3
	.byte	$25
	.byte	$E4
	.byte	$B2
	.byte	$36
	.byte	$D6
	.byte	$ED
	.byte	$D7
	.byte	$7A
	.byte	$46
	.byte	$A7
	.byte	$B9
	.byte	$E6
	.byte	$2E
	.byte	$3F
	.byte	$5D
	.byte	$F2
	.byte	$33
	.byte	$1F
	.byte	$17
	.byte	$27
	.byte	$00
_s_desc35:
	.byte	$14
	.byte	$BC
	.byte	$19
	.byte	$24
	.byte	$00
_short_d35:
	.byte	$14
	.byte	$BC
	.byte	$19
	.byte	$24
	.byte	$00
_long_d36:
	.byte	$61
	.byte	$B8
	.byte	$9E
	.byte	$D5
	.byte	$DB
	.byte	$77
	.byte	$E9
	.byte	$9B
	.byte	$FB
	.byte	$F7
	.byte	$AC
	.byte	$EA
	.byte	$55
	.byte	$A7
	.byte	$E8
	.byte	$06
	.byte	$AE
	.byte	$7A
	.byte	$D5
	.byte	$E9
	.byte	$BA
	.byte	$FD
	.byte	$04
	.byte	$7D
	.byte	$91
	.byte	$6F
	.byte	$D8
	.byte	$CB
	.byte	$37
	.byte	$5E
	.byte	$5D
	.byte	$DE
	.byte	$F2
	.byte	$2D
	.byte	$3B
	.byte	$8D
	.byte	$10
	.byte	$F9
	.byte	$BA
	.byte	$3E
	.byte	$FE
	.byte	$FD
	.byte	$22
	.byte	$1A
	.byte	$AF
	.byte	$2E
	.byte	$DE
	.byte	$CC
	.byte	$67
	.byte	$9D
	.byte	$E6
	.byte	$21
	.byte	$BA
	.byte	$B6
	.byte	$A1
	.byte	$E5
	.byte	$BE
	.byte	$FB
	.byte	$57
	.byte	$D0
	.byte	$ED
	.byte	$19
	.byte	$7A
	.byte	$A1
	.byte	$6E
	.byte	$07
	.byte	$43
	.byte	$E3
	.byte	$95
	.byte	$06
	.byte	$0F
	.byte	$2D
	.byte	$97
	.byte	$B9
	.byte	$74
	.byte	$A1
	.byte	$AE
	.byte	$B1
	.byte	$A9
	.byte	$B7
	.byte	$2F
	.byte	$DF
	.byte	$C6
	.byte	$13
	.byte	$BD
	.byte	$FB
	.byte	$8D
	.byte	$A1
	.byte	$1B
	.byte	$38
	.byte	$03
	.byte	$D5
	.byte	$EF
	.byte	$7A
	.byte	$11
	.byte	$62
	.byte	$F8
	.byte	$E8
	.byte	$B3
	.byte	$17
	.byte	$34
	.byte	$65
	.byte	$51
	.byte	$7D
	.byte	$53
	.byte	$94
	.byte	$1C
	.byte	$51
	.byte	$34
	.byte	$FB
	.byte	$D7
	.byte	$DF
	.byte	$F7
	.byte	$E3
	.byte	$D7
	.byte	$E9
	.byte	$59
	.byte	$33
	.byte	$A3
	.byte	$43
	.byte	$F3
	.byte	$67
	.byte	$EE
	.byte	$8B
	.byte	$1A
	.byte	$68
	.byte	$B9
	.byte	$FE
	.byte	$B6
	.byte	$79
	.byte	$D3
	.byte	$6B
	.byte	$BC
	.byte	$AA
	.byte	$9F
	.byte	$6E
	.byte	$1F
	.byte	$19
	.byte	$4E
	.byte	$00
_s_desc36:
	.byte	$61
	.byte	$2F
	.byte	$DF
	.byte	$78
	.byte	$75
	.byte	$79
	.byte	$CB
	.byte	$B7
	.byte	$EC
	.byte	$04
	.byte	$00
_short_d36:
	.byte	$61
	.byte	$2F
	.byte	$DF
	.byte	$78
	.byte	$75
	.byte	$79
	.byte	$CB
	.byte	$B7
	.byte	$EC
	.byte	$04
	.byte	$00
_long_d40:
	.byte	$14
	.byte	$AE
	.byte	$CA
	.byte	$43
	.byte	$5E
	.byte	$17
	.byte	$A2
	.byte	$D7
	.byte	$E9
	.byte	$F2
	.byte	$F5
	.byte	$36
	.byte	$8D
	.byte	$B8
	.byte	$52
	.byte	$F9
	.byte	$53
	.byte	$BA
	.byte	$C6
	.byte	$2B
	.byte	$FF
	.byte	$8E
	.byte	$46
	.byte	$88
	.byte	$10
	.byte	$B0
	.byte	$E1
	.byte	$1D
	.byte	$95
	.byte	$DF
	.byte	$B7
	.byte	$8F
	.byte	$CF
	.byte	$37
	.byte	$8D
	.byte	$D7
	.byte	$C4
	.byte	$B7
	.byte	$F4
	.byte	$45
	.byte	$A6
	.byte	$29
	.byte	$8B
	.byte	$AE
	.byte	$E1
	.byte	$7D
	.byte	$4C
	.byte	$BF
	.byte	$27
	.byte	$5D
	.byte	$2F
	.byte	$63
	.byte	$68
	.byte	$82
	.byte	$29
	.byte	$BF
	.byte	$A0
	.byte	$11
	.byte	$D2
	.byte	$DD
	.byte	$2F
	.byte	$4C
	.byte	$A8
	.byte	$5F
	.byte	$2A
	.byte	$83
	.byte	$44
	.byte	$E3
	.byte	$2D
	.byte	$7D
	.byte	$73
	.byte	$FF
	.byte	$C6
	.byte	$17
	.byte	$F9
	.byte	$52
	.byte	$5F
	.byte	$D2
	.byte	$D8
	.byte	$EB
	.byte	$3B
	.byte	$0D
	.byte	$00
_s_desc40:
	.byte	$39
	.byte	$7F
	.byte	$DF
	.byte	$3E
	.byte	$3E
	.byte	$DF
	.byte	$34
	.byte	$5E
	.byte	$13
	.byte	$DF
	.byte	$D2
	.byte	$17
	.byte	$99
	.byte	$00
_short_d40:
	.byte	$39
	.byte	$7F
	.byte	$DF
	.byte	$3E
	.byte	$3E
	.byte	$DF
	.byte	$04
	.byte	$00
_long_d41:
	.byte	$14
	.byte	$AE
	.byte	$CA
	.byte	$43
	.byte	$5E
	.byte	$0D
	.byte	$22
	.byte	$5F
	.byte	$EA
	.byte	$4B
	.byte	$1A
	.byte	$7B
	.byte	$FD
	.byte	$A6
	.byte	$2C
	.byte	$9A
	.byte	$86
	.byte	$19
	.byte	$3D
	.byte	$EB
	.byte	$8B
	.byte	$4E
	.byte	$A8
	.byte	$E2
	.byte	$8D
	.byte	$9E
	.byte	$AA
	.byte	$57
	.byte	$45
	.byte	$05
	.byte	$DD
	.byte	$9E
	.byte	$A1
	.byte	$D7
	.byte	$08
	.byte	$E9
	.byte	$7A
	.byte	$19
	.byte	$83
	.byte	$53
	.byte	$17
	.byte	$2B
	.byte	$F5
	.byte	$D7
	.byte	$9A
	.byte	$6E
	.byte	$7E
	.byte	$AE
	.byte	$24
	.byte	$22
	.byte	$18
	.byte	$15
	.byte	$02
	.byte	$36
	.byte	$BC
	.byte	$A3
	.byte	$EB
	.byte	$65
	.byte	$0C
	.byte	$4D
	.byte	$30
	.byte	$E5
	.byte	$17
	.byte	$34
	.byte	$42
	.byte	$BA
	.byte	$FB
	.byte	$85
	.byte	$71
	.byte	$EA
	.byte	$CA
	.byte	$35
	.byte	$C3
	.byte	$63
	.byte	$8A
	.byte	$7E
	.byte	$15
	.byte	$4D
	.byte	$04
	.byte	$88
	.byte	$0A
	.byte	$01
	.byte	$1B
	.byte	$DE
	.byte	$51
	.byte	$F9
	.byte	$7D
	.byte	$FB
	.byte	$F8
	.byte	$7C
	.byte	$D3
	.byte	$78
	.byte	$4D
	.byte	$7C
	.byte	$4B
	.byte	$5F
	.byte	$64
	.byte	$9C
	.byte	$BA
	.byte	$F6
	.byte	$73
	.byte	$CD
	.byte	$EB
	.byte	$7F
	.byte	$5D
	.byte	$75
	.byte	$52
	.byte	$7A
	.byte	$96
	.byte	$69
	.byte	$1A
	.byte	$AB
	.byte	$7C
	.byte	$F7
	.byte	$B7
	.byte	$71
	.byte	$EA
	.byte	$CA
	.byte	$D7
	.byte	$5B
	.byte	$E5
	.byte	$75
	.byte	$9A
	.byte	$08
	.byte	$10
	.byte	$F5
	.byte	$D6
	.byte	$BC
	.byte	$FE
	.byte	$23
	.byte	$4F
	.byte	$21
	.byte	$50
	.byte	$E5
	.byte	$4B
	.byte	$D3
	.byte	$94
	.byte	$3D
	.byte	$BF
	.byte	$C6
	.byte	$09
	.byte	$00
_s_desc41:
	.byte	$F9
	.byte	$7A
	.byte	$49
	.byte	$63
	.byte	$AF
	.byte	$DF
	.byte	$78
	.byte	$5D
	.byte	$60
	.byte	$F2
	.byte	$DC
	.byte	$6F
	.byte	$02
_short_d41:
	.byte	$F9
	.byte	$7A
	.byte	$49
	.byte	$63
	.byte	$AF
	.byte	$1F
	.byte	$00
_long_d100:
	.byte	$79
	.byte	$F2
	.byte	$97
	.byte	$DF
	.byte	$F0
	.byte	$D7
	.byte	$46
	.byte	$15
	.byte	$CD
	.byte	$8C
	.byte	$C5
	.byte	$0F
	.byte	$15
	.byte	$44
	.byte	$33
	.byte	$8C
	.byte	$18
	.byte	$27
	.byte	$54
	.byte	$BF
	.byte	$5F
	.byte	$9C
	.byte	$A2
	.byte	$7A
	.byte	$55
	.byte	$1E
	.byte	$F2
	.byte	$9A
	.byte	$F1
	.byte	$C3
	.byte	$D7
	.byte	$F8
	.byte	$D2
	.byte	$7C
	.byte	$F1
	.byte	$E9
	.byte	$AD
	.byte	$6C
	.byte	$73
	.byte	$F5
	.byte	$0B
	.byte	$7E
	.byte	$0F
	.byte	$F5
	.byte	$45
	.byte	$BE
	.byte	$19
	.byte	$F0
	.byte	$FE
	.byte	$FA
	.byte	$8D
	.byte	$10
	.byte	$C9
	.byte	$5F
	.byte	$7E
	.byte	$C3
	.byte	$FF
	.byte	$5E
	.byte	$87
	.byte	$EA
	.byte	$97
	.byte	$53
	.byte	$37
	.byte	$59
	.byte	$34
	.byte	$5D
	.byte	$33
	.byte	$7F
	.byte	$95
	.byte	$E9
	.byte	$FA
	.byte	$2B
	.byte	$15
	.byte	$06
	.byte	$A7
	.byte	$F9
	.byte	$79
	.byte	$1B
	.byte	$38
	.byte	$0D
	.byte	$F3
	.byte	$95
	.byte	$96
	.byte	$2B
	.byte	$48
	.byte	$98
	.byte	$5E
	.byte	$23
	.byte	$68
	.byte	$B9
	.byte	$7A
	.byte	$D1
	.byte	$DB
	.byte	$AF
	.byte	$6F
	.byte	$76
	.byte	$A1
	.byte	$5E
	.byte	$D5
	.byte	$CF
	.byte	$75
	.byte	$A9
	.byte	$8F
	.byte	$D7
	.byte	$E5
	.byte	$A5
	.byte	$8A
	.byte	$35
	.byte	$3C
	.byte	$4D
	.byte	$59
	.byte	$54
	.byte	$FD
	.byte	$74
	.byte	$FB
	.byte	$C8
	.byte	$68
	.byte	$F6
	.byte	$CB
	.byte	$A7
	.byte	$3C
	.byte	$E4
	.byte	$EB
	.byte	$94
	.byte	$62
	.byte	$14
	.byte	$E9
	.byte	$9B
	.byte	$5D
	.byte	$33
	.byte	$5F
	.byte	$83
	.byte	$C8
	.byte	$D7
	.byte	$F5
	.byte	$F1
	.byte	$EF
	.byte	$17
	.byte	$D1
	.byte	$78
	.byte	$75
	.byte	$F1
	.byte	$66
	.byte	$3E
	.byte	$1B
	.byte	$AA
	.byte	$7C
	.byte	$F7
	.byte	$17
	.byte	$C4
	.byte	$73
	.byte	$BF
	.byte	$31
	.byte	$34
	.byte	$65
	.byte	$51
	.byte	$99
	.byte	$66
	.byte	$BF
	.byte	$69
	.byte	$64
	.byte	$3B
	.byte	$9D
	.byte	$50
	.byte	$05
	.byte	$CD
	.byte	$0C
	.byte	$BB
	.byte	$A3
	.byte	$FB
	.byte	$CB
	.byte	$D1
	.byte	$86
	.byte	$A6
	.byte	$2C
	.byte	$BA
	.byte	$C6
	.byte	$A6
	.byte	$4B
	.byte	$5F
	.byte	$51
	.byte	$39
	.byte	$2A
	.byte	$F8
	.byte	$15
	.byte	$4E
	.byte	$29
	.byte	$F8
	.byte	$E9
	.byte	$F6
	.byte	$91
	.byte	$51
	.byte	$10
	.byte	$DD
	.byte	$87
	.byte	$75
	.byte	$42
	.byte	$F5
	.byte	$29
	.byte	$DD
	.byte	$9A
	.byte	$C6
	.byte	$17
	.byte	$F9
	.byte	$EE
	.byte	$2F
	.byte	$88
	.byte	$E7
	.byte	$7E
	.byte	$63
	.byte	$08
	.byte	$15
	.byte	$4D
	.byte	$63
	.byte	$15
	.byte	$7F
	.byte	$BD
	.byte	$2E
	.byte	$3F
	.byte	$D7
	.byte	$34
	.byte	$22
	.byte	$A0
	.byte	$B3
	.byte	$E7
	.byte	$34
	.byte	$77
	.byte	$FC
	.byte	$CD
	.byte	$EB
	.byte	$B1
	.byte	$F4
	.byte	$9B
	.byte	$19
	.byte	$76
	.byte	$FF
	.byte	$46
	.byte	$48
	.byte	$F7
	.byte	$17
	.byte	$74
	.byte	$E9
	.byte	$F7
	.byte	$55
	.byte	$3F
	.byte	$A5
	.byte	$B7
	.byte	$38
	.byte	$BD
	.byte	$66
	.byte	$8E
	.byte	$96
	.byte	$6B
	.byte	$BC
	.byte	$A6
	.byte	$91
	.byte	$E1
	.byte	$69
	.byte	$CA
	.byte	$A2
	.byte	$B3
	.byte	$9E
	.byte	$C7
	.byte	$A6
	.byte	$1B
	.byte	$4F
	.byte	$E6
	.byte	$ED
	.byte	$19
	.byte	$95
	.byte	$AF
	.byte	$CE
	.byte	$4E
	.byte	$FD
	.byte	$C6
	.byte	$AB
	.byte	$8B
	.byte	$37
	.byte	$F3
	.byte	$D9
	.byte	$A2
	.byte	$11
	.byte	$22
	.byte	$DF
	.byte	$E5
	.byte	$BF
	.byte	$6B
	.byte	$9B
	.byte	$F5
	.byte	$CD
	.byte	$FF
	.byte	$5B
	.byte	$78
	.byte	$E7
	.byte	$1B
	.byte	$9C
	.byte	$52
	.byte	$F0
	.byte	$5D
	.byte	$B8
	.byte	$4A
	.byte	$FE
	.byte	$F2
	.byte	$1B
	.byte	$7E
	.byte	$6F
	.byte	$97
	.byte	$BE
	.byte	$6B
	.byte	$03
	.byte	$BF
	.byte	$B9
	.byte	$7F
	.byte	$A8
	.byte	$1B
	.byte	$B8
	.byte	$32
	.byte	$3C
	.byte	$45
	.byte	$37
	.byte	$70
	.byte	$15
	.byte	$4E
	.byte	$5D
	.byte	$AA
	.byte	$7E
	.byte	$AE
	.byte	$4B
	.byte	$7D
	.byte	$BC
	.byte	$EA
	.byte	$35
	.byte	$FB
	.byte	$66
	.byte	$D3
	.byte	$6D
	.byte	$58
	.byte	$5F
	.byte	$A7
	.byte	$2F
	.byte	$F2
	.byte	$5D
	.byte	$69
	.byte	$36
	.byte	$B0
	.byte	$7E
	.byte	$23
	.byte	$44
	.byte	$F2
	.byte	$97
	.byte	$DF
	.byte	$F0
	.byte	$63
	.byte	$DD
	.byte	$52
	.byte	$98
	.byte	$FB
	.byte	$37
	.byte	$5E
	.byte	$BD
	.byte	$95
	.byte	$4F
	.byte	$A7
	.byte	$EB
	.byte	$13
	.byte	$4F
	.byte	$37
	.byte	$70
	.byte	$F9
	.byte	$76
	.byte	$3F
	.byte	$24
	.byte	$18
	.byte	$95
	.byte	$EF
	.byte	$FE
	.byte	$82
	.byte	$78
	.byte	$EE
	.byte	$37
	.byte	$86
	.byte	$A2
	.byte	$F1
	.byte	$19
	.byte	$95
	.byte	$EF
	.byte	$F6
	.byte	$09
	.byte	$85
	.byte	$82
	.byte	$ED
	.byte	$FB
	.byte	$D2
	.byte	$CC
	.byte	$F3
	.byte	$8F
	.byte	$A1
	.byte	$88
	.byte	$7D
	.byte	$91
	.byte	$EF
	.byte	$F2
	.byte	$DF
	.byte	$B5
	.byte	$CD
	.byte	$7A
	.byte	$A7
	.byte	$B9
	.byte	$A3
	.byte	$E9
	.byte	$2B
	.byte	$88
	.byte	$9E
	.byte	$94
	.byte	$BE
	.byte	$61
	.byte	$1B
	.byte	$A7
	.byte	$B9
	.byte	$A3
	.byte	$E9
	.byte	$EB
	.byte	$75
	.byte	$BB
	.byte	$37
	.byte	$E8
	.byte	$75
	.byte	$8D
	.byte	$4D
	.byte	$5F
	.byte	$E4
	.byte	$0C
	.byte	$AF
	.byte	$17
	.byte	$AA
	.byte	$7C
	.byte	$37
	.byte	$9E
	.byte	$B5
	.byte	$6E
	.byte	$FF
	.byte	$92
	.byte	$23
	.byte	$FA
	.byte	$4D
	.byte	$BF
	.byte	$9D
	.byte	$82
	.byte	$9F
	.byte	$E8
	.byte	$49
	.byte	$29
	.byte	$EA
	.byte	$96
	.byte	$EE
	.byte	$4F
	.byte	$D3
	.byte	$37
	.byte	$CD
	.byte	$F7
	.byte	$14
	.byte	$0D
	.byte	$4F
	.byte	$14
	.byte	$0D
	.byte	$55
	.byte	$79
	.byte	$B6
	.byte	$6D
	.byte	$AA
	.byte	$CF
	.byte	$F1
	.byte	$BA
	.byte	$81
	.byte	$AB
	.byte	$70
	.byte	$9A
	.byte	$3B
	.byte	$9A
	.byte	$BE
	.byte	$66
	.byte	$CE
	.byte	$5E
	.byte	$76
	.byte	$98
	.byte	$A2
	.byte	$DB
	.byte	$28
	.byte	$FF
	.byte	$95
	.byte	$6F
	.byte	$F7
	.byte	$43
	.byte	$82
	.byte	$D1
	.byte	$93
	.byte	$AE
	.byte	$61
	.byte	$3D
	.byte	$01
	.byte	$7D
	.byte	$E3
	.byte	$34
	.byte	$D7
	.byte	$6F
	.byte	$CA
	.byte	$5F
	.byte	$7E
	.byte	$C3
	.byte	$9F
	.byte	$EF
	.byte	$9C
	.byte	$EF
	.byte	$A8
	.byte	$B7
	.byte	$EE
	.byte	$EF
	.byte	$D4
	.byte	$45
	.byte	$CA
	.byte	$A7
	.byte	$53
	.byte	$10
	.byte	$8D
	.byte	$58
	.byte	$89
	.byte	$4F
	.byte	$75
	.byte	$6A
	.byte	$90
	.byte	$46
	.byte	$A8
	.byte	$3E
	.byte	$2D
	.byte	$37
	.byte	$35
	.byte	$48
	.byte	$F5
	.byte	$53
	.byte	$F2
	.byte	$67
	.byte	$D3
	.byte	$78
	.byte	$55
	.byte	$3F
	.byte	$DD
	.byte	$3E
	.byte	$32
	.byte	$42
	.byte	$DD
	.byte	$FF
	.byte	$CA
	.byte	$A7
	.byte	$3C
	.byte	$E4
	.byte	$EB
	.byte	$38
	.byte	$CD
	.byte	$F9
	.byte	$55
	.byte	$FF
	.byte	$5D
	.byte	$1B
	.byte	$F8
	.byte	$CD
	.byte	$FD
	.byte	$0B
	.byte	$A2
	.byte	$29
	.byte	$8B
	.byte	$AE
	.byte	$FB
	.byte	$A6
	.byte	$B1
	.byte	$05
	.byte	$26
	.byte	$5F
	.byte	$A7
	.byte	$06
	.byte	$E9
	.byte	$EE
	.byte	$17
	.byte	$26
	.byte	$D4
	.byte	$B3
	.byte	$75
	.byte	$D8
	.byte	$D1
	.byte	$BF
	.byte	$2A
	.byte	$D6
	.byte	$F0
	.byte	$39
	.byte	$CD
	.byte	$31
	.byte	$56
	.byte	$43
	.byte	$17
	.byte	$AE
	.byte	$EB
	.byte	$92
	.byte	$E7
	.byte	$09
	.byte	$95
	.byte	$BC
	.byte	$A5
	.byte	$D3
	.byte	$94
	.byte	$45
	.byte	$87
	.byte	$B6
	.byte	$2B
	.byte	$7D
	.byte	$C3
	.byte	$36
	.byte	$8D
	.byte	$A0
	.byte	$E5
	.byte	$EA
	.byte	$45
	.byte	$6F
	.byte	$BF
	.byte	$BE
	.byte	$D9
	.byte	$75
	.byte	$E1
	.byte	$4A
	.byte	$C2
	.byte	$BC
	.byte	$4E
	.byte	$CF
	.byte	$4A
	.byte	$DE
	.byte	$3A
	.byte	$FD
	.byte	$A2
	.byte	$36
	.byte	$56
	.byte	$C9
	.byte	$5F
	.byte	$7E
	.byte	$C3
	.byte	$9F
	.byte	$FD
	.byte	$EB
	.byte	$FE
	.byte	$57
	.byte	$F2
	.byte	$96
	.byte	$8E
	.byte	$D3
	.byte	$5C
	.byte	$BF
	.byte	$11
	.byte	$E4
	.byte	$55
	.byte	$61
	.byte	$FA
	.byte	$8C
	.byte	$50
	.byte	$B1
	.byte	$7E
	.byte	$3F
	.byte	$7B
	.byte	$8B
	.byte	$D3
	.byte	$AB
	.byte	$62
	.byte	$0D
	.byte	$5F
	.byte	$11
	.byte	$7B
	.byte	$65
	.byte	$6C
	.byte	$60
	.byte	$BD
	.byte	$1A
	.byte	$44
	.byte	$BE
	.byte	$6B
	.byte	$03
	.byte	$BF
	.byte	$B9
	.byte	$7F
	.byte	$53
	.byte	$16
	.byte	$D5
	.byte	$EB
	.byte	$36
	.byte	$AC
	.byte	$67
	.byte	$D3
	.byte	$97
	.byte	$EA
	.byte	$A7
	.byte	$E4
	.byte	$CF
	.byte	$C6
	.byte	$A9
	.byte	$6B
	.byte	$70
	.byte	$CA
	.byte	$82
	.byte	$E8
	.byte	$42
	.byte	$6D
	.byte	$AC
	.byte	$32
	.byte	$55
	.byte	$1E
	.byte	$F2
	.byte	$0A
	.byte	$53
	.byte	$9E
	.byte	$C6
	.byte	$D9
	.byte	$5F
	.byte	$F5
	.byte	$EC
	.byte	$BB
	.byte	$81
	.byte	$AB
	.byte	$28
	.byte	$88
	.byte	$66
	.byte	$CE
	.byte	$4E
	.byte	$DF
	.byte	$A9
	.byte	$9B
	.byte	$2C
	.byte	$2A
	.byte	$DF
	.byte	$35
	.byte	$AC
	.byte	$A8
	.byte	$5E
	.byte	$7F
	.byte	$AD
	.byte	$5B
	.byte	$FA
	.byte	$A1
	.byte	$DE
	.byte	$74
	.byte	$3D
	.byte	$0F
	.byte	$D1
	.byte	$0D
	.byte	$5C
	.byte	$45
	.byte	$27
	.byte	$A5
	.byte	$EC
	.byte	$15
	.byte	$1D
	.byte	$46
	.byte	$4A
	.byte	$D9
	.byte	$83
	.byte	$13
	.byte	$00
_s_desc100:
	.byte	$2E
	.byte	$A6
	.byte	$3C
	.byte	$D1
	.byte	$BB
	.byte	$DF
	.byte	$18
	.byte	$02
_short_d100:
	.byte	$2E
	.byte	$A6
	.byte	$3C
	.byte	$D1
	.byte	$BB
	.byte	$DF
	.byte	$18
	.byte	$02
_long_d101:
	.byte	$61
	.byte	$63
	.byte	$D3
	.byte	$ED
	.byte	$D7
	.byte	$7A
	.byte	$BD
	.byte	$52
	.byte	$8C
	.byte	$22
	.byte	$7D
	.byte	$B3
	.byte	$0B
	.byte	$35
	.byte	$CD
	.byte	$8E
	.byte	$A6
	.byte	$61
	.byte	$46
	.byte	$4F
	.byte	$AA
	.byte	$D8
	.byte	$B7
	.byte	$71
	.byte	$9A
	.byte	$FF
	.byte	$E9
	.byte	$6F
	.byte	$1B
	.byte	$EC
	.byte	$BB
	.byte	$79
	.byte	$2A
	.byte	$55
	.byte	$2E
	.byte	$BD
	.byte	$4E
	.byte	$E5
	.byte	$4B
	.byte	$82
	.byte	$D7
	.byte	$8D
	.byte	$A1
	.byte	$14
	.byte	$73
	.byte	$28
	.byte	$D2
	.byte	$08
	.byte	$E9
	.byte	$7E
	.byte	$D3
	.byte	$7C
	.byte	$C2
	.byte	$43
	.byte	$58
	.byte	$A8
	.byte	$92
	.byte	$BF
	.byte	$FC
	.byte	$86
	.byte	$3F
	.byte	$9F
	.byte	$48
	.byte	$C2
	.byte	$D4
	.byte	$33
	.byte	$1A
	.byte	$1E
	.byte	$F8
	.byte	$F4
	.byte	$8C
	.byte	$6E
	.byte	$58
	.byte	$78
	.byte	$2F
	.byte	$C5
	.byte	$1E
	.byte	$AA
	.byte	$B7
	.byte	$FE
	.byte	$4E
	.byte	$3D
	.byte	$98
	.byte	$A2
	.byte	$F1
	.byte	$BA
	.byte	$C8
	.byte	$13
	.byte	$BF
	.byte	$6D
	.byte	$D3
	.byte	$33
	.byte	$05
	.byte	$CD
	.byte	$AF
	.byte	$13
	.byte	$2A
	.byte	$79
	.byte	$CB
	.byte	$BF
	.byte	$A0
	.byte	$E8
	.byte	$C2
	.byte	$BE
	.byte	$C9
	.byte	$25
	.byte	$84
	.byte	$BA
	.byte	$81
	.byte	$BB
	.byte	$12
	.byte	$1F
	.byte	$09
	.byte	$46
	.byte	$E9
	.byte	$9B
	.byte	$94
	.byte	$BD
	.byte	$C6
	.byte	$EB
	.byte	$93
	.byte	$24
	.byte	$4C
	.byte	$3D
	.byte	$7F
	.byte	$15
	.byte	$4B
	.byte	$FD
	.byte	$0B
	.byte	$BA
	.byte	$8F
	.byte	$E8
	.byte	$34
	.byte	$CD
	.byte	$BE
	.byte	$09
	.byte	$D6
	.byte	$BA
	.byte	$A6
	.byte	$B1
	.byte	$7A
	.byte	$EB
	.byte	$7E
	.byte	$76
	.byte	$FB
	.byte	$34
	.byte	$5E
	.byte	$D3
	.byte	$D8
	.byte	$AC
	.byte	$04
	.byte	$73
	.byte	$47
	.byte	$E3
	.byte	$75
	.byte	$E3
	.byte	$A1
	.byte	$F9
	.byte	$F7
	.byte	$FD
	.byte	$DD
	.byte	$6F
	.byte	$0C
	.byte	$4E
	.byte	$5D
	.byte	$35
	.byte	$D7
	.byte	$A3
	.byte	$20
	.byte	$A7
	.byte	$36
	.byte	$D6
	.byte	$0C
	.byte	$96
	.byte	$82
	.byte	$A6
	.byte	$EF
	.byte	$19
	.byte	$85
	.byte	$29
	.byte	$FF
	.byte	$4E
	.byte	$45
	.byte	$05
	.byte	$4D
	.byte	$B3
	.byte	$10
	.byte	$AE
	.byte	$79
	.byte	$9A
	.byte	$D7
	.byte	$BF
	.byte	$A0
	.byte	$FB
	.byte	$C4
	.byte	$E9
	.byte	$7E
	.byte	$B4
	.byte	$DC
	.byte	$30
	.byte	$1A
	.byte	$AF
	.byte	$99
	.byte	$67
	.byte	$99
	.byte	$2E
	.byte	$D4
	.byte	$C6
	.byte	$BA
	.byte	$12
	.byte	$1F
	.byte	$09
	.byte	$46
	.byte	$4F
	.byte	$BA
	.byte	$90
	.byte	$D7
	.byte	$43
	.byte	$1A
	.byte	$21
	.byte	$F2
	.byte	$75
	.byte	$7D
	.byte	$FC
	.byte	$FB
	.byte	$45
	.byte	$34
	.byte	$5E
	.byte	$5D
	.byte	$BC
	.byte	$99
	.byte	$CF
	.byte	$86
	.byte	$AB
	.byte	$AB
	.byte	$96
	.byte	$27
	.byte	$A5
	.byte	$91
	.byte	$C9
	.byte	$65
	.byte	$5D
	.byte	$BC
	.byte	$99
	.byte	$CF
	.byte	$36
	.byte	$DF
	.byte	$87
	.byte	$2A
	.byte	$DF
	.byte	$FD
	.byte	$05
	.byte	$F1
	.byte	$DC
	.byte	$6F
	.byte	$0C
	.byte	$4D
	.byte	$59
	.byte	$94
	.byte	$3C
	.byte	$18
	.byte	$1A
	.byte	$5F
	.byte	$BA
	.byte	$FD
	.byte	$5A
	.byte	$AF
	.byte	$E3
	.byte	$AA
	.byte	$05
	.byte	$00
_s_desc101:
	.byte	$39
	.byte	$46
	.byte	$BF
	.byte	$11
	.byte	$22
	.byte	$C4
	.byte	$7B
	.byte	$1D
	.byte	$46
	.byte	$00
_short_d101:
	.byte	$39
	.byte	$46
	.byte	$3F
	.byte	$1F
	.byte	$AF
	.byte	$C3
	.byte	$08
	.byte	$00
_world:
	.word	$0001
	.addr	_long_d1
	.addr	_s_desc1
	.addr	_short_d1
	.word	$0002
	.word	$0003
	.word	$0005
	.word	$0000
	.word	$0000
	.word	$0000
	.word	$0002
	.addr	_long_d2
	.addr	_s_desc2
	.addr	_short_d2
	.word	$0000
	.word	$0001
	.word	$0004
	.word	$0000
	.word	$0000
	.word	$0000
	.word	$0003
	.addr	_long_d3
	.addr	_s_desc3
	.addr	_short_d3
	.word	$0001
	.word	$0000
	.word	$0006
	.word	$0000
	.word	$0000
	.word	$0000
	.word	$0004
	.addr	_long_d4
	.addr	_s_desc4
	.addr	_short_d4
	.word	$0000
	.word	$0005
	.word	$0007
	.word	$0002
	.word	$0000
	.word	$0000
	.word	$0005
	.addr	_long_d5
	.addr	_s_desc5
	.addr	_short_d5
	.word	$0004
	.word	$0006
	.word	$0008
	.word	$0001
	.word	$0000
	.word	$0000
	.word	$0006
	.addr	_long_d6
	.addr	_s_desc6
	.addr	_short_d6
	.word	$0005
	.word	$0000
	.word	$0009
	.word	$0003
	.word	$0000
	.word	$0000
	.word	$0007
	.addr	_long_d7
	.addr	_s_desc7
	.addr	_short_d7
	.word	$0000
	.word	$0008
	.word	$000A
	.word	$0004
	.word	$0000
	.word	$0000
	.word	$0008
	.addr	_long_d8
	.addr	_s_desc8
	.addr	_short_d8
	.word	$0007
	.word	$0009
	.word	$000B
	.word	$0005
	.word	$0000
	.word	$0000
	.word	$0009
	.addr	_long_d9
	.addr	_s_desc9
	.addr	_short_d9
	.word	$0008
	.word	$0000
	.word	$000C
	.word	$0006
	.word	$0000
	.word	$0000
	.word	$000A
	.addr	_long_d10
	.addr	_s_desc10
	.addr	_short_d10
	.word	$0000
	.word	$000B
	.word	$000D
	.word	$0007
	.word	$0000
	.word	$0000
	.word	$000B
	.addr	_long_d11
	.addr	_s_desc11
	.addr	_short_d11
	.word	$000A
	.word	$000C
	.word	$000E
	.word	$0008
	.word	$0000
	.word	$0000
	.word	$000C
	.addr	_long_d12
	.addr	_s_desc12
	.addr	_short_d12
	.word	$000B
	.word	$0000
	.word	$0000
	.word	$0009
	.word	$0000
	.word	$0000
	.word	$000D
	.addr	_long_d13
	.addr	_s_desc13
	.addr	_short_d13
	.word	$0000
	.word	$000E
	.word	$0000
	.word	$000A
	.word	$0000
	.word	$0000
	.word	$000E
	.addr	_long_d14
	.addr	_s_desc14
	.addr	_short_d14
	.word	$000D
	.word	$0000
	.word	$0000
	.word	$000B
	.word	$0000
	.word	$0000
	.word	$000F
	.addr	_long_d15
	.addr	_s_desc15
	.addr	_short_d15
	.word	$0000
	.word	$0010
	.word	$0012
	.word	$0000
	.word	$0000
	.word	$0000
	.word	$0010
	.addr	_long_d16
	.addr	_s_desc16
	.addr	_short_d16
	.word	$000F
	.word	$0011
	.word	$0013
	.word	$0000
	.word	$0000
	.word	$0000
	.word	$0011
	.addr	_long_d17
	.addr	_s_desc17
	.addr	_short_d17
	.word	$0010
	.word	$0000
	.word	$0014
	.word	$0000
	.word	$0000
	.word	$0000
	.word	$0012
	.addr	_long_d18
	.addr	_s_desc18
	.addr	_short_d18
	.word	$0000
	.word	$0013
	.word	$0015
	.word	$000F
	.word	$0000
	.word	$0000
	.word	$0013
	.addr	_long_d19
	.addr	_s_desc19
	.addr	_short_d19
	.word	$0012
	.word	$0014
	.word	$0016
	.word	$0010
	.word	$0000
	.word	$0000
	.word	$0014
	.addr	_long_d20
	.addr	_s_desc20
	.addr	_short_d20
	.word	$0013
	.word	$0000
	.word	$0017
	.word	$0011
	.word	$0000
	.word	$0000
	.word	$0015
	.addr	_long_d21
	.addr	_s_desc21
	.addr	_short_d21
	.word	$0000
	.word	$0016
	.word	$0018
	.word	$0012
	.word	$0000
	.word	$0000
	.word	$0016
	.addr	_long_d22
	.addr	_s_desc22
	.addr	_short_d22
	.word	$0015
	.word	$0017
	.word	$0019
	.word	$0013
	.word	$0000
	.word	$0000
	.word	$0017
	.addr	_long_d23
	.addr	_s_desc23
	.addr	_short_d23
	.word	$0016
	.word	$0000
	.word	$001A
	.word	$0014
	.word	$0000
	.word	$0000
	.word	$0018
	.addr	_long_d24
	.addr	_s_desc24
	.addr	_short_d24
	.word	$0000
	.word	$0019
	.word	$0000
	.word	$0015
	.word	$0000
	.word	$0000
	.word	$0019
	.addr	_long_d25
	.addr	_s_desc25
	.addr	_short_d25
	.word	$0018
	.word	$001A
	.word	$0000
	.word	$0016
	.word	$0000
	.word	$0000
	.word	$001A
	.addr	_long_d26
	.addr	_s_desc26
	.addr	_short_d26
	.word	$0019
	.word	$0000
	.word	$0000
	.word	$0017
	.word	$0000
	.word	$0000
	.word	$001B
	.addr	_long_d27
	.addr	_s_desc27
	.addr	_short_d27
	.word	$0000
	.word	$0000
	.word	$0000
	.word	$0000
	.word	$0019
	.word	$0000
	.word	$001C
	.addr	_long_d28
	.addr	_s_desc28
	.addr	_short_d28
	.word	$0000
	.word	$0000
	.word	$0000
	.word	$001F
	.word	$0000
	.word	$0000
	.word	$001D
	.addr	_long_d29
	.addr	_s_desc29
	.addr	_short_d29
	.word	$0000
	.word	$0000
	.word	$001B
	.word	$0020
	.word	$0000
	.word	$0000
	.word	$001E
	.addr	_long_d30
	.addr	_s_desc30
	.addr	_short_d30
	.word	$0000
	.word	$0000
	.word	$0000
	.word	$0021
	.word	$0000
	.word	$0000
	.word	$001F
	.addr	_long_d31
	.addr	_s_desc31
	.addr	_short_d31
	.word	$0000
	.word	$0000
	.word	$001C
	.word	$0022
	.word	$0000
	.word	$0000
	.word	$0020
	.addr	_long_d32
	.addr	_s_desc32
	.addr	_short_d32
	.word	$0000
	.word	$0000
	.word	$001D
	.word	$0023
	.word	$0000
	.word	$0000
	.word	$0021
	.addr	_long_d33
	.addr	_s_desc33
	.addr	_short_d33
	.word	$0000
	.word	$0000
	.word	$0000
	.word	$0024
	.word	$0000
	.word	$0000
	.word	$0022
	.addr	_long_d34
	.addr	_s_desc34
	.addr	_short_d34
	.word	$0000
	.word	$0023
	.word	$001F
	.word	$0000
	.word	$0000
	.word	$0000
	.word	$0023
	.addr	_long_d35
	.addr	_s_desc35
	.addr	_short_d35
	.word	$0022
	.word	$0024
	.word	$0020
	.word	$0000
	.word	$0000
	.word	$0000
	.word	$0024
	.addr	_long_d36
	.addr	_s_desc36
	.addr	_short_d36
	.word	$0023
	.word	$0000
	.word	$0021
	.word	$0000
	.word	$0000
	.word	$0000
	.word	$0028
	.addr	_long_d40
	.addr	_s_desc40
	.addr	_short_d40
	.word	$0000
	.word	$0000
	.word	$0000
	.word	$0000
	.word	$0000
	.word	$0000
	.word	$0029
	.addr	_long_d41
	.addr	_s_desc41
	.addr	_short_d41
	.word	$0000
	.word	$0000
	.word	$0000
	.word	$0000
	.word	$0000
	.word	$0000
	.word	$0064
	.addr	_long_d100
	.addr	_s_desc100
	.addr	_short_d100
	.word	$0000
	.word	$0000
	.word	$0000
	.word	$0000
	.word	$0000
	.word	$0000
	.word	$0065
	.addr	_long_d101
	.addr	_s_desc101
	.addr	_short_d101
	.word	$0000
	.word	$0000
	.word	$0000
	.word	$0000
	.word	$0000
	.word	$0000
_message50:
	.byte	$79
	.byte	$88
	.byte	$7A
	.byte	$2B
	.byte	$15
	.byte	$D2
	.byte	$F4
	.byte	$29
	.byte	$DD
	.byte	$93
	.byte	$A7
	.byte	$08
	.byte	$D5
	.byte	$EB
	.byte	$09
	.byte	$BA
	.byte	$46
	.byte	$A6
	.byte	$0B
	.byte	$5D
	.byte	$B8
	.byte	$7A
	.byte	$2B
	.byte	$04
	.byte	$AA
	.byte	$7C
	.byte	$E9
	.byte	$96
	.byte	$BE
	.byte	$D3
	.byte	$3C
	.byte	$55
	.byte	$5F
	.byte	$1B
	.byte	$AB
	.byte	$4C
	.byte	$17
	.byte	$CE
	.byte	$09
	.byte	$00
_message51:
	.byte	$61
	.byte	$63
	.byte	$53
	.byte	$41
	.byte	$F5
	.byte	$B6
	.byte	$4B
	.byte	$59
	.byte	$34
	.byte	$33
	.byte	$4C
	.byte	$BD
	.byte	$74
	.byte	$8D
	.byte	$5F
	.byte	$08
	.byte	$54
	.byte	$F9
	.byte	$D2
	.byte	$2D
	.byte	$FD
	.byte	$50
	.byte	$D3
	.byte	$58
	.byte	$85
	.byte	$38
	.byte	$4B
	.byte	$4F
	.byte	$4E
	.byte	$37
	.byte	$70
	.byte	$CF
	.byte	$16
	.byte	$F8
	.byte	$18
	.byte	$BD
	.byte	$66
	.byte	$4E
	.byte	$AE
	.byte	$F1
	.byte	$BB
	.byte	$36
	.byte	$88
	.byte	$3C
	.byte	$C3
	.byte	$09
	.byte	$00
_message52:
	.byte	$79
	.byte	$88
	.byte	$7A
	.byte	$AB
	.byte	$FD
	.byte	$52
	.byte	$9E
	.byte	$DE
	.byte	$1A
	.byte	$79
	.byte	$53
	.byte	$34
	.byte	$5E
	.byte	$D3
	.byte	$C8
	.byte	$30
	.byte	$6A
	.byte	$E0
	.byte	$09
	.byte	$F5
	.byte	$23
	.byte	$D6
	.byte	$91
	.byte	$53
	.byte	$74
	.byte	$1F
	.byte	$D1
	.byte	$A9
	.byte	$3C
	.byte	$D3
	.byte	$E3
	.byte	$04
	.byte	$00
_message53:
	.byte	$79
	.byte	$88
	.byte	$7A
	.byte	$FB
	.byte	$A6
	.byte	$D9
	.byte	$BD
	.byte	$A1
	.byte	$69
	.byte	$38
	.byte	$7E
	.byte	$A8
	.byte	$69
	.byte	$D6
	.byte	$97
	.byte	$1C
	.byte	$01
	.byte	$79
	.byte	$4D
	.byte	$59
	.byte	$34
	.byte	$33
	.byte	$6B
	.byte	$21
	.byte	$5C
	.byte	$F3
	.byte	$C3
	.byte	$3F
	.byte	$C7
	.byte	$B7
	.byte	$38
	.byte	$F2
	.byte	$DD
	.byte	$41
	.byte	$CB
	.byte	$4D
	.byte	$E3
	.byte	$31
	.byte	$AE
	.byte	$29
	.byte	$8B
	.byte	$6E
	.byte	$A3
	.byte	$0C
	.byte	$2A
	.byte	$15
	.byte	$65
	.byte	$D0
	.byte	$34
	.byte	$18
	.byte	$3D
	.byte	$A9
	.byte	$FA
	.byte	$E9
	.byte	$86
	.byte	$35
	.byte	$4E
	.byte	$00
_message54:
	.byte	$61
	.byte	$63
	.byte	$D3
	.byte	$08
	.byte	$11
	.byte	$94
	.byte	$FA
	.byte	$AA
	.byte	$E0
	.byte	$43
	.byte	$5F
	.byte	$D2
	.byte	$CB
	.byte	$19
	.byte	$42
	.byte	$A5
	.byte	$FA
	.byte	$31
	.byte	$74
	.byte	$03
	.byte	$57
	.byte	$50
	.byte	$1D
	.byte	$4E
	.byte	$28
	.byte	$04
	.byte	$AA
	.byte	$7C
	.byte	$29
	.byte	$0B
	.byte	$27
	.byte	$00
_message55:
	.byte	$61
	.byte	$63
	.byte	$D3
	.byte	$08
	.byte	$11
	.byte	$34
	.byte	$F2
	.byte	$D0
	.byte	$59
	.byte	$F4
	.byte	$45
	.byte	$7C
	.byte	$3A
	.byte	$1B
	.byte	$1A
	.byte	$86
	.byte	$C6
	.byte	$AB
	.byte	$32
	.byte	$F6
	.byte	$93
	.byte	$EF
	.byte	$9B
	.byte	$5D
	.byte	$33
	.byte	$EF
	.byte	$04
	.byte	$00
_message56:
	.byte	$79
	.byte	$88
	.byte	$CA
	.byte	$D4
	.byte	$FD
	.byte	$33
	.byte	$99
	.byte	$E3
	.byte	$A9
	.byte	$F2
	.byte	$90
	.byte	$AF
	.byte	$D3
	.byte	$F8
	.byte	$55
	.byte	$3F
	.byte	$DD
	.byte	$3E
	.byte	$32
	.byte	$6A
	.byte	$10
	.byte	$F9
	.byte	$BA
	.byte	$3E
	.byte	$FE
	.byte	$FD
	.byte	$22
	.byte	$1A
	.byte	$AF
	.byte	$2E
	.byte	$DE
	.byte	$CC
	.byte	$67
	.byte	$9D
	.byte	$E6
	.byte	$21
	.byte	$1A
	.byte	$AF
	.byte	$DE
	.byte	$A6
	.byte	$6B
	.byte	$13
	.byte	$58
	.byte	$BC
	.byte	$38
	.byte	$4D
	.byte	$23
	.byte	$C3
	.byte	$28
	.byte	$55
	.byte	$3C
	.byte	$C5
	.byte	$BF
	.byte	$BB
	.byte	$BB
	.byte	$67
	.byte	$9E
	.byte	$A2
	.byte	$F1
	.byte	$1A
	.byte	$6F
	.byte	$87
	.byte	$AD
	.byte	$1B
	.byte	$BB
	.byte	$DA
	.byte	$28
	.byte	$C8
	.byte	$91
	.byte	$0B
	.byte	$75
	.byte	$F3
	.byte	$DC
	.byte	$85
	.byte	$CA
	.byte	$98
	.byte	$BE
	.byte	$A1
	.byte	$F1
	.byte	$AF
	.byte	$B9
	.byte	$6F
	.byte	$78
	.byte	$A2
	.byte	$58
	.byte	$D3
	.byte	$F3
	.byte	$EB
	.byte	$35
	.byte	$42
	.byte	$64
	.byte	$1A
	.byte	$A6
	.byte	$CF
	.byte	$9D
	.byte	$4C
	.byte	$5D
	.byte	$2C
	.byte	$DE
	.byte	$3B
	.byte	$01
_message57:
	.byte	$79
	.byte	$88
	.byte	$7A
	.byte	$9B
	.byte	$46
	.byte	$5C
	.byte	$19
	.byte	$1B
	.byte	$58
	.byte	$AF
	.byte	$CA
	.byte	$43
	.byte	$BE
	.byte	$5E
	.byte	$0D
	.byte	$22
	.byte	$5F
	.byte	$D7
	.byte	$C7
	.byte	$BF
	.byte	$5F
	.byte	$44
	.byte	$A8
	.byte	$DE
	.byte	$BE
	.byte	$6B
	.byte	$FB
	.byte	$F8
	.byte	$8D
	.byte	$D7
	.byte	$8D
	.byte	$41
	.byte	$83
	.byte	$1C
	.byte	$41
	.byte	$33
	.byte	$AF
	.byte	$EA
	.byte	$F9
	.byte	$9D
	.byte	$BA
	.byte	$46
	.byte	$4A
	.byte	$AF
	.byte	$D3
	.byte	$75
	.byte	$5F
	.byte	$1E
	.byte	$D5
	.byte	$77
	.byte	$02
_message58:
	.byte	$79
	.byte	$88
	.byte	$9E
	.byte	$74
	.byte	$3D
	.byte	$A7
	.byte	$C9
	.byte	$3C
	.byte	$3D
	.byte	$3D
	.byte	$6B
	.byte	$F2
	.byte	$D7
	.byte	$44
	.byte	$80
	.byte	$BF
	.byte	$F2
	.byte	$DD
	.byte	$FD
	.byte	$BE
	.byte	$DF
	.byte	$37
	.byte	$5E
	.byte	$5D
	.byte	$BC
	.byte	$99
	.byte	$CF
	.byte	$3A
	.byte	$CD
	.byte	$43
	.byte	$34
	.byte	$73
	.byte	$86
	.byte	$1D
	.byte	$A6
	.byte	$E8
	.byte	$2D
	.byte	$1D
	.byte	$BE
	.byte	$D7
	.byte	$69
	.byte	$1A
	.byte	$EB
	.byte	$4A
	.byte	$30
	.byte	$34
	.byte	$5E
	.byte	$F9
	.byte	$F9
	.byte	$4B
	.byte	$85
	.byte	$08
	.byte	$DC
	.byte	$DD
	.byte	$DF
	.byte	$09
	.byte	$00
_message59:
	.byte	$79
	.byte	$88
	.byte	$CA
	.byte	$77
	.byte	$FF
	.byte	$95
	.byte	$B2
	.byte	$E0
	.byte	$6F
	.byte	$C6
	.byte	$1B
	.byte	$F8
	.byte	$F9
	.byte	$BE
	.byte	$F1
	.byte	$EA
	.byte	$E2
	.byte	$CD
	.byte	$7C
	.byte	$D6
	.byte	$69
	.byte	$1E
	.byte	$A2
	.byte	$69
	.byte	$F6
	.byte	$4D
	.byte	$A0
	.byte	$BF
	.byte	$C3
	.byte	$14
	.byte	$8D
	.byte	$C4
	.byte	$F0
	.byte	$84
	.byte	$9A
	.byte	$39
	.byte	$C3
	.byte	$0E
	.byte	$53
	.byte	$34
	.byte	$61
	.byte	$41
	.byte	$E4
	.byte	$F5
	.byte	$9D
	.byte	$E6
	.byte	$23
	.byte	$4D
	.byte	$63
	.byte	$19
	.byte	$1E
	.byte	$D3
	.byte	$09
	.byte	$35
	.byte	$AF
	.byte	$87
	.byte	$C8
	.byte	$37
	.byte	$5E
	.byte	$29
	.byte	$78
	.byte	$7D
	.byte	$CB
	.byte	$B7
	.byte	$EC
	.byte	$EF
	.byte	$63
	.byte	$BD
	.byte	$7D
	.byte	$7B
	.byte	$91
	.byte	$8B
	.byte	$B7
	.byte	$12
	.byte	$9C
	.byte	$00
_message60:
	.byte	$79
	.byte	$88
	.byte	$CA
	.byte	$77
	.byte	$F7
	.byte	$FB
	.byte	$7E
	.byte	$5F
	.byte	$DA
	.byte	$3F
	.byte	$C7
	.byte	$7B
	.byte	$9B
	.byte	$2A
	.byte	$0F
	.byte	$F9
	.byte	$FA
	.byte	$35
	.byte	$88
	.byte	$7C
	.byte	$5D
	.byte	$1F
	.byte	$FF
	.byte	$7E
	.byte	$11
	.byte	$8D
	.byte	$57
	.byte	$17
	.byte	$6F
	.byte	$E6
	.byte	$B3
	.byte	$A1
	.byte	$E6
	.byte	$F5
	.byte	$10
	.byte	$F9
	.byte	$A6
	.byte	$B1
	.byte	$0A
	.byte	$4A
	.byte	$85
	.byte	$45
	.byte	$74
	.byte	$6D
	.byte	$C3
	.byte	$29
	.byte	$8B
	.byte	$7E
	.byte	$93
	.byte	$BF
	.byte	$AA
	.byte	$9F
	.byte	$6E
	.byte	$1F
	.byte	$19
	.byte	$8D
	.byte	$87
	.byte	$88
	.byte	$E6
	.byte	$F5
	.byte	$10
	.byte	$41
	.byte	$37
	.byte	$2F
	.byte	$A7
	.byte	$70
	.byte	$02
_message61:
	.byte	$79
	.byte	$88
	.byte	$CA
	.byte	$74
	.byte	$A5
	.byte	$2C
	.byte	$04
	.byte	$CA
	.byte	$D3
	.byte	$6F
	.byte	$F2
	.byte	$57
	.byte	$F5
	.byte	$D3
	.byte	$ED
	.byte	$23
	.byte	$A3
	.byte	$7C
	.byte	$69
	.byte	$6C
	.byte	$81
	.byte	$B6
	.byte	$21
	.byte	$2A
	.byte	$5F
	.byte	$C5
	.byte	$D2
	.byte	$77
	.byte	$02
_message62:
	.byte	$39
	.byte	$D1
	.byte	$CC
	.byte	$E8
	.byte	$74
	.byte	$9F
	.byte	$A5
	.byte	$FC
	.byte	$36
	.byte	$15
	.byte	$34
	.byte	$7A
	.byte	$43
	.byte	$CF
	.byte	$74
	.byte	$D8
	.byte	$A6
	.byte	$2F
	.byte	$F2
	.byte	$75
	.byte	$7D
	.byte	$FC
	.byte	$FB
	.byte	$45
	.byte	$34
	.byte	$5E
	.byte	$5D
	.byte	$BC
	.byte	$99
	.byte	$CF
	.byte	$3A
	.byte	$75
	.byte	$91
	.byte	$AE
	.byte	$11
	.byte	$74
	.byte	$61
	.byte	$A7
	.byte	$F2
	.byte	$37
	.byte	$F9
	.byte	$49
	.byte	$60
	.byte	$F4
	.byte	$A4
	.byte	$11
	.byte	$0B
	.byte	$AC
	.byte	$E3
	.byte	$04
	.byte	$00
_message63:
	.byte	$61
	.byte	$63
	.byte	$D3
	.byte	$08
	.byte	$11
	.byte	$34
	.byte	$33
	.byte	$3A
	.byte	$8D
	.byte	$10
	.byte	$F9
	.byte	$E6
	.byte	$07
	.byte	$BF
	.byte	$45
	.byte	$D4
	.byte	$F5
	.byte	$F1
	.byte	$EF
	.byte	$17
	.byte	$D1
	.byte	$78
	.byte	$75
	.byte	$F1
	.byte	$66
	.byte	$3E
	.byte	$EB
	.byte	$34
	.byte	$E7
	.byte	$77
	.byte	$3B
	.byte	$FE
	.byte	$FD
	.byte	$22
	.byte	$BA
	.byte	$CF
	.byte	$52
	.byte	$FE
	.byte	$5E
	.byte	$17
	.byte	$68
	.byte	$BB
	.byte	$46
	.byte	$48
	.byte	$15
	.byte	$FB
	.byte	$36
	.byte	$A1
	.byte	$46
	.byte	$5C
	.byte	$95
	.byte	$B1
	.byte	$9F
	.byte	$7C
	.byte	$DF
	.byte	$EC
	.byte	$BA
	.byte	$FD
	.byte	$5A
	.byte	$AF
	.byte	$D7
	.byte	$F8
	.byte	$22
	.byte	$DF
	.byte	$E5
	.byte	$BF
	.byte	$69
	.byte	$96
	.byte	$B2
	.byte	$77
	.byte	$BF
	.byte	$31
	.byte	$84
	.byte	$BA
	.byte	$7F
	.byte	$E5
	.byte	$BB
	.byte	$FC
	.byte	$77
	.byte	$7F
	.byte	$2C
	.byte	$9D
	.byte	$75
	.byte	$FA
	.byte	$44
	.byte	$6D
	.byte	$AC
	.byte	$D9
	.byte	$AF
	.byte	$A7
	.byte	$FD
	.byte	$CB
	.byte	$39
	.byte	$01
_message64:
	.byte	$61
	.byte	$57
	.byte	$E5
	.byte	$57
	.byte	$FD
	.byte	$C6
	.byte	$AB
	.byte	$B7
	.byte	$EE
	.byte	$4F
	.byte	$DB
	.byte	$65
	.byte	$2E
	.byte	$4D
	.byte	$E3
	.byte	$6D
	.byte	$67
	.byte	$3A
	.byte	$8D
	.byte	$57
	.byte	$6F
	.byte	$CD
	.byte	$FC
	.byte	$3E
	.byte	$6B
	.byte	$BA
	.byte	$9D
	.byte	$EA
	.byte	$30
	.byte	$9C
	.byte	$E6
	.byte	$E7
	.byte	$29
	.byte	$3F
	.byte	$AA
	.byte	$7E
	.byte	$BA
	.byte	$7D
	.byte	$64
	.byte	$D4
	.byte	$20
	.byte	$42
	.byte	$BC
	.byte	$EA
	.byte	$34
	.byte	$5E
	.byte	$61
	.byte	$CA
	.byte	$CF
	.byte	$A8
	.byte	$41
	.byte	$E4
	.byte	$EB
	.byte	$FA
	.byte	$F8
	.byte	$F7
	.byte	$8B
	.byte	$68
	.byte	$BC
	.byte	$BA
	.byte	$78
	.byte	$33
	.byte	$9F
	.byte	$75
	.byte	$02
_message65:
	.byte	$79
	.byte	$88
	.byte	$7A
	.byte	$9B
	.byte	$AE
	.byte	$0D
	.byte	$29
	.byte	$65
	.byte	$6F
	.byte	$BA
	.byte	$8F
	.byte	$E8
	.byte	$74
	.byte	$61
	.byte	$DF
	.byte	$E4
	.byte	$12
	.byte	$42
	.byte	$F5
	.byte	$56
	.byte	$D8
	.byte	$F0
	.byte	$8E
	.byte	$32
	.byte	$54
	.byte	$DF
	.byte	$E8
	.byte	$91
	.byte	$29
	.byte	$5F
	.byte	$46
	.byte	$A0
	.byte	$0A
	.byte	$53
	.byte	$34
	.byte	$65
	.byte	$51
	.byte	$BE
	.byte	$34
	.byte	$1B
	.byte	$A3
	.byte	$EA
	.byte	$55
	.byte	$BF
	.byte	$F2
	.byte	$DD
	.byte	$9E
	.byte	$A1
	.byte	$08
	.byte	$35
	.byte	$CD
	.byte	$8E
	.byte	$E6
	.byte	$F5
	.byte	$10
	.byte	$B9
	.byte	$A6
	.byte	$2C
	.byte	$BA
	.byte	$AE
	.byte	$24
	.byte	$E2
	.byte	$D8
	.byte	$D4
	.byte	$20
	.byte	$82
	.byte	$6E
	.byte	$2F
	.byte	$58
	.byte	$CA
	.byte	$70
	.byte	$02
_message66:
	.byte	$AE
	.byte	$FC
	.byte	$95
	.byte	$A1
	.byte	$FA
	.byte	$FD
	.byte	$EE
	.byte	$08
	.byte	$D5
	.byte	$C6
	.byte	$AA
	.byte	$D7
	.byte	$05
	.byte	$26
	.byte	$C7
	.byte	$C6
	.byte	$69
	.byte	$CE
	.byte	$5F
	.byte	$E9
	.byte	$5E
	.byte	$AE
	.byte	$9B
	.byte	$67
	.byte	$34
	.byte	$AF
	.byte	$3F
	.byte	$27
	.byte	$00
_message67:
	.byte	$61
	.byte	$63
	.byte	$D3
	.byte	$0C
	.byte	$FF
	.byte	$BE
	.byte	$C3
	.byte	$F4
	.byte	$1A
	.byte	$AF
	.byte	$24
	.byte	$94
	.byte	$27
	.byte	$54
	.byte	$1B
	.byte	$6B
	.byte	$F6
	.byte	$CD
	.byte	$A6
	.byte	$E6
	.byte	$45
	.byte	$BE
	.byte	$F1
	.byte	$7A
	.byte	$A6
	.byte	$60
	.byte	$AC
	.byte	$F5
	.byte	$A6
	.byte	$70
	.byte	$02
_message68:
	.byte	$61
	.byte	$63
	.byte	$D3
	.byte	$33
	.byte	$05
	.byte	$B3
	.byte	$57
	.byte	$1D
	.byte	$BE
	.byte	$42
	.byte	$A0
	.byte	$CA
	.byte	$97
	.byte	$AE
	.byte	$FB
	.byte	$73
	.byte	$FA
	.byte	$E6
	.byte	$93
	.byte	$AF
	.byte	$7C
	.byte	$35
	.byte	$7E
	.byte	$C3
	.byte	$53
	.byte	$EE
	.byte	$E5
	.byte	$13
	.byte	$2A
	.byte	$C5
	.byte	$F2
	.byte	$7D
	.byte	$3E
	.byte	$45
	.byte	$29
	.byte	$1A
	.byte	$9E
	.byte	$F2
	.byte	$71
	.byte	$9A
	.byte	$3B
	.byte	$DA
	.byte	$BC
	.byte	$4D
	.byte	$B3
	.byte	$5F
	.byte	$F9
	.byte	$2E
	.byte	$FF
	.byte	$85
	.byte	$5E
	.byte	$CA
	.byte	$42
	.byte	$F5
	.byte	$9D
	.byte	$06
	.byte	$00
_message69:
	.byte	$B9
	.byte	$F9
	.byte	$17
	.byte	$34
	.byte	$7D
	.byte	$4A
	.byte	$F7
	.byte	$E4
	.byte	$29
	.byte	$C2
	.byte	$05
	.byte	$00
_message70:
	.byte	$B9
	.byte	$F9
	.byte	$97
	.byte	$6B
	.byte	$66
	.byte	$98
	.byte	$7A
	.byte	$E9
	.byte	$C2
	.byte	$05
	.byte	$00
_message71:
	.byte	$39
	.byte	$C6
	.byte	$4A
	.byte	$22
	.byte	$4E
	.byte	$77
	.byte	$BF
	.byte	$EF
	.byte	$07
	.byte	$27
	.byte	$00
_message72:
	.byte	$39
	.byte	$C6
	.byte	$4A
	.byte	$22
	.byte	$4E
	.byte	$0D
	.byte	$6B
	.byte	$79
	.byte	$FB
	.byte	$2A
	.byte	$E4
	.byte	$9D
	.byte	$00
_message73:
	.byte	$39
	.byte	$C6
	.byte	$4A
	.byte	$22
	.byte	$4E
	.byte	$D7
	.byte	$86
	.byte	$94
	.byte	$B2
	.byte	$D7
	.byte	$B3
	.byte	$D2
	.byte	$C7
	.byte	$E3
	.byte	$04
	.byte	$00
_message74:
	.byte	$79
	.byte	$88
	.byte	$7A
	.byte	$9B
	.byte	$AE
	.byte	$4D
	.byte	$60
	.byte	$F1
	.byte	$E2
	.byte	$34
	.byte	$BD
	.byte	$45
	.byte	$C8
	.byte	$53
	.byte	$79
	.byte	$1A
	.byte	$89
	.byte	$E1
	.byte	$69
	.byte	$BC
	.byte	$A6
	.byte	$E3
	.byte	$F4
	.byte	$8D
	.byte	$1E
	.byte	$4D
	.byte	$D9
	.byte	$93
	.byte	$A1
	.byte	$F9
	.byte	$F7
	.byte	$FD
	.byte	$1A
	.byte	$AF
	.byte	$1B
	.byte	$D6
	.byte	$38
	.byte	$CD
	.byte	$CF
	.byte	$CF
	.byte	$64
	.byte	$8E
	.byte	$F6
	.byte	$FC
	.byte	$95
	.byte	$6F
	.byte	$C4
	.byte	$D7
	.byte	$65
	.byte	$5D
	.byte	$44
	.byte	$CF
	.byte	$E8
	.byte	$B3
	.byte	$49
	.byte	$29
	.byte	$7B
	.byte	$AF
	.byte	$5F
	.byte	$34
	.byte	$8D
	.byte	$55
	.byte	$D0
	.byte	$97
	.byte	$EB
	.byte	$DA
	.byte	$0E
	.byte	$F4
	.byte	$2B
	.byte	$9C
	.byte	$E6
	.byte	$44
	.byte	$A9
	.byte	$FC
	.byte	$29
	.byte	$DD
	.byte	$F7
	.byte	$37
	.byte	$B0
	.byte	$A2
	.byte	$6B
	.byte	$98
	.byte	$41
	.byte	$D3
	.byte	$63
	.byte	$D3
	.byte	$A1
	.byte	$CD
	.byte	$DB
	.byte	$D7
	.byte	$5B
	.byte	$B7
	.byte	$61
	.byte	$FD
	.byte	$A6
	.byte	$B7
	.byte	$08
	.byte	$79
	.byte	$A7
	.byte	$01
_message75:
	.byte	$61
	.byte	$63
	.byte	$D3
	.byte	$EB
	.byte	$F6
	.byte	$FC
	.byte	$3B
	.byte	$4C
	.byte	$AF
	.byte	$11
	.byte	$22
	.byte	$C4
	.byte	$9B
	.byte	$5E
	.byte	$9A
	.byte	$86
	.byte	$7D
	.byte	$02
	.byte	$C7
	.byte	$51
	.byte	$14
	.byte	$F4
	.byte	$B9
	.byte	$DF
	.byte	$14
	.byte	$75
	.byte	$CD
	.byte	$B7
	.byte	$4F
	.byte	$5D
	.byte	$F3
	.byte	$64
	.byte	$A0
	.byte	$DF
	.byte	$78
	.byte	$CD
	.byte	$67
	.byte	$1F
	.byte	$0B
	.byte	$35
	.byte	$9F
	.byte	$1D
	.byte	$96
	.byte	$1D
	.byte	$C5
	.byte	$E6
	.byte	$34
	.byte	$6C
	.byte	$6C
	.byte	$1A
	.byte	$21
	.byte	$82
	.byte	$92
	.byte	$58
	.byte	$7A
	.byte	$E5
	.byte	$4B
	.byte	$29
	.byte	$7B
	.byte	$6B
	.byte	$DD
	.byte	$7E
	.byte	$3B
	.byte	$8A
	.byte	$66
	.byte	$CE
	.byte	$B0
	.byte	$C3
	.byte	$14
	.byte	$3D
	.byte	$53
	.byte	$AC
	.byte	$E5
	.byte	$15
	.byte	$A1
	.byte	$A6
	.byte	$EC
	.byte	$3D
	.byte	$FF
	.byte	$0E
	.byte	$53
	.byte	$14
	.byte	$0B
	.byte	$FB
	.byte	$76
	.byte	$D3
	.byte	$08
	.byte	$E9
	.byte	$36
	.byte	$0A
	.byte	$46
	.byte	$D1
	.byte	$08
	.byte	$91
	.byte	$2F
	.byte	$5F
	.byte	$4A
	.byte	$59
	.byte	$B8
	.byte	$BB
	.byte	$7F
	.byte	$23
	.byte	$A4
	.byte	$DB
	.byte	$28
	.byte	$4C
	.byte	$D1
	.byte	$24
	.byte	$E0
	.byte	$29
	.byte	$05
	.byte	$50
	.byte	$DF
	.byte	$A6
	.byte	$29
	.byte	$8B
	.byte	$6E
	.byte	$E7
	.byte	$89
	.byte	$EA
	.byte	$73
	.byte	$BC
	.byte	$AE
	.byte	$67
	.byte	$50
	.byte	$A9
	.byte	$28
	.byte	$4C
	.byte	$F9
	.byte	$75
	.byte	$7A
	.byte	$D6
	.byte	$34
	.byte	$96
	.byte	$91
	.byte	$53
	.byte	$9D
	.byte	$A6
	.byte	$B1
	.byte	$9E
	.byte	$34
	.byte	$F3
	.byte	$FC
	.byte	$63
	.byte	$70
	.byte	$02
_message100:
	.byte	$B9
	.byte	$79
	.byte	$2C
	.byte	$FD
	.byte	$DA
	.byte	$58
	.byte	$77
	.byte	$54
	.byte	$BE
	.byte	$54
	.byte	$90
	.byte	$43
	.byte	$19
	.byte	$00
_message101:
	.byte	$B9
	.byte	$82
	.byte	$96
	.byte	$9B
	.byte	$CA
	.byte	$AF
	.byte	$74
	.byte	$CF
	.byte	$A8
	.byte	$7A
	.byte	$D5
	.byte	$E9
	.byte	$6F
	.byte	$60
	.byte	$9D
	.byte	$50
	.byte	$6D
	.byte	$AC
	.byte	$EB
	.byte	$BA
	.byte	$BE
	.byte	$FB
	.byte	$9F
	.byte	$13
	.byte	$00
_message102:
	.byte	$61
	.byte	$A8
	.byte	$5E
	.byte	$B7
	.byte	$FB
	.byte	$84
	.byte	$AE
	.byte	$CC
	.byte	$AF
	.byte	$74
	.byte	$CF
	.byte	$A8
	.byte	$A0
	.byte	$69
	.byte	$16
	.byte	$42
	.byte	$DD
	.byte	$C0
	.byte	$29
	.byte	$0B
	.byte	$A2
	.byte	$36
	.byte	$56
	.byte	$FA
	.byte	$26
	.byte	$65
	.byte	$AF
	.byte	$1F
	.byte	$EB
	.byte	$6D
	.byte	$BA
	.byte	$B6
	.byte	$E7
	.byte	$57
	.byte	$AF
	.byte	$3A
	.byte	$E1
	.byte	$02
_message104:
	.byte	$B9
	.byte	$F9
	.byte	$17
	.byte	$74
	.byte	$25
	.byte	$3E
	.byte	$D5
	.byte	$0F
	.byte	$17
	.byte	$00
_message105:
	.byte	$B9
	.byte	$1F
	.byte	$71
	.byte	$9A
	.byte	$D7
	.byte	$BF
	.byte	$A4
	.byte	$59
	.byte	$EF
	.byte	$38
	.byte	$4E
	.byte	$03
_message106:
	.byte	$E1
	.byte	$CB
	.byte	$86
	.byte	$0B
	.byte	$00
_message107:
	.byte	$39
	.byte	$C6
	.byte	$9A
	.byte	$C6
	.byte	$66
	.byte	$A5
	.byte	$69
	.byte	$5E
	.byte	$8F
	.byte	$A5
	.byte	$DF
	.byte	$ED
	.byte	$79
	.byte	$E4
	.byte	$9D
	.byte	$00
_message108:
	.byte	$39
	.byte	$C6
	.byte	$AA
	.byte	$D7
	.byte	$F4
	.byte	$DB
	.byte	$AD
	.byte	$34
	.byte	$4E
	.byte	$00
_message110:
	.byte	$39
	.byte	$C6
	.byte	$BA
	.byte	$CD
	.byte	$5A
	.byte	$D3
	.byte	$B7
	.byte	$F8
	.byte	$8C
	.byte	$C6
	.byte	$AB
	.byte	$3C
	.byte	$41
	.byte	$19
	.byte	$00
_message111:
	.byte	$39
	.byte	$C6
	.byte	$9A
	.byte	$C6
	.byte	$66
	.byte	$A5
	.byte	$A9
	.byte	$7C
	.byte	$B7
	.byte	$E7
	.byte	$91
	.byte	$6F
	.byte	$00
_message112:
	.byte	$B9
	.byte	$F9
	.byte	$AB
	.byte	$8D
	.byte	$35
	.byte	$11
	.byte	$20
	.byte	$6A
	.byte	$5E
	.byte	$E4
	.byte	$1B
	.byte	$BF
	.byte	$BF
	.byte	$F1
	.byte	$31
	.byte	$9C
	.byte	$00
_message113:
	.byte	$B9
	.byte	$7E
	.byte	$41
	.byte	$F4
	.byte	$37
	.byte	$B0
	.byte	$3E
	.byte	$65
	.byte	$00
_message114:
	.byte	$39
	.byte	$BF
	.byte	$DB
	.byte	$B0
	.byte	$7E
	.byte	$41
	.byte	$F4
	.byte	$37
	.byte	$B0
	.byte	$BE
	.byte	$13
	.byte	$00
_message115:
	.byte	$39
	.byte	$C6
	.byte	$9A
	.byte	$9D
	.byte	$9A
	.byte	$17
	.byte	$F9
	.byte	$6E
	.byte	$E0
	.byte	$66
	.byte	$9E
	.byte	$65
	.byte	$9C
	.byte	$00
_message116:
	.byte	$6E
	.byte	$F5
	.byte	$E6
	.byte	$7E
	.byte	$63
	.byte	$4F
	.byte	$59
	.byte	$17
	.byte	$69
	.byte	$1A
	.byte	$2A
	.byte	$7F
	.byte	$D7
	.byte	$F5
	.byte	$45
	.byte	$C6
	.byte	$F4
	.byte	$ED
	.byte	$9D
	.byte	$06
	.byte	$00
_message117:
	.byte	$AE
	.byte	$79
	.byte	$C8
	.byte	$FB
	.byte	$7D
	.byte	$1C
	.byte	$C7
	.byte	$09
	.byte	$00
_message118:
	.byte	$39
	.byte	$C6
	.byte	$FA
	.byte	$29
	.byte	$7D
	.byte	$44
	.byte	$CD
	.byte	$8B
	.byte	$BC
	.byte	$13
	.byte	$00
_message119:
	.byte	$AE
	.byte	$5C
	.byte	$42
	.byte	$2E
	.byte	$3B
	.byte	$16
	.byte	$41
	.byte	$D3
	.byte	$F7
	.byte	$FB
	.byte	$39
	.byte	$01
_message120:
	.byte	$6E
	.byte	$08
	.byte	$10
	.byte	$F5
	.byte	$D6
	.byte	$ED
	.byte	$D7
	.byte	$7A
	.byte	$9A
	.byte	$BE
	.byte	$69
	.byte	$CA
	.byte	$A2
	.byte	$DB
	.byte	$B0
	.byte	$7E
	.byte	$E3
	.byte	$75
	.byte	$8D
	.byte	$EA
	.byte	$38
	.byte	$01
_message121:
	.byte	$2E
	.byte	$96
	.byte	$18
	.byte	$F1
	.byte	$A8
	.byte	$27
	.byte	$A0
	.byte	$AC
	.byte	$8B
	.byte	$74
	.byte	$F7
	.byte	$3C
	.byte	$5D
	.byte	$D7
	.byte	$13
	.byte	$F1
	.byte	$FB
	.byte	$D9
	.byte	$17
	.byte	$FD
	.byte	$6D
	.byte	$7B
	.byte	$46
	.byte	$BD
	.byte	$75
	.byte	$FB
	.byte	$B5
	.byte	$9E
	.byte	$A6
	.byte	$6F
	.byte	$9A
	.byte	$B2
	.byte	$E8
	.byte	$36
	.byte	$AC
	.byte	$DF
	.byte	$78
	.byte	$5D
	.byte	$A3
	.byte	$3A
	.byte	$4E
	.byte	$00
_message122:
	.byte	$14
	.byte	$78
	.byte	$C8
	.byte	$69
	.byte	$5E
	.byte	$FF
	.byte	$92
	.byte	$66
	.byte	$3D
	.byte	$65
	.byte	$00
_message123:
	.byte	$F9
	.byte	$9F
	.byte	$AE
	.byte	$91
	.byte	$A9
	.byte	$A0
	.byte	$FB
	.byte	$DB
	.byte	$75
	.byte	$03
	.byte	$77
	.byte	$A5
	.byte	$27
	.byte	$9F
	.byte	$E1
	.byte	$F6
	.byte	$74
	.byte	$9B
	.byte	$B5
	.byte	$A6
	.byte	$2B
	.byte	$3D
	.byte	$F9
	.byte	$8C
	.byte	$AE
	.byte	$91
	.byte	$A9
	.byte	$7C
	.byte	$D7
	.byte	$53
	.byte	$A9
	.byte	$F7
	.byte	$4E
	.byte	$C3
	.byte	$D2
	.byte	$93
	.byte	$D3
	.byte	$34
	.byte	$56
	.byte	$41
	.byte	$F7
	.byte	$B7
	.byte	$2B
	.byte	$9A
	.byte	$BF
	.byte	$FC
	.byte	$E6
	.byte	$BB
	.byte	$01
_message124:
	.byte	$F9
	.byte	$CB
	.byte	$6F
	.byte	$BE
	.byte	$5B
	.byte	$1B
	.byte	$AB
	.byte	$F2
	.byte	$90
	.byte	$53
	.byte	$F3
	.byte	$22
	.byte	$EF
	.byte	$04
	.byte	$00
_message125:
	.byte	$39
	.byte	$C6
	.byte	$9A
	.byte	$FD
	.byte	$7A
	.byte	$2B
	.byte	$D5
	.byte	$8F
	.byte	$75
	.byte	$FD
	.byte	$36
	.byte	$0C
	.byte	$27
	.byte	$00
_message126:
	.byte	$F9
	.byte	$E4
	.byte	$93
	.byte	$1F
	.byte	$F9
	.byte	$CF
	.byte	$7F
	.byte	$FE
	.byte	$29
	.byte	$03
_message127:
	.byte	$39
	.byte	$C6
	.byte	$BA
	.byte	$5F
	.byte	$B7
	.byte	$FB
	.byte	$04
	.byte	$CA
	.byte	$00
_message128:
	.byte	$F9
	.byte	$E1
	.byte	$9F
	.byte	$E3
	.byte	$37
	.byte	$65
	.byte	$51
	.byte	$21
	.byte	$9E
	.byte	$24
	.byte	$61
	.byte	$EA
	.byte	$F9
	.byte	$0B
	.byte	$A2
	.byte	$E2
	.byte	$8D
	.byte	$FE
	.byte	$A2
	.byte	$F1
	.byte	$32
	.byte	$99
	.byte	$4B
	.byte	$27
	.byte	$E8
	.byte	$42
	.byte	$D3
	.byte	$EC
	.byte	$67
	.byte	$E9
	.byte	$7A
	.byte	$D6
	.byte	$BC
	.byte	$1E
	.byte	$4B
	.byte	$A7
	.byte	$FB
	.byte	$C4
	.byte	$A1
	.byte	$0C
	.byte	$00
_message129:
	.byte	$AE
	.byte	$C1
	.byte	$DD
	.byte	$51
	.byte	$B8
	.byte	$BD
	.byte	$3A
	.byte	$A2
	.byte	$8C
	.byte	$7D
	.byte	$E2
	.byte	$34
	.byte	$5E
	.byte	$26
	.byte	$73
	.byte	$E9
	.byte	$04
	.byte	$A1
	.byte	$C6
	.byte	$21
	.byte	$19
	.byte	$4B
	.byte	$AF
	.byte	$1B
	.byte	$0F
	.byte	$F9
	.byte	$8C
	.byte	$AA
	.byte	$77
	.byte	$02
_message130:
	.byte	$61
	.byte	$3B
	.byte	$54
	.byte	$4F
	.byte	$BE
	.byte	$F1
	.byte	$7A
	.byte	$FB
	.byte	$C6
	.byte	$48
	.byte	$CF
	.byte	$28
	.byte	$62
	.byte	$FD
	.byte	$FA
	.byte	$9E
	.byte	$34
	.byte	$81
	.byte	$49
	.byte	$88
	.byte	$0C
	.byte	$65
	.byte	$00
_message131:
	.byte	$F9
	.byte	$42
	.byte	$36
	.byte	$D4
	.byte	$CC
	.byte	$A7
	.byte	$74
	.byte	$BF
	.byte	$4F
	.byte	$33
	.byte	$67
	.byte	$FA
	.byte	$8D
	.byte	$57
	.byte	$1B
	.byte	$EB
	.byte	$93
	.byte	$E0
	.byte	$A6
	.byte	$DF
	.byte	$4E
	.byte	$C7
	.byte	$71
	.byte	$9C
	.byte	$00
_message132:
	.byte	$61
	.byte	$63
	.byte	$D3
	.byte	$F4
	.byte	$D1
	.byte	$EB
	.byte	$14
	.byte	$DD
	.byte	$AF
	.byte	$6B
	.byte	$6C
	.byte	$CA
	.byte	$A3
	.byte	$3A
	.byte	$95
	.byte	$AF
	.byte	$62
	.byte	$E9
	.byte	$53
	.byte	$06
	.byte	$00
_message133:
	.byte	$6E
	.byte	$1D
	.byte	$5E
	.byte	$28
	.byte	$88
	.byte	$EE
	.byte	$A0
	.byte	$E5
	.byte	$A6
	.byte	$0B
	.byte	$DD
	.byte	$AF
	.byte	$F1
	.byte	$D2
	.byte	$D5
	.byte	$DB
	.byte	$37
	.byte	$1E
	.byte	$C3
	.byte	$FD
	.byte	$C6
	.byte	$40
	.byte	$19
	.byte	$00
_message134:
	.byte	$E1
	.byte	$21
	.byte	$0B
	.byte	$50
	.byte	$36
	.byte	$0F
	.byte	$D1
	.byte	$78
	.byte	$24
	.byte	$58
	.byte	$61
	.byte	$0A
	.byte	$27
	.byte	$00
_message137:
	.byte	$39
	.byte	$BF
	.byte	$DB
	.byte	$B0
	.byte	$7E
	.byte	$41
	.byte	$34
	.byte	$65
	.byte	$CF
	.byte	$AF
	.byte	$77
	.byte	$02
_message138:
	.byte	$B9
	.byte	$E3
	.byte	$2F
	.byte	$88
	.byte	$52
	.byte	$FD
	.byte	$4D
	.byte	$37
	.byte	$2C
	.byte	$1D
	.byte	$CA
	.byte	$E6
	.byte	$21
	.byte	$BA
	.byte	$81
	.byte	$2F
	.byte	$8D
	.byte	$CC
	.byte	$9A
	.byte	$EE
	.byte	$7E
	.byte	$48
	.byte	$F0
	.byte	$BA
	.byte	$BE
	.byte	$C8
	.byte	$37
	.byte	$1D
	.byte	$D2
	.byte	$3B
	.byte	$01
_message139:
	.byte	$39
	.byte	$BF
	.byte	$BB
	.byte	$DF
	.byte	$F7
	.byte	$FB
	.byte	$C6
	.byte	$4B
	.byte	$C8
	.byte	$65
	.byte	$F3
	.byte	$83
	.byte	$DF
	.byte	$FD
	.byte	$10
	.byte	$EA
	.byte	$52
	.byte	$7E
	.byte	$3B
	.byte	$F0
	.byte	$84
	.byte	$0A
	.byte	$FE
	.byte	$6E
	.byte	$3C
	.byte	$1B
	.byte	$DF
	.byte	$74
	.byte	$F8
	.byte	$9B
	.byte	$B2
	.byte	$68
	.byte	$5E
	.byte	$FF
	.byte	$92
	.byte	$BC
	.byte	$4D
	.byte	$B7
	.byte	$5F
	.byte	$EB
	.byte	$D7
	.byte	$42
	.byte	$A8
	.byte	$C3
	.byte	$DF
	.byte	$6D
	.byte	$94
	.byte	$87
	.byte	$E8
	.byte	$F6
	.byte	$6B
	.byte	$3D
	.byte	$A3
	.byte	$2F
	.byte	$CA
	.byte	$D7
	.byte	$E8
	.byte	$B1
	.byte	$9F
	.byte	$7C
	.byte	$DF
	.byte	$EC
	.byte	$7A
	.byte	$D6
	.byte	$ED
	.byte	$13
	.byte	$9C
	.byte	$BA
	.byte	$66
	.byte	$58
	.byte	$44
	.byte	$05
	.byte	$A5
	.byte	$C2
	.byte	$22
	.byte	$8A
	.byte	$2E
	.byte	$D4
	.byte	$50
	.byte	$F2
	.byte	$9D
	.byte	$00
_message140:
	.byte	$39
	.byte	$C6
	.byte	$4A
	.byte	$22
	.byte	$4E
	.byte	$0D
	.byte	$6B
	.byte	$79
	.byte	$FB
	.byte	$EE
	.byte	$7E
	.byte	$DF
	.byte	$EF
	.byte	$9D
	.byte	$00
_message141:
	.byte	$AE
	.byte	$79
	.byte	$C8
	.byte	$EF
	.byte	$77
	.byte	$25
	.byte	$3E
	.byte	$12
	.byte	$8C
	.byte	$BA
	.byte	$92
	.byte	$8F
	.byte	$4B
	.byte	$73
	.byte	$E6
	.byte	$69
	.byte	$BE
	.byte	$F2
	.byte	$E4
	.byte	$70
	.byte	$25
	.byte	$4F
	.byte	$F3
	.byte	$C9
	.byte	$99
	.byte	$33
	.byte	$9F
	.byte	$3A
	.byte	$8E
	.byte	$13
	.byte	$00
_message142:
	.byte	$14
	.byte	$AE
	.byte	$69
	.byte	$8C
	.byte	$3C
	.byte	$18
	.byte	$FA
	.byte	$24
	.byte	$58
	.byte	$10
	.byte	$AA
	.byte	$A0
	.byte	$54
	.byte	$58
	.byte	$84
	.byte	$E3
	.byte	$38
	.byte	$01
_message144:
	.byte	$6E
	.byte	$08
	.byte	$10
	.byte	$F5
	.byte	$F6
	.byte	$5D
	.byte	$E9
	.byte	$E5
	.byte	$9B
	.byte	$B2
	.byte	$E8
	.byte	$4A
	.byte	$B0
	.byte	$88
	.byte	$C6
	.byte	$97
	.byte	$AE
	.byte	$C9
	.byte	$64
	.byte	$4E
	.byte	$75
	.byte	$9C
	.byte	$00
_message145:
	.byte	$6E
	.byte	$08
	.byte	$10
	.byte	$F5
	.byte	$F6
	.byte	$55
	.byte	$7E
	.byte	$12
	.byte	$4D
	.byte	$59
	.byte	$34
	.byte	$F3
	.byte	$8D
	.byte	$DF
	.byte	$ED
	.byte	$D7
	.byte	$7A
	.byte	$9A
	.byte	$BE
	.byte	$29
	.byte	$09
	.byte	$5E
	.byte	$D3
	.byte	$E5
	.byte	$A3
	.byte	$13
	.byte	$00
_message146:
	.byte	$E1
	.byte	$61
	.byte	$DC
	.byte	$0E
	.byte	$65
	.byte	$73
	.byte	$C7
	.byte	$DF
	.byte	$6D
	.byte	$D6
	.byte	$9A
	.byte	$BE
	.byte	$C5
	.byte	$67
	.byte	$F4
	.byte	$BB
	.byte	$7C
	.byte	$EC
	.byte	$F6
	.byte	$6B
	.byte	$BD
	.byte	$C5
	.byte	$E9
	.byte	$F2
	.byte	$22
	.byte	$5F
	.byte	$E5
	.byte	$27
	.byte	$E1
	.byte	$04
	.byte	$00
_message147:
	.byte	$2E
	.byte	$D2
	.byte	$34
	.byte	$54
	.byte	$FE
	.byte	$EE
	.byte	$D7
	.byte	$EC
	.byte	$77
	.byte	$1F
	.byte	$5E
	.byte	$43
	.byte	$D9
	.byte	$5C
	.byte	$FD
	.byte	$DC
	.byte	$54
	.byte	$F9
	.byte	$FB
	.byte	$CA
	.byte	$93
	.byte	$AE
	.byte	$71
	.byte	$64
	.byte	$F8
	.byte	$9C
	.byte	$00
_message148:
	.byte	$39
	.byte	$C6
	.byte	$8A
	.byte	$B5
	.byte	$C0
	.byte	$E8
	.byte	$4A
	.byte	$37
	.byte	$29
	.byte	$0D
	.byte	$65
	.byte	$00
_message149:
	.byte	$39
	.byte	$C6
	.byte	$9A
	.byte	$79
	.byte	$46
	.byte	$65
	.byte	$BA
	.byte	$12
	.byte	$F6
	.byte	$A1
	.byte	$0C
	.byte	$00
_message150:
	.byte	$61
	.byte	$DB
	.byte	$81
	.byte	$7E
	.byte	$BD
	.byte	$EE
	.byte	$A0
	.byte	$E5
	.byte	$C6
	.byte	$09
	.byte	$00
_message151:
	.byte	$79
	.byte	$88
	.byte	$D2
	.byte	$F7
	.byte	$44
	.byte	$D7
	.byte	$06
	.byte	$D3
	.byte	$77
	.byte	$02
_message152:
	.byte	$39
	.byte	$C6
	.byte	$BA
	.byte	$52
	.byte	$16
	.byte	$EC
	.byte	$FE
	.byte	$0C
	.byte	$27
	.byte	$00
_message153:
	.byte	$79
	.byte	$88
	.byte	$D2
	.byte	$F7
	.byte	$44
	.byte	$3F
	.byte	$25
	.byte	$AC
	.byte	$77
	.byte	$02
_message154:
	.byte	$39
	.byte	$C6
	.byte	$BA
	.byte	$CD
	.byte	$5A
	.byte	$13
	.byte	$AA
	.byte	$A0
	.byte	$D4
	.byte	$57
	.byte	$05
	.byte	$1F
	.byte	$BA
	.byte	$AE
	.byte	$6B
	.byte	$6C
	.byte	$BA
	.byte	$D2
	.byte	$F3
	.byte	$A5
	.byte	$57
	.byte	$50
	.byte	$06
	.byte	$00
_message155:
	.byte	$F9
	.byte	$FF
	.byte	$2B
	.byte	$3F
	.byte	$4D
	.byte	$9F
	.byte	$37
	.byte	$9D
	.byte	$06
	.byte	$00
_message156:
	.byte	$DD
	.byte	$BC
	.byte	$E9
	.byte	$75
	.byte	$F9
	.byte	$06
	.byte	$00
_message157:
	.byte	$4E
	.byte	$00
_message158:
	.byte	$39
	.byte	$C6
	.byte	$9A
	.byte	$9D
	.byte	$52
	.byte	$5F
	.byte	$15
	.byte	$7C
	.byte	$68
	.byte	$7A
	.byte	$BE
	.byte	$94
	.byte	$45
	.byte	$D3
	.byte	$58
	.byte	$77
	.byte	$38
	.byte	$01
_message159:
	.byte	$B9
	.byte	$79
	.byte	$88
	.byte	$A0
	.byte	$29
	.byte	$8B
	.byte	$A6
	.byte	$EB
	.byte	$1A
	.byte	$9B
	.byte	$92
	.byte	$6F
	.byte	$36
	.byte	$7D
	.byte	$4B
	.byte	$C3
	.byte	$5F
	.byte	$2A
	.byte	$0C
	.byte	$4E
	.byte	$00
_message160:
	.byte	$61
	.byte	$DB
	.byte	$81
	.byte	$7E
	.byte	$BD
	.byte	$EE
	.byte	$A0
	.byte	$E5
	.byte	$C6
	.byte	$09
	.byte	$00
_message161:
	.byte	$6E
	.byte	$66
	.byte	$DF
	.byte	$E4
	.byte	$76
	.byte	$98
	.byte	$1E
	.byte	$65
	.byte	$F3
	.byte	$FF
	.byte	$57
	.byte	$BE
	.byte	$35
	.byte	$A2
	.byte	$53
	.byte	$21
	.byte	$9E
	.byte	$24
	.byte	$61
	.byte	$EA
	.byte	$F9
	.byte	$9D
	.byte	$00
_message162:
	.byte	$6E
	.byte	$B2
	.byte	$68
	.byte	$9A
	.byte	$F5
	.byte	$8D
	.byte	$20
	.byte	$A7
	.byte	$2B
	.byte	$3D
	.byte	$F9
	.byte	$8C
	.byte	$70
	.byte	$01
_message163:
	.byte	$39
	.byte	$BF
	.byte	$3A
	.byte	$9C
	.byte	$EE
	.byte	$0B
	.byte	$A2
	.byte	$9F
	.byte	$12
	.byte	$D6
	.byte	$3B
	.byte	$01
_message164:
	.byte	$39
	.byte	$BF
	.byte	$3A
	.byte	$9C
	.byte	$EE
	.byte	$0B
	.byte	$A2
	.byte	$6B
	.byte	$83
	.byte	$E9
	.byte	$3B
	.byte	$01
_message165:
	.byte	$39
	.byte	$A7
	.byte	$61
	.byte	$E9
	.byte	$F9
	.byte	$A9
	.byte	$98
	.byte	$82
	.byte	$3E
	.byte	$F7
	.byte	$9B
	.byte	$50
	.byte	$53
	.byte	$F6
	.byte	$7E
	.byte	$7F
	.byte	$9D
	.byte	$E6
	.byte	$5B
	.byte	$16
	.byte	$1B
	.byte	$18
	.byte	$1C
	.byte	$2A
	.byte	$F8
	.byte	$9B
	.byte	$C6
	.byte	$D6
	.byte	$45
	.byte	$F0
	.byte	$EB
	.byte	$D4
	.byte	$5B
	.byte	$B7
	.byte	$51
	.byte	$98
	.byte	$A2
	.byte	$BF
	.byte	$7B
	.byte	$81
	.byte	$4E
	.byte	$D7
	.byte	$59
	.byte	$E3
	.byte	$4B
	.byte	$37
	.byte	$F0
	.byte	$4D
	.byte	$9C
	.byte	$EA
	.byte	$D9
	.byte	$E9
	.byte	$37
	.byte	$8D
	.byte	$35
	.byte	$E3
	.byte	$CD
	.byte	$FD
	.byte	$C6
	.byte	$D0
	.byte	$FD
	.byte	$E9
	.byte	$4B
	.byte	$4F
	.byte	$F1
	.byte	$BF
	.byte	$8D
	.byte	$F2
	.byte	$6C
	.byte	$7F
	.byte	$E9
	.byte	$1B
	.byte	$AF
	.byte	$50
	.byte	$B0
	.byte	$7D
	.byte	$F9
	.byte	$EC
	.byte	$57
	.byte	$3A
	.byte	$FD
	.byte	$1A
	.byte	$A4
	.byte	$F1
	.byte	$48
	.byte	$D8
	.byte	$31
	.byte	$8A
	.byte	$2A
	.byte	$FF
	.byte	$CA
	.byte	$0C
	.byte	$EF
	.byte	$CF
	.byte	$EB
	.byte	$42
	.byte	$FD
	.byte	$B5
	.byte	$2E
	.byte	$79
	.byte	$7E
	.byte	$8B
	.byte	$D3
	.byte	$35
	.byte	$32
	.byte	$05
	.byte	$09
	.byte	$D3
	.byte	$6B
	.byte	$06
	.byte	$72
	.byte	$E9
	.byte	$8A
	.byte	$58
	.byte	$6F
	.byte	$4D
	.byte	$B3
	.byte	$F4
	.byte	$4D
	.byte	$D1
	.byte	$FD
	.byte	$68
	.byte	$B9
	.byte	$E1
	.byte	$DF
	.byte	$61
	.byte	$3A
	.byte	$8D
	.byte	$10
	.byte	$41
	.byte	$33
	.byte	$9F
	.byte	$46
	.byte	$F4
	.byte	$89
	.byte	$9E
	.byte	$A9
	.byte	$3F
	.byte	$3D
	.byte	$12
	.byte	$45
	.byte	$D7
	.byte	$76
	.byte	$7C
	.byte	$EA
	.byte	$5F
	.byte	$CE
	.byte	$09
	.byte	$00
_message166:
	.byte	$B9
	.byte	$F9
	.byte	$17
	.byte	$84
	.byte	$0B
	.byte	$00
_message167:
	.byte	$39
	.byte	$41
	.byte	$D3
	.byte	$53
	.byte	$99
	.byte	$AE
	.byte	$94
	.byte	$05
	.byte	$EF
	.byte	$13
	.byte	$EA
	.byte	$F2
	.byte	$4D
	.byte	$FE
	.byte	$9A
	.byte	$AE
	.byte	$6B
	.byte	$6C
	.byte	$CA
	.byte	$47
	.byte	$67
	.byte	$D1
	.byte	$78
	.byte	$55
	.byte	$2C
	.byte	$1D
	.byte	$C7
	.byte	$71
	.byte	$5C
	.byte	$B5
	.byte	$30
	.byte	$5C
	.byte	$0D
	.byte	$22
	.byte	$C4
	.byte	$9B
	.byte	$5E
	.byte	$FA
	.byte	$1D
	.byte	$FC
	.byte	$8D
	.byte	$10
	.byte	$F9
	.byte	$BA
	.byte	$3E
	.byte	$FE
	.byte	$FD
	.byte	$22
	.byte	$1A
	.byte	$AF
	.byte	$2E
	.byte	$E1
	.byte	$33
	.byte	$F3
	.byte	$59
	.byte	$C7
	.byte	$71
	.byte	$5C
	.byte	$B5
	.byte	$FD
	.byte	$1D
	.byte	$C7
	.byte	$71
	.byte	$D5
	.byte	$6C
	.byte	$AC
	.byte	$9B
	.byte	$1F
	.byte	$A2
	.byte	$58
	.byte	$0B
	.byte	$0C
	.byte	$C7
	.byte	$71
	.byte	$5C
	.byte	$B5
	.byte	$FD
	.byte	$BB
	.byte	$2E
	.byte	$54
	.byte	$10
	.byte	$15
	.byte	$5C
	.byte	$A8
	.byte	$20
	.byte	$2A
	.byte	$5F
	.byte	$D7
	.byte	$C7
	.byte	$BF
	.byte	$5F
	.byte	$44
	.byte	$23
	.byte	$56
	.byte	$E2
	.byte	$53
	.byte	$FD
	.byte	$1A
	.byte	$A4
	.byte	$F4
	.byte	$4D
	.byte	$9A
	.byte	$6E
	.byte	$9E
	.byte	$4A
	.byte	$95
	.byte	$4B
	.byte	$AF
	.byte	$53
	.byte	$8A
	.byte	$51
	.byte	$A4
	.byte	$6F
	.byte	$76
	.byte	$CD
	.byte	$7C
	.byte	$97
	.byte	$6F
	.byte	$AE
	.byte	$6E
	.byte	$9A
	.byte	$EB
	.byte	$A5
	.byte	$E1
	.byte	$34
	.byte	$FB
	.byte	$E6
	.byte	$15
	.byte	$DC
	.byte	$5C
	.byte	$58
	.byte	$50
	.byte	$C5
	.byte	$4E
	.byte	$65
	.byte	$94
	.byte	$A2
	.byte	$6E
	.byte	$A1
	.byte	$B8
	.byte	$DC
	.byte	$CB
	.byte	$C5
	.byte	$50
	.byte	$E3
	.byte	$6C
	.byte	$D3
	.byte	$93
	.byte	$F2
	.byte	$29
	.byte	$0F
	.byte	$F9
	.byte	$3B
	.byte	$4C
	.byte	$A7
	.byte	$F1
	.byte	$BB
	.byte	$3D
	.byte	$2B
	.byte	$1A
	.byte	$AF
	.byte	$FB
	.byte	$4D
	.byte	$B7
	.byte	$8F
	.byte	$0C
	.byte	$A7
	.byte	$AE
	.byte	$9A
	.byte	$8B
	.byte	$25
	.byte	$46
	.byte	$3C
	.byte	$EA
	.byte	$09
	.byte	$42
	.byte	$CD
	.byte	$BE
	.byte	$D9
	.byte	$94
	.byte	$4F
	.byte	$79
	.byte	$C8
	.byte	$D7
	.byte	$E9
	.byte	$5B
	.byte	$CA
	.byte	$A2
	.byte	$79
	.byte	$3D
	.byte	$96
	.byte	$4E
	.byte	$19
	.byte	$1B
	.byte	$58
	.byte	$27
	.byte	$54
	.byte	$6F
	.byte	$A5
	.byte	$6F
	.byte	$D2
	.byte	$34
	.byte	$5E
	.byte	$29
	.byte	$46
	.byte	$91
	.byte	$BE
	.byte	$D9
	.byte	$35
	.byte	$F3
	.byte	$94
	.byte	$AE
	.byte	$5A
	.byte	$F8
	.byte	$AC
	.byte	$FB
	.byte	$EC
	.byte	$30
	.byte	$9D
	.byte	$50
	.byte	$23
	.byte	$C8
	.byte	$B1
	.byte	$E9
	.byte	$93
	.byte	$60
	.byte	$99
	.byte	$62
	.byte	$6D
	.byte	$B3
	.byte	$74
	.byte	$3A
	.byte	$34
	.byte	$7D
	.byte	$A1
	.byte	$6E
	.byte	$E0
	.byte	$94
	.byte	$05
	.byte	$D1
	.byte	$03
	.byte	$5F
	.byte	$6D
	.byte	$AC
	.byte	$89
	.byte	$00
	.byte	$BF
	.byte	$13
	.byte	$00
_message170:
	.byte	$61
	.byte	$5E
	.byte	$9A
	.byte	$9E
	.byte	$15
	.byte	$22
	.byte	$63
	.byte	$28
	.byte	$88
	.byte	$66
	.byte	$6E
	.byte	$AD
	.byte	$D7
	.byte	$09
	.byte	$35
	.byte	$8D
	.byte	$D5
	.byte	$DB
	.byte	$37
	.byte	$0D
	.byte	$C7
	.byte	$0F
	.byte	$D5
	.byte	$5B
	.byte	$5F
	.byte	$94
	.byte	$A7
	.byte	$E9
	.byte	$59
	.byte	$21
	.byte	$32
	.byte	$4D
	.byte	$63
	.byte	$F5
	.byte	$F6
	.byte	$5D
	.byte	$89
	.byte	$4F
	.byte	$F5
	.byte	$BB
	.byte	$66
	.byte	$E3
	.byte	$77
	.byte	$02
_message171:
	.byte	$61
	.byte	$5E
	.byte	$9A
	.byte	$9E
	.byte	$15
	.byte	$22
	.byte	$D3
	.byte	$44
	.byte	$80
	.byte	$E8
	.byte	$4A
	.byte	$7C
	.byte	$AA
	.byte	$93
	.byte	$4B
	.byte	$57
	.byte	$C3
	.byte	$2B
	.byte	$E7
	.byte	$77
	.byte	$9F
	.byte	$A5
	.byte	$FC
	.byte	$75
	.byte	$A9
	.byte	$62
	.byte	$0D
	.byte	$5F
	.byte	$23
	.byte	$44
	.byte	$BE
	.byte	$AE
	.byte	$8F
	.byte	$7F
	.byte	$BF
	.byte	$88
	.byte	$C6
	.byte	$AB
	.byte	$8B
	.byte	$37
	.byte	$F3
	.byte	$D9
	.byte	$82
	.byte	$E8
	.byte	$C6
	.byte	$C3
	.byte	$43
	.byte	$BF
	.byte	$7E
	.byte	$37
	.byte	$70
	.byte	$BD
	.byte	$F5
	.byte	$45
	.byte	$79
	.byte	$BA
	.byte	$63
	.byte	$81
	.byte	$D2
	.byte	$D5
	.byte	$F0
	.byte	$72
	.byte	$02
_message172:
	.byte	$39
	.byte	$C6
	.byte	$4A
	.byte	$22
	.byte	$4E
	.byte	$0D
	.byte	$6B
	.byte	$79
	.byte	$FB
	.byte	$A6
	.byte	$67
	.byte	$85
	.byte	$C8
	.byte	$50
	.byte	$06
	.byte	$00
_message173:
	.byte	$2E
	.byte	$52
	.byte	$FA
	.byte	$55
	.byte	$27
	.byte	$D4
	.byte	$34
	.byte	$56
	.byte	$6F
	.byte	$5D
	.byte	$23
	.byte	$53
	.byte	$EA
	.byte	$8B
	.byte	$FB
	.byte	$84
	.byte	$0A
	.byte	$A2
	.byte	$1F
	.byte	$E3
	.byte	$AC
	.byte	$35
	.byte	$7D
	.byte	$91
	.byte	$E9
	.byte	$4A
	.byte	$CF
	.byte	$4F
	.byte	$C5
	.byte	$14
	.byte	$95
	.byte	$69
	.byte	$3C
	.byte	$72
	.byte	$F8
	.byte	$9B
	.byte	$C6
	.byte	$EA
	.byte	$AD
	.byte	$D4
	.byte	$49
	.byte	$69
	.byte	$0C
	.byte	$94
	.byte	$01
_message174:
	.byte	$6E
	.byte	$08
	.byte	$10
	.byte	$F5
	.byte	$56
	.byte	$AA
	.byte	$4F
	.byte	$53
	.byte	$83
	.byte	$74
	.byte	$7B
	.byte	$F2
	.byte	$76
	.byte	$98
	.byte	$4E
	.byte	$A8
	.byte	$2F
	.byte	$4D
	.byte	$30
	.byte	$E5
	.byte	$69
	.byte	$84
	.byte	$C8
	.byte	$77
	.byte	$E9
	.byte	$9B
	.byte	$FB
	.byte	$3B
	.byte	$01
_message175:
	.byte	$6E
	.byte	$C6
	.byte	$4A
	.byte	$F3
	.byte	$5B
	.byte	$44
	.byte	$33
	.byte	$AF
	.byte	$97
	.byte	$3E
	.byte	$D4
	.byte	$04
	.byte	$D3
	.byte	$DB
	.byte	$A1
	.byte	$3C
	.byte	$8D
	.byte	$B3
	.byte	$4D
	.byte	$13
	.byte	$4C
	.byte	$6F
	.byte	$87
	.byte	$F2
	.byte	$84
	.byte	$7A
	.byte	$D2
	.byte	$F5
	.byte	$9C
	.byte	$26
	.byte	$F3
	.byte	$F4
	.byte	$74
	.byte	$5D
	.byte	$D7
	.byte	$36
	.byte	$4B
	.byte	$DF
	.byte	$09
	.byte	$00
_message176:
	.byte	$39
	.byte	$89
	.byte	$EC
	.byte	$5F
	.byte	$E9
	.byte	$7B
	.byte	$A2
	.byte	$6B
	.byte	$9B
	.byte	$A5
	.byte	$AF
	.byte	$13
	.byte	$AA
	.byte	$8D
	.byte	$75
	.byte	$6D
	.byte	$8C
	.byte	$F4
	.byte	$8C
	.byte	$0A
	.byte	$9A
	.byte	$19
	.byte	$76
	.byte	$07
	.byte	$65
	.byte	$00
_message177:
	.byte	$39
	.byte	$C6
	.byte	$BA
	.byte	$C0
	.byte	$24
	.byte	$FA
	.byte	$B5
	.byte	$83
	.byte	$29
	.byte	$42
	.byte	$DD
	.byte	$60
	.byte	$EB
	.byte	$FB
	.byte	$CD
	.byte	$EB
	.byte	$25
	.byte	$CD
	.byte	$FA
	.byte	$C6
	.byte	$AB
	.byte	$D7
	.byte	$13
	.byte	$50
	.byte	$06
	.byte	$00
_message178:
	.byte	$79
	.byte	$88
	.byte	$7A
	.byte	$6B
	.byte	$46
	.byte	$DE
	.byte	$EB
	.byte	$34
	.byte	$12
	.byte	$CF
	.byte	$F4
	.byte	$89
	.byte	$7C
	.byte	$A8
	.byte	$DE
	.byte	$BE
	.byte	$7C
	.byte	$1B
	.byte	$4F
	.byte	$F4
	.byte	$EE
	.byte	$37
	.byte	$86
	.byte	$C6
	.byte	$AB
	.byte	$B7
	.byte	$EE
	.byte	$6F
	.byte	$3E
	.byte	$F3
	.byte	$AA
	.byte	$53
	.byte	$E5
	.byte	$21
	.byte	$5F
	.byte	$A7
	.byte	$06
	.byte	$91
	.byte	$AF
	.byte	$EB
	.byte	$E3
	.byte	$DF
	.byte	$2F
	.byte	$A2
	.byte	$F1
	.byte	$EA
	.byte	$E2
	.byte	$CD
	.byte	$7C
	.byte	$D6
	.byte	$69
	.byte	$D8
	.byte	$75
	.byte	$F3
	.byte	$43
	.byte	$F4
	.byte	$53
	.byte	$5E
	.byte	$7F
	.byte	$4B
	.byte	$9F
	.byte	$D1
	.byte	$34
	.byte	$D6
	.byte	$6D
	.byte	$52
	.byte	$F6
	.byte	$0A
	.byte	$CF
	.byte	$D3
	.byte	$97
	.byte	$E6
	.byte	$C7
	.byte	$65
	.byte	$B4
	.byte	$61
	.byte	$D9
	.byte	$D9
	.byte	$1A
	.byte	$21
	.byte	$CD
	.byte	$D5
	.byte	$2F
	.byte	$8C
	.byte	$13
	.byte	$00
_message179:
	.byte	$39
	.byte	$C6
	.byte	$BA
	.byte	$C0
	.byte	$24
	.byte	$FA
	.byte	$35
	.byte	$2F
	.byte	$F2
	.byte	$A1
	.byte	$1A
	.byte	$88
	.byte	$0E
	.byte	$7F
	.byte	$0D
	.byte	$44
	.byte	$E3
	.byte	$6C
	.byte	$E3
	.byte	$34
	.byte	$E7
	.byte	$AF
	.byte	$74
	.byte	$2F
	.byte	$D3
	.byte	$CD
	.byte	$33
	.byte	$2A
	.byte	$E7
	.byte	$04
	.byte	$00
_message180:
	.byte	$B9
	.byte	$F9
	.byte	$17
	.byte	$34
	.byte	$23
	.byte	$EF
	.byte	$75
	.byte	$C2
	.byte	$05
	.byte	$00
_message181:
	.byte	$79
	.byte	$88
	.byte	$9E
	.byte	$79
	.byte	$3D
	.byte	$41
	.byte	$E3
	.byte	$D1
	.byte	$A7
	.byte	$CF
	.byte	$A8
	.byte	$F9
	.byte	$1D
	.byte	$7C
	.byte	$FD
	.byte	$A6
	.byte	$5F
	.byte	$E3
	.byte	$38
	.byte	$4E
	.byte	$00
_message182:
	.byte	$61
	.byte	$5E
	.byte	$9A
	.byte	$9E
	.byte	$15
	.byte	$22
	.byte	$13
	.byte	$AA
	.byte	$7C
	.byte	$57
	.byte	$E2
	.byte	$53
	.byte	$FD
	.byte	$6E
	.byte	$9E
	.byte	$4A
	.byte	$95
	.byte	$4B
	.byte	$E7
	.byte	$EE
	.byte	$FE
	.byte	$95
	.byte	$EF
	.byte	$3E
	.byte	$4B
	.byte	$F9
	.byte	$1B
	.byte	$71
	.byte	$55
	.byte	$AC
	.byte	$E1
	.byte	$6B
	.byte	$84
	.byte	$C8
	.byte	$D7
	.byte	$F5
	.byte	$F1
	.byte	$EF
	.byte	$17
	.byte	$D1
	.byte	$78
	.byte	$75
	.byte	$F1
	.byte	$66
	.byte	$3E
	.byte	$1B
	.byte	$6A
	.byte	$86
	.byte	$BD
	.byte	$EA
	.byte	$34
	.byte	$E2
	.byte	$2A
	.byte	$4F
	.byte	$0E
	.byte	$5F
	.byte	$E3
	.byte	$55
	.byte	$FD
	.byte	$74
	.byte	$FB
	.byte	$C8
	.byte	$70
	.byte	$02
_message183:
	.byte	$39
	.byte	$D1
	.byte	$CC
	.byte	$E8
	.byte	$D0
	.byte	$FC
	.byte	$99
	.byte	$43
	.byte	$D7
	.byte	$D8
	.byte	$94
	.byte	$0A
	.byte	$6B
	.byte	$E6
	.byte	$D6
	.byte	$7A
	.byte	$45
	.byte	$5F
	.byte	$04
	.byte	$DD
	.byte	$9E
	.byte	$A1
	.byte	$57
	.byte	$34
	.byte	$F3
	.byte	$66
	.byte	$D3
	.byte	$ED
	.byte	$59
	.byte	$D1
	.byte	$08
	.byte	$11
	.byte	$E2
	.byte	$45
	.byte	$B0
	.byte	$F4
	.byte	$76
	.byte	$98
	.byte	$8E
	.byte	$D3
	.byte	$1C
	.byte	$63
	.byte	$DD
	.byte	$FC
	.byte	$5C
	.byte	$37
	.byte	$86
	.byte	$45
	.byte	$B0
	.byte	$80
	.byte	$32
	.byte	$00
_message184:
	.byte	$39
	.byte	$A7
	.byte	$2B
	.byte	$65
	.byte	$21
	.byte	$50
	.byte	$9E
	.byte	$50
	.byte	$47
	.byte	$94
	.byte	$D1
	.byte	$8F
	.byte	$C5
	.byte	$5A
	.byte	$60
	.byte	$D4
	.byte	$5B
	.byte	$D3
	.byte	$ED
	.byte	$90
	.byte	$9B
	.byte	$46
	.byte	$88
	.byte	$7C
	.byte	$5D
	.byte	$1F
	.byte	$FF
	.byte	$7E
	.byte	$11
	.byte	$8D
	.byte	$57
	.byte	$17
	.byte	$6F
	.byte	$E6
	.byte	$B3
	.byte	$A1
	.byte	$82
	.byte	$E8
	.byte	$F6
	.byte	$AC
	.byte	$68
	.byte	$84
	.byte	$08
	.byte	$F1
	.byte	$22
	.byte	$58
	.byte	$7A
	.byte	$3B
	.byte	$4C
	.byte	$A7
	.byte	$11
	.byte	$22
	.byte	$DF
	.byte	$7D
	.byte	$96
	.byte	$F2
	.byte	$17
	.byte	$B5
	.byte	$B1
	.byte	$6E
	.byte	$7E
	.byte	$88
	.byte	$62
	.byte	$2D
	.byte	$30
	.byte	$BA
	.byte	$B6
	.byte	$59
	.byte	$FA
	.byte	$3A
	.byte	$94
	.byte	$01
_message200:
	.byte	$F9
	.byte	$F2
	.byte	$63
	.byte	$F4
	.byte	$0D
	.byte	$DB
	.byte	$F4
	.byte	$AB
	.byte	$5E
	.byte	$F5
	.byte	$42
	.byte	$CD
	.byte	$EB
	.byte	$5F
	.byte	$52
	.byte	$16
	.byte	$5D
	.byte	$50
	.byte	$BD
	.byte	$FD
	.byte	$ED
	.byte	$9B
	.byte	$F9
	.byte	$50
	.byte	$37
	.byte	$70
	.byte	$E9
	.byte	$9B
	.byte	$34
	.byte	$A1
	.byte	$EE
	.byte	$D7
	.byte	$35
	.byte	$36
	.byte	$8D
	.byte	$47
	.byte	$82
	.byte	$F5
	.byte	$74
	.byte	$FA
	.byte	$E5
	.byte	$13
	.byte	$D0
	.byte	$34
	.byte	$18
	.byte	$25
	.byte	$91
	.byte	$52
	.byte	$F6
	.byte	$50
	.byte	$3E
	.byte	$F2
	.byte	$96
	.byte	$A2
	.byte	$F1
	.byte	$7A
	.byte	$96
	.byte	$19
	.byte	$DE
	.byte	$5F
	.byte	$2F
	.byte	$BD
	.byte	$D3
	.byte	$7C
	.byte	$54
	.byte	$8F
	.byte	$5F
	.byte	$A7
	.byte	$F1
	.byte	$45
	.byte	$D0
	.byte	$27
	.byte	$49
	.byte	$98
	.byte	$7A
	.byte	$46
	.byte	$15
	.byte	$4B
	.byte	$FD
	.byte	$CB
	.byte	$F5
	.byte	$AC
	.byte	$E4
	.byte	$D0
	.byte	$DF
	.byte	$BF
	.byte	$E6
	.byte	$F5
	.byte	$B8
	.byte	$2A
	.byte	$F6
	.byte	$ED
	.byte	$42
	.byte	$CD
	.byte	$4E
	.byte	$95
	.byte	$7F
	.byte	$25
	.byte	$3E
	.byte	$D5
	.byte	$E9
	.byte	$59
	.byte	$DD
	.byte	$EE
	.byte	$93
	.byte	$5F
	.byte	$6F
	.byte	$D3
	.byte	$88
	.byte	$EB
	.byte	$C6
	.byte	$43
	.byte	$F3
	.byte	$EF
	.byte	$FB
	.byte	$75
	.byte	$E3
	.byte	$D9
	.byte	$66
	.byte	$E9
	.byte	$D5
	.byte	$20
	.byte	$82
	.byte	$6E
	.byte	$4F
	.byte	$9F
	.byte	$A1
	.byte	$F1
	.byte	$9A
	.byte	$AB
	.byte	$9B
	.byte	$FD
	.byte	$12
	.byte	$4F
	.byte	$9A
	.byte	$7D
	.byte	$F3
	.byte	$0A
	.byte	$76
	.byte	$2A
	.byte	$52
	.byte	$FA
	.byte	$26
	.byte	$4D
	.byte	$D7
	.byte	$35
	.byte	$65
	.byte	$EF
	.byte	$F7
	.byte	$AF
	.byte	$AB
	.byte	$E1
	.byte	$95
	.byte	$F3
	.byte	$BB
	.byte	$1D
	.byte	$FF
	.byte	$7E
	.byte	$11
	.byte	$8D
	.byte	$57
	.byte	$17
	.byte	$33
	.byte	$9F
	.byte	$75
	.byte	$35
	.byte	$BC
	.byte	$BA
	.byte	$F1
	.byte	$6C
	.byte	$B3
	.byte	$F4
	.byte	$BB
	.byte	$81
	.byte	$7B
	.byte	$52
	.byte	$0A
	.byte	$2E
	.byte	$14
	.byte	$EF
	.byte	$16
	.byte	$B7
	.byte	$B8
	.byte	$4D
	.byte	$EE
	.byte	$E5
	.byte	$D3
	.byte	$F8
	.byte	$CD
	.byte	$87
	.byte	$6F
	.byte	$E9
	.byte	$45
	.byte	$94
	.byte	$C2
	.byte	$30
	.byte	$43
	.byte	$E4
	.byte	$9A
	.byte	$0B
	.byte	$B9
	.byte	$BA
	.byte	$D9
	.byte	$2F
	.byte	$F1
	.byte	$A4
	.byte	$D9
	.byte	$37
	.byte	$AF
	.byte	$E0
	.byte	$9A
	.byte	$53
	.byte	$8A
	.byte	$51
	.byte	$2C
	.byte	$D4
	.byte	$05
	.byte	$55
	.byte	$EC
	.byte	$54
	.byte	$46
	.byte	$29
	.byte	$EA
	.byte	$16
	.byte	$8A
	.byte	$CB
	.byte	$BD
	.byte	$5C
	.byte	$0C
	.byte	$95
	.byte	$04
	.byte	$AF
	.byte	$1B
	.byte	$43
	.byte	$37
	.byte	$70
	.byte	$DD
	.byte	$FE
	.byte	$6E
	.byte	$BF
	.byte	$86
	.byte	$6D
	.byte	$48
	.byte	$CA
	.byte	$7E
	.byte	$6F
	.byte	$BC
	.byte	$E6
	.byte	$FA
	.byte	$26
	.byte	$37
	.byte	$0D
	.byte	$03
	.byte	$09
	.byte	$BE
	.byte	$50
	.byte	$73
	.byte	$21
	.byte	$57
	.byte	$37
	.byte	$FB
	.byte	$25
	.byte	$9E
	.byte	$34
	.byte	$FB
	.byte	$E6
	.byte	$15
	.byte	$5C
	.byte	$73
	.byte	$4A
	.byte	$B1
	.byte	$DC
	.byte	$37
	.byte	$54
	.byte	$1B
	.byte	$12
	.byte	$3B
	.byte	$95
	.byte	$51
	.byte	$8A
	.byte	$BA
	.byte	$85
	.byte	$E2
	.byte	$72
	.byte	$2F
	.byte	$17
	.byte	$9D
	.byte	$BA
	.byte	$48
	.byte	$E9
	.byte	$9B
	.byte	$34
	.byte	$E5
	.byte	$4B
	.byte	$2F
	.byte	$E9
	.byte	$7B
	.byte	$D6
	.byte	$FD
	.byte	$ED
	.byte	$C0
	.byte	$DF
	.byte	$A7
	.byte	$52
	.byte	$7F
	.byte	$E9
	.byte	$9B
	.byte	$FB
	.byte	$37
	.byte	$83
	.byte	$08
	.byte	$41
	.byte	$85
	.byte	$78
	.byte	$92
	.byte	$84
	.byte	$A9
	.byte	$E7
	.byte	$EF
	.byte	$F0
	.byte	$D1
	.byte	$67
	.byte	$2F
	.byte	$28
	.byte	$BA
	.byte	$AE
	.byte	$9B
	.byte	$1F
	.byte	$A2
	.byte	$F4
	.byte	$4D
	.byte	$7A
	.byte	$46
	.byte	$69
	.byte	$7E
	.byte	$F5
	.byte	$A7
	.byte	$BF
	.byte	$C3
	.byte	$14
	.byte	$7D
	.byte	$11
	.byte	$E2
	.byte	$4C
	.byte	$C1
	.byte	$36
	.byte	$8D
	.byte	$90
	.byte	$52
	.byte	$79
	.byte	$DC
	.byte	$CE
	.byte	$02
	.byte	$E7
	.byte	$B2
	.byte	$AE
	.byte	$9A
	.byte	$AB
	.byte	$96
	.byte	$F3
	.byte	$BB
	.byte	$1D
	.byte	$FF
	.byte	$7E
	.byte	$11
	.byte	$8D
	.byte	$57
	.byte	$17
	.byte	$33
	.byte	$9F
	.byte	$2D
	.byte	$C5
	.byte	$D7
	.byte	$95
	.byte	$27
	.byte	$2F
	.byte	$A2
	.byte	$F9
	.byte	$F2
	.byte	$29
	.byte	$5D
	.byte	$73
	.byte	$21
	.byte	$AB
	.byte	$BA
	.byte	$E5
	.byte	$D2
	.byte	$6D
	.byte	$DC
	.byte	$26
	.byte	$3E
	.byte	$49
	.byte	$F5
	.byte	$29
	.byte	$9D
	.byte	$93
	.byte	$B2
	.byte	$70
	.byte	$A7
	.byte	$F8
	.byte	$97
	.byte	$4B
	.byte	$70
	.byte	$32
	.byte	$EC
	.byte	$36
	.byte	$67
	.byte	$11
	.byte	$6E
	.byte	$BB
	.byte	$B3
	.byte	$65
	.byte	$B7
	.byte	$70
	.byte	$CF
	.byte	$B4
	.byte	$DF
	.byte	$61
	.byte	$EA
	.byte	$F6
	.byte	$26
	.byte	$9F
	.byte	$0F
	.byte	$6E
	.byte	$73
	.byte	$66
	.byte	$3E
	.byte	$EB
	.byte	$36
	.byte	$67
	.byte	$E6
	.byte	$B3
	.byte	$CE
	.byte	$59
	.byte	$CA
	.byte	$45
	.byte	$57
	.byte	$CD
	.byte	$55
	.byte	$CB
	.byte	$49
	.byte	$64
	.byte	$A7
	.byte	$99
	.byte	$57
	.byte	$9D
	.byte	$92
	.byte	$88
	.byte	$60
	.byte	$F4
	.byte	$1B
	.byte	$8F
	.byte	$04
	.byte	$AF
	.byte	$EB
	.byte	$6F
	.byte	$DB
	.byte	$AF
	.byte	$75
	.byte	$63
	.byte	$AF
	.byte	$D7
	.byte	$78
	.byte	$65
	.byte	$28
	.byte	$4F
	.byte	$9A
	.byte	$7D
	.byte	$F3
	.byte	$7A
	.byte	$46
	.byte	$17
	.byte	$B5
	.byte	$B1
	.byte	$50
	.byte	$11
	.byte	$7B
	.byte	$56
	.byte	$64
	.byte	$32
	.byte	$50
	.byte	$BD
	.byte	$9E
	.byte	$94
	.byte	$BE
	.byte	$49
	.byte	$D3
	.byte	$EC
	.byte	$F7
	.byte	$49
	.byte	$AF
	.byte	$53
	.byte	$6F
	.byte	$4D
	.byte	$60
	.byte	$9D
	.byte	$2E
	.byte	$9F
	.byte	$12
	.byte	$D6
	.byte	$9A
	.byte	$50
	.byte	$77
	.byte	$F0
	.byte	$E9
	.byte	$34
	.byte	$42
	.byte	$E4
	.byte	$AB
	.byte	$FC
	.byte	$FB
	.byte	$F7
	.byte	$6C
	.byte	$CD
	.byte	$DA
	.byte	$A0
	.byte	$FA
	.byte	$D4
	.byte	$93
	.byte	$1D
	.byte	$A6
	.byte	$E8
	.byte	$93
	.byte	$E4
	.byte	$59
	.byte	$82
	.byte	$29
	.byte	$1A
	.byte	$AF
	.byte	$F9
	.byte	$F0
	.byte	$2D
	.byte	$BD
	.byte	$88
	.byte	$52
	.byte	$18
	.byte	$66
	.byte	$88
	.byte	$9C
	.byte	$D3
	.byte	$9C
	.byte	$D3
	.byte	$05
	.byte	$DA
	.byte	$5E
	.byte	$A6
	.byte	$79
	.byte	$FD
	.byte	$59
	.byte	$BC
	.byte	$BE
	.byte	$A5
	.byte	$2C
	.byte	$9A
	.byte	$D7
	.byte	$5F
	.byte	$A8
	.byte	$E9
	.byte	$D7
	.byte	$74
	.byte	$FF
	.byte	$6B
	.byte	$F3
	.byte	$FA
	.byte	$97
	.byte	$E4
	.byte	$6D
	.byte	$9A
	.byte	$99
	.byte	$B5
	.byte	$50
	.byte	$6F
	.byte	$FD
	.byte	$6D
	.byte	$FB
	.byte	$B5
	.byte	$6E
	.byte	$EC
	.byte	$75
	.byte	$1A
	.byte	$21
	.byte	$A5
	.byte	$61
	.byte	$60
	.byte	$38
	.byte	$01
_message201:
	.byte	$6E
	.byte	$66
	.byte	$47
	.byte	$23
	.byte	$54
	.byte	$27
	.byte	$D4
	.byte	$35
	.byte	$36
	.byte	$5D
	.byte	$D8
	.byte	$37
	.byte	$46
	.byte	$97
	.byte	$BE
	.byte	$4E
	.byte	$BD
	.byte	$F5
	.byte	$B7
	.byte	$ED
	.byte	$D7
	.byte	$BA
	.byte	$B1
	.byte	$D7
	.byte	$69
	.byte	$BC
	.byte	$3E
	.byte	$49
	.byte	$C2
	.byte	$D4
	.byte	$33
	.byte	$AA
	.byte	$58
	.byte	$EA
	.byte	$5F
	.byte	$AE
	.byte	$68
	.byte	$CE
	.byte	$AF
	.byte	$EB
	.byte	$E3
	.byte	$DF
	.byte	$2F
	.byte	$A2
	.byte	$F1
	.byte	$EA
	.byte	$E2
	.byte	$CD
	.byte	$7C
	.byte	$B6
	.byte	$20
	.byte	$BA
	.byte	$F4
	.byte	$75
	.byte	$7A
	.byte	$D2
	.byte	$FD
	.byte	$A6
	.byte	$1B
	.byte	$DF
	.byte	$3E
	.byte	$A5
	.byte	$6F
	.byte	$D2
	.byte	$74
	.byte	$F3
	.byte	$54
	.byte	$AA
	.byte	$5C
	.byte	$7A
	.byte	$9D
	.byte	$2E
	.byte	$DF
	.byte	$5C
	.byte	$DD
	.byte	$EC
	.byte	$97
	.byte	$78
	.byte	$D2
	.byte	$EC
	.byte	$9B
	.byte	$57
	.byte	$70
	.byte	$A8
	.byte	$06
	.byte	$91
	.byte	$FC
	.byte	$E5
	.byte	$37
	.byte	$FC
	.byte	$CF
	.byte	$29
	.byte	$8B
	.byte	$91
	.byte	$A1
	.byte	$2F
	.byte	$4D
	.byte	$77
	.byte	$2C
	.byte	$34
	.byte	$5E
	.byte	$17
	.byte	$54
	.byte	$B1
	.byte	$53
	.byte	$19
	.byte	$A5
	.byte	$A8
	.byte	$5B
	.byte	$28
	.byte	$2E
	.byte	$F7
	.byte	$42
	.byte	$5D
	.byte	$5E
	.byte	$6A
	.byte	$7E
	.byte	$07
	.byte	$4F
	.byte	$29
	.byte	$46
	.byte	$31
	.byte	$A7
	.byte	$F9
	.byte	$88
	.byte	$E4
	.byte	$2F
	.byte	$BF
	.byte	$E1
	.byte	$C7
	.byte	$36
	.byte	$E9
	.byte	$BB
	.byte	$F1
	.byte	$D0
	.byte	$FC
	.byte	$FB
	.byte	$FE
	.byte	$E4
	.byte	$D4
	.byte	$5B
	.byte	$29
	.byte	$B8
	.byte	$B8
	.byte	$C5
	.byte	$2D
	.byte	$6E
	.byte	$93
	.byte	$7B
	.byte	$F9
	.byte	$14
	.byte	$B1
	.byte	$27
	.byte	$A5
	.byte	$6F
	.byte	$D2
	.byte	$54
	.byte	$A6
	.byte	$2B
	.byte	$F1
	.byte	$AD
	.byte	$75
	.byte	$3D
	.byte	$6B
	.byte	$BE
	.byte	$F2
	.byte	$09
	.byte	$73
	.byte	$71
	.byte	$E3
	.byte	$34
	.byte	$D7
	.byte	$6B
	.byte	$F6
	.byte	$9B
	.byte	$79
	.byte	$D5
	.byte	$A9
	.byte	$B7
	.byte	$D2
	.byte	$FC
	.byte	$D6
	.byte	$ED
	.byte	$3E
	.byte	$81
	.byte	$51
	.byte	$3E
	.byte	$E5
	.byte	$21
	.byte	$9F
	.byte	$11
	.byte	$6A
	.byte	$5E
	.byte	$FF
	.byte	$92
	.byte	$B2
	.byte	$A8
	.byte	$62
	.byte	$DF
	.byte	$A6
	.byte	$99
	.byte	$0F
	.byte	$35
	.byte	$E2
	.byte	$BA
	.byte	$CD
	.byte	$D2
	.byte	$9E
	.byte	$95
	.byte	$A1
	.byte	$68
	.byte	$CA
	.byte	$A2
	.byte	$DB
	.byte	$B3
	.byte	$3C
	.byte	$F9
	.byte	$36
	.byte	$CD
	.byte	$5F
	.byte	$7E
	.byte	$F3
	.byte	$DD
	.byte	$C6
	.byte	$EB
	.byte	$8E
	.byte	$A2
	.byte	$11
	.byte	$22
	.byte	$DF
	.byte	$ED
	.byte	$F8
	.byte	$F7
	.byte	$8B
	.byte	$A0
	.byte	$AC
	.byte	$8B
	.byte	$D4
	.byte	$66
	.byte	$47
	.byte	$41
	.byte	$34
	.byte	$1E
	.byte	$09
	.byte	$D3
	.byte	$D7
	.byte	$A9
	.byte	$8B
	.byte	$99
	.byte	$CF
	.byte	$76
	.byte	$FF
	.byte	$DA
	.byte	$58
	.byte	$F7
	.byte	$EB
	.byte	$64
	.byte	$32
	.byte	$B0
	.byte	$38
	.byte	$4D
	.byte	$60
	.byte	$9D
	.byte	$50
	.byte	$C9
	.byte	$5B
	.byte	$8A
	.byte	$BE
	.byte	$A5
	.byte	$2C
	.byte	$2A
	.byte	$28
	.byte	$15
	.byte	$22
	.byte	$E8
	.byte	$F6
	.byte	$3C
	.byte	$82
	.byte	$A6
	.byte	$2C
	.byte	$9A
	.byte	$9D
	.byte	$0A
	.byte	$54
	.byte	$C7
	.byte	$69
	.byte	$CE
	.byte	$FC
	.byte	$E5
	.byte	$37
	.byte	$FC
	.byte	$EF
	.byte	$75
	.byte	$18
	.byte	$8D
	.byte	$57
	.byte	$7D
	.byte	$41
	.byte	$D3
	.byte	$E9
	.byte	$BB
	.byte	$DF
	.byte	$18
	.byte	$0A
	.byte	$A2
	.byte	$AE
	.byte	$3C
	.byte	$79
	.byte	$11
	.byte	$CD
	.byte	$97
	.byte	$4F
	.byte	$E9
	.byte	$9A
	.byte	$B2
	.byte	$08
	.byte	$D5
	.byte	$C6
	.byte	$9A
	.byte	$C6
	.byte	$14
	.byte	$A6
	.byte	$D3
	.byte	$78
	.byte	$4D
	.byte	$A7
	.byte	$CF
	.byte	$FB
	.byte	$35
	.byte	$FB
	.byte	$CD
	.byte	$5F
	.byte	$7E
	.byte	$DD
	.byte	$36
	.byte	$CA
	.byte	$1F
	.byte	$47
	.byte	$75
	.byte	$F2
	.byte	$97
	.byte	$5F
	.byte	$B7
	.byte	$6D
	.byte	$E5
	.byte	$BB
	.byte	$1D
	.byte	$FF
	.byte	$7E
	.byte	$11
	.byte	$3D
	.byte	$AB
	.byte	$DB
	.byte	$7D
	.byte	$F2
	.byte	$8B
	.byte	$4A
	.byte	$FE
	.byte	$F2
	.byte	$1B
	.byte	$FE
	.byte	$EC
	.byte	$97
	.byte	$B1
	.byte	$BE
	.byte	$F4
	.byte	$4D
	.byte	$7A
	.byte	$EA
	.byte	$09
	.byte	$3A
	.byte	$26
	.byte	$67
	.byte	$68
	.byte	$2E
	.byte	$E4
	.byte	$7E
	.byte	$F0
	.byte	$BA
	.byte	$31
	.byte	$D4
	.byte	$ED
	.byte	$3E
	.byte	$F9
	.byte	$8D
	.byte	$10
	.byte	$C9
	.byte	$5F
	.byte	$7E
	.byte	$C3
	.byte	$4F
	.byte	$71
	.byte	$A5
	.byte	$61
	.byte	$F6
	.byte	$37
	.byte	$CD
	.byte	$F7
	.byte	$14
	.byte	$A1
	.byte	$28
	.byte	$45
	.byte	$43
	.byte	$8D
	.byte	$4F
	.byte	$52
	.byte	$7D
	.byte	$4A
	.byte	$17
	.byte	$1E
	.byte	$D3
	.byte	$5B
	.byte	$E9
	.byte	$E5
	.byte	$9C
	.byte	$D3
	.byte	$5C
	.byte	$74
	.byte	$9A
	.byte	$2F
	.byte	$7E
	.byte	$72
	.byte	$1A
	.byte	$9F
	.byte	$24
	.byte	$C1
	.byte	$43
	.byte	$D9
	.byte	$00
_message210:
	.byte	$F9
	.byte	$34
	.byte	$CD
	.byte	$FA
	.byte	$C6
	.byte	$21
	.byte	$19
	.byte	$57
	.byte	$01
	.byte	$FD
	.byte	$2C
	.byte	$1F
	.byte	$2E
	.byte	$00
_message211:
	.byte	$6E
	.byte	$7D
	.byte	$D5
	.byte	$09
	.byte	$35
	.byte	$3B
	.byte	$15
	.byte	$D0
	.byte	$AF
	.byte	$53
	.byte	$F9
	.byte	$A6
	.byte	$E1
	.byte	$F8
	.byte	$FD
	.byte	$58
	.byte	$6F
	.byte	$DF
	.byte	$08
	.byte	$11
	.byte	$94
	.byte	$FE
	.byte	$9D
	.byte	$8A
	.byte	$46
	.byte	$48
	.byte	$D7
	.byte	$73
	.byte	$9A
	.byte	$CC
	.byte	$D3
	.byte	$E3
	.byte	$04
	.byte	$00
_message212:
	.byte	$6E
	.byte	$08
	.byte	$10
	.byte	$F5
	.byte	$F6
	.byte	$4D
	.byte	$C3
	.byte	$F1
	.byte	$2B
	.byte	$A0
	.byte	$5F
	.byte	$BF
	.byte	$1F
	.byte	$EB
	.byte	$ED
	.byte	$1B
	.byte	$21
	.byte	$82
	.byte	$D2
	.byte	$BF
	.byte	$53
	.byte	$D1
	.byte	$08
	.byte	$E9
	.byte	$7A
	.byte	$4E
	.byte	$93
	.byte	$79
	.byte	$7A
	.byte	$9C
	.byte	$00
_message213:
	.byte	$39
	.byte	$BF
	.byte	$69
	.byte	$38
	.byte	$7E
	.byte	$41
	.byte	$74
	.byte	$79
	.byte	$E9
	.byte	$F6
	.byte	$E4
	.byte	$ED
	.byte	$30
	.byte	$1D
	.byte	$27
	.byte	$00
_message214:
	.byte	$39
	.byte	$89
	.byte	$17
	.byte	$E5
	.byte	$69
	.byte	$FA
	.byte	$6D
	.byte	$1A
	.byte	$21
	.byte	$F2
	.byte	$4D
	.byte	$C3
	.byte	$F1
	.byte	$9B
	.byte	$5E
	.byte	$BE
	.byte	$06
	.byte	$29
	.byte	$D5
	.byte	$A7
	.byte	$71
	.byte	$02
_message215:
	.byte	$79
	.byte	$1A
	.byte	$87
	.byte	$44
	.byte	$65
	.byte	$4A
	.byte	$22
	.byte	$5E
	.byte	$BD
	.byte	$75
	.byte	$3D
	.byte	$A7
	.byte	$C9
	.byte	$3C
	.byte	$3D
	.byte	$E1
	.byte	$02
_message216:
	.byte	$B9
	.byte	$F9
	.byte	$17
	.byte	$94
	.byte	$EA
	.byte	$D3
	.byte	$84
	.byte	$0B
	.byte	$00
_message217:
	.byte	$79
	.byte	$88
	.byte	$D2
	.byte	$F7
	.byte	$44
	.byte	$05
	.byte	$F4
	.byte	$EB
	.byte	$53
	.byte	$06
	.byte	$00
_message218:
	.byte	$B9
	.byte	$F9
	.byte	$17
	.byte	$34
	.byte	$0D
	.byte	$C7
	.byte	$0F
	.byte	$17
	.byte	$00
_message219:
	.byte	$B9
	.byte	$7E
	.byte	$6D
	.byte	$AC
	.byte	$20
	.byte	$2A
	.byte	$A0
	.byte	$5F
	.byte	$9F
	.byte	$32
	.byte	$00
_message220:
	.byte	$B9
	.byte	$82
	.byte	$96
	.byte	$9B
	.byte	$C6
	.byte	$AB
	.byte	$8D
	.byte	$13
	.byte	$00
_message221:
	.byte	$2E
	.byte	$D2
	.byte	$F4
	.byte	$DB
	.byte	$54
	.byte	$8E
	.byte	$0A
	.byte	$9E
	.byte	$46
	.byte	$88
	.byte	$7C
	.byte	$D3
	.byte	$70
	.byte	$FC
	.byte	$AE
	.byte	$04
	.byte	$8B
	.byte	$E8
	.byte	$06
	.byte	$EE
	.byte	$49
	.byte	$33
	.byte	$C3
	.byte	$53
	.byte	$54
	.byte	$27
	.byte	$A5
	.byte	$EF
	.byte	$49
	.byte	$B7
	.byte	$27
	.byte	$6F
	.byte	$87
	.byte	$E9
	.byte	$74
	.byte	$8D
	.byte	$EA
	.byte	$2C
	.byte	$7D
	.byte	$53
	.byte	$38
	.byte	$CD
	.byte	$39
	.byte	$5D
	.byte	$D7
	.byte	$F4
	.byte	$DB
	.byte	$AD
	.byte	$84
	.byte	$C6
	.byte	$97
	.byte	$B2
	.byte	$DF
	.byte	$87
	.byte	$D1
	.byte	$08
	.byte	$91
	.byte	$6F
	.byte	$1A
	.byte	$8E
	.byte	$DF
	.byte	$94
	.byte	$45
	.byte	$3D
	.byte	$EB
	.byte	$37
	.byte	$AF
	.byte	$7F
	.byte	$49
	.byte	$B3
	.byte	$BE
	.byte	$F1
	.byte	$1A
	.byte	$3D
	.byte	$8F
	.byte	$13
	.byte	$00
_message222:
	.byte	$39
	.byte	$BF
	.byte	$69
	.byte	$38
	.byte	$7E
	.byte	$C9
	.byte	$2F
	.byte	$7D
	.byte	$9E
	.byte	$E8
	.byte	$06
	.byte	$EE
	.byte	$49
	.byte	$A9
	.byte	$3E
	.byte	$4D
	.byte	$11
	.byte	$FB
	.byte	$AA
	.byte	$60
	.byte	$FE
	.byte	$A6
	.byte	$B1
	.byte	$7A
	.byte	$6B
	.byte	$66
	.byte	$58
	.byte	$51
	.byte	$1D
	.byte	$CB
	.byte	$4C
	.byte	$97
	.byte	$97
	.byte	$6E
	.byte	$4F
	.byte	$DE
	.byte	$0E
	.byte	$D3
	.byte	$69
	.byte	$84
	.byte	$74
	.byte	$BB
	.byte	$B7
	.byte	$E9
	.byte	$59
	.byte	$06
	.byte	$7C
	.byte	$C3
	.byte	$70
	.byte	$02
_message223:
	.byte	$14
	.byte	$AE
	.byte	$E9
	.byte	$E5
	.byte	$9A
	.byte	$C6
	.byte	$BA
	.byte	$3F
	.byte	$96
	.byte	$F2
	.byte	$7D
	.byte	$E9
	.byte	$F3
	.byte	$44
	.byte	$37
	.byte	$70
	.byte	$E5
	.byte	$9B
	.byte	$86
	.byte	$E3
	.byte	$3B
	.byte	$01
_message224:
	.byte	$AE
	.byte	$79
	.byte	$C8
	.byte	$EB
	.byte	$77
	.byte	$25
	.byte	$58
	.byte	$04
	.byte	$A3
	.byte	$FB
	.byte	$37
	.byte	$7D
	.byte	$BC
	.byte	$EE
	.byte	$2F
	.byte	$BF
	.byte	$C3
	.byte	$14
	.byte	$45
	.byte	$F5
	.byte	$BA
	.byte	$B6
	.byte	$4F
	.byte	$29
	.byte	$7B
	.byte	$95
	.byte	$AF
	.byte	$62
	.byte	$E9
	.byte	$53
	.byte	$36
	.byte	$0C
	.byte	$D7
	.byte	$7D
	.byte	$58
	.byte	$C7
	.byte	$09
	.byte	$00
_message225:
	.byte	$B9
	.byte	$DF
	.byte	$CF
	.byte	$35
	.byte	$33
	.byte	$BC
	.byte	$D0
	.byte	$DB
	.byte	$B7
	.byte	$4B
	.byte	$E9
	.byte	$59
	.byte	$2F
	.byte	$5C
	.byte	$73
	.byte	$8C
	.byte	$35
	.byte	$31
	.byte	$E2
	.byte	$74
	.byte	$DD
	.byte	$D7
	.byte	$DB
	.byte	$77
	.byte	$8D
	.byte	$78
	.byte	$F7
	.byte	$1B
	.byte	$83
	.byte	$13
	.byte	$00
_message226:
	.byte	$14
	.byte	$AE
	.byte	$CF
	.byte	$FC
	.byte	$FB
	.byte	$76
	.byte	$29
	.byte	$7B
	.byte	$5D
	.byte	$5E
	.byte	$E4
	.byte	$9B
	.byte	$86
	.byte	$E3
	.byte	$37
	.byte	$CD
	.byte	$8E
	.byte	$7A
	.byte	$FB
	.byte	$AE
	.byte	$74
	.byte	$FB
	.byte	$7E
	.byte	$4F
	.byte	$19
	.byte	$00
_message227:
	.byte	$61
	.byte	$77
	.byte	$DD
	.byte	$CE
	.byte	$13
	.byte	$DD
	.byte	$18
	.byte	$E9
	.byte	$D6
	.byte	$38
	.byte	$75
	.byte	$65
	.byte	$48
	.byte	$34
	.byte	$82
	.byte	$9C
	.byte	$AE
	.byte	$04
	.byte	$8B
	.byte	$60
	.byte	$84
	.byte	$0B
	.byte	$00
_message228:
	.byte	$2E
	.byte	$B4
	.byte	$0D
	.byte	$5F
	.byte	$4F
	.byte	$1A
	.byte	$8F
	.byte	$3C
	.byte	$E8
	.byte	$14
	.byte	$5D
	.byte	$2F
	.byte	$D7
	.byte	$E5
	.byte	$BB
	.byte	$81
	.byte	$7B
	.byte	$A5
	.byte	$F9
	.byte	$E3
	.byte	$D9
	.byte	$75
	.byte	$87
	.byte	$BE
	.byte	$C8
	.byte	$A5
	.byte	$73
	.byte	$EA
	.byte	$22
	.byte	$65
	.byte	$BF
	.byte	$0F
	.byte	$A3
	.byte	$11
	.byte	$57
	.byte	$F5
	.byte	$73
	.byte	$DD
	.byte	$7E
	.byte	$AD
	.byte	$2B
	.byte	$DF
	.byte	$4E
	.byte	$9D
	.byte	$9D
	.byte	$FA
	.byte	$DD
	.byte	$C0
	.byte	$3D
	.byte	$E9
	.byte	$EE
	.byte	$17
	.byte	$C6
	.byte	$09
	.byte	$00
_message229:
	.byte	$6E
	.byte	$C6
	.byte	$BA
	.byte	$FD
	.byte	$5A
	.byte	$53
	.byte	$12
	.byte	$32
	.byte	$09
	.byte	$5D
	.byte	$09
	.byte	$16
	.byte	$AF
	.byte	$F4
	.byte	$79
	.byte	$A2
	.byte	$1B
	.byte	$B8
	.byte	$82
	.byte	$AE
	.byte	$F4
	.byte	$02
	.byte	$27
	.byte	$00
_message230:
	.byte	$6E
	.byte	$FD
	.byte	$AB
	.byte	$B7
	.byte	$D2
	.byte	$FC
	.byte	$56
	.byte	$72
	.byte	$64
	.byte	$4A
	.byte	$9F
	.byte	$27
	.byte	$1A
	.byte	$5F
	.byte	$E4
	.byte	$4B
	.byte	$7D
	.byte	$49
	.byte	$63
	.byte	$AF
	.byte	$5F
	.byte	$34
	.byte	$8D
	.byte	$D5
	.byte	$5B
	.byte	$75
	.byte	$2C
	.byte	$33
	.byte	$D5
	.byte	$EB
	.byte	$53
	.byte	$A9
	.byte	$AF
	.byte	$7A
	.byte	$DD
	.byte	$B0
	.byte	$DE
	.byte	$14
	.byte	$3B
	.byte	$4C
	.byte	$D1
	.byte	$E5
	.byte	$A5
	.byte	$DB
	.byte	$93
	.byte	$B7
	.byte	$C3
	.byte	$74
	.byte	$9C
	.byte	$86
	.byte	$E1
	.byte	$BA
	.byte	$0F
	.byte	$EB
	.byte	$38
	.byte	$01
_message231:
	.byte	$6E
	.byte	$C6
	.byte	$EA
	.byte	$AD
	.byte	$D4
	.byte	$17
	.byte	$F7
	.byte	$69
	.byte	$BC
	.byte	$7A
	.byte	$23
	.byte	$9E
	.byte	$3E
	.byte	$39
	.byte	$7D
	.byte	$A2
	.byte	$67
	.byte	$6B
	.byte	$D6
	.byte	$06
	.byte	$D5
	.byte	$A7
	.byte	$9E
	.byte	$A0
	.byte	$67
	.byte	$F5
	.byte	$36
	.byte	$5D
	.byte	$EA
	.byte	$E3
	.byte	$CD
	.byte	$9A
	.byte	$46
	.byte	$88
	.byte	$10
	.byte	$6F
	.byte	$7A
	.byte	$69
	.byte	$9A
	.byte	$87
	.byte	$3E
	.byte	$D5
	.byte	$09
	.byte	$55
	.byte	$AF
	.byte	$F2
	.byte	$96
	.byte	$AE
	.byte	$06
	.byte	$29
	.byte	$E9
	.byte	$47
	.byte	$A7
	.byte	$88
	.byte	$7D
	.byte	$55
	.byte	$30
	.byte	$5F
	.byte	$97
	.byte	$97
	.byte	$CA
	.byte	$EF
	.byte	$DB
	.byte	$C7
	.byte	$E7
	.byte	$1B
	.byte	$A7
	.byte	$F9
	.byte	$82
	.byte	$35
	.byte	$F3
	.byte	$AA
	.byte	$43
	.byte	$19
	.byte	$00
_message232:
	.byte	$F9
	.byte	$A4
	.byte	$F4
	.byte	$0C
	.byte	$77
	.byte	$F7
	.byte	$6B
	.byte	$1C
	.byte	$49
	.byte	$D8
	.byte	$61
	.byte	$8A
	.byte	$E6
	.byte	$EB
	.byte	$97
	.byte	$42
	.byte	$43
	.byte	$95
	.byte	$2F
	.byte	$FD
	.byte	$AA
	.byte	$DF
	.byte	$08
	.byte	$E9
	.byte	$C6
	.byte	$93
	.byte	$C1
	.byte	$5A
	.byte	$C3
	.byte	$08
	.byte	$15
	.byte	$15
	.byte	$5C
	.byte	$F5
	.byte	$CA
	.byte	$97
	.byte	$7E
	.byte	$A7
	.byte	$DE
	.byte	$37
	.byte	$F3
	.byte	$09
	.byte	$16
	.byte	$A7
	.byte	$82
	.byte	$66
	.byte	$FC
	.byte	$7A
	.byte	$27
	.byte	$00
_message233:
	.byte	$61
	.byte	$68
	.byte	$1A
	.byte	$AB
	.byte	$3E
	.byte	$2D
	.byte	$F7
	.byte	$95
	.byte	$6F
	.byte	$1A
	.byte	$8E
	.byte	$DF
	.byte	$33
	.byte	$85
	.byte	$C5
	.byte	$EB
	.byte	$4A
	.byte	$BF
	.byte	$6D
	.byte	$CF
	.byte	$08
	.byte	$D5
	.byte	$C6
	.byte	$9A
	.byte	$18
	.byte	$71
	.byte	$BA
	.byte	$EE
	.byte	$2B
	.byte	$DF
	.byte	$34
	.byte	$EB
	.byte	$4B
	.byte	$9F
	.byte	$5F
	.byte	$FA
	.byte	$8D
	.byte	$DF
	.byte	$CC
	.byte	$33
	.byte	$9C
	.byte	$E6
	.byte	$63
	.byte	$76
	.byte	$8D
	.byte	$D7
	.byte	$A5
	.byte	$3E
	.byte	$DE
	.byte	$84
	.byte	$1A
	.byte	$AF
	.byte	$DB
	.byte	$28
	.byte	$D6
	.byte	$85
	.byte	$1A
	.byte	$AF
	.byte	$7C
	.byte	$09
	.byte	$9C
	.byte	$B2
	.byte	$28
	.byte	$BA
	.byte	$CD
	.byte	$85
	.byte	$EA
	.byte	$ED
	.byte	$4B
	.byte	$8E
	.byte	$E8
	.byte	$97
	.byte	$BC
	.byte	$74
	.byte	$36
	.byte	$7D
	.byte	$91
	.byte	$EF
	.byte	$0E
	.byte	$FD
	.byte	$50
	.byte	$49
	.byte	$3F
	.byte	$D7
	.byte	$8C
	.byte	$A7
	.byte	$E9
	.byte	$63
	.byte	$84
	.byte	$6B
	.byte	$AE
	.byte	$DF
	.byte	$CC
	.byte	$F0
	.byte	$42
	.byte	$CF
	.byte	$14
	.byte	$16
	.byte	$41
	.byte	$5E
	.byte	$F5
	.byte	$69
	.byte	$B9
	.byte	$AF
	.byte	$7C
	.byte	$D3
	.byte	$70
	.byte	$FC
	.byte	$9E
	.byte	$75
	.byte	$9F
	.byte	$38
	.byte	$15
	.byte	$A8
	.byte	$82
	.byte	$5F
	.byte	$E0
	.byte	$34
	.byte	$C7
	.byte	$84
	.byte	$2A
	.byte	$BF
	.byte	$D2
	.byte	$7D
	.byte	$37
	.byte	$70
	.byte	$04
	.byte	$23
	.byte	$54
	.byte	$7D
	.byte	$5A
	.byte	$EE
	.byte	$19
	.byte	$95
	.byte	$6F
	.byte	$1A
	.byte	$8E
	.byte	$1F
	.byte	$EA
	.byte	$F4
	.byte	$45
	.byte	$19
	.byte	$4D
	.byte	$B3
	.byte	$D0
	.byte	$85
	.byte	$6E
	.byte	$E0
	.byte	$E6
	.byte	$F5
	.byte	$58
	.byte	$3A
	.byte	$A1
	.byte	$DA
	.byte	$58
	.byte	$F5
	.byte	$0A
	.byte	$A2
	.byte	$F1
	.byte	$6A
	.byte	$58
	.byte	$CB
	.byte	$5B
	.byte	$FF
	.byte	$BC
	.byte	$0E
	.byte	$65
	.byte	$00
_message234:
	.byte	$AE
	.byte	$5C
	.byte	$D3
	.byte	$AC
	.byte	$6F
	.byte	$1C
	.byte	$92
	.byte	$71
	.byte	$95
	.byte	$A3
	.byte	$82
	.byte	$9F
	.byte	$F7
	.byte	$0B
	.byte	$17
	.byte	$00
_message235:
	.byte	$6E
	.byte	$66
	.byte	$7D
	.byte	$E3
	.byte	$90
	.byte	$8C
	.byte	$EB
	.byte	$C6
	.byte	$B0
	.byte	$08
	.byte	$46
	.byte	$B8
	.byte	$00
_message236:
	.byte	$F9
	.byte	$C4
	.byte	$7A
	.byte	$FB
	.byte	$BE
	.byte	$2A
	.byte	$4C
	.byte	$BF
	.byte	$6F
	.byte	$2F
	.byte	$B7
	.byte	$2E
	.byte	$D4
	.byte	$85
	.byte	$9D
	.byte	$CA
	.byte	$DF
	.byte	$94
	.byte	$45
	.byte	$97
	.byte	$AF
	.byte	$B7
	.byte	$69
	.byte	$C4
	.byte	$35
	.byte	$F1
	.byte	$2D
	.byte	$7D
	.byte	$91
	.byte	$6B
	.byte	$84
	.byte	$54
	.byte	$7E
	.byte	$DF
	.byte	$3E
	.byte	$3E
	.byte	$DF
	.byte	$34
	.byte	$5D
	.byte	$D7
	.byte	$7D
	.byte	$57
	.byte	$E2
	.byte	$53
	.byte	$9D
	.byte	$E6
	.byte	$F5
	.byte	$2F
	.byte	$69
	.byte	$D6
	.byte	$3B
	.byte	$01
_message237:
	.byte	$AE
	.byte	$19
	.byte	$24
	.byte	$E2
	.byte	$F5
	.byte	$A4
	.byte	$19
	.byte	$AF
	.byte	$9E
	.byte	$27
	.byte	$5C
	.byte	$00
_message238:
	.byte	$F9
	.byte	$C1
	.byte	$EF
	.byte	$7E
	.byte	$E8
	.byte	$5F
	.byte	$F7
	.byte	$C3
	.byte	$75
	.byte	$A9
	.byte	$8F
	.byte	$57
	.byte	$3E
	.byte	$AC
	.byte	$34
	.byte	$FD
	.byte	$0A
	.byte	$68
	.byte	$1A
	.byte	$8C
	.byte	$5E
	.byte	$69
	.byte	$F0
	.byte	$D0
	.byte	$72
	.byte	$99
	.byte	$4B
	.byte	$57
	.byte	$C7
	.byte	$71
	.byte	$EA
	.byte	$AA
	.byte	$B9
	.byte	$AD
	.byte	$6E
	.byte	$4B
	.byte	$78
	.byte	$34
	.byte	$76
	.byte	$8F
	.byte	$6E
	.byte	$A7
	.byte	$E1
	.byte	$11
	.byte	$AB
	.byte	$CB
	.byte	$6E
	.byte	$14
	.byte	$9F
	.byte	$9F
	.byte	$44
	.byte	$DD
	.byte	$56
	.byte	$B7
	.byte	$25
	.byte	$DF
	.byte	$C9
	.byte	$34
	.byte	$17
	.byte	$C2
	.byte	$3B
	.byte	$17
	.byte	$EB
	.byte	$76
	.byte	$37
	.byte	$47
	.byte	$29
	.byte	$3E
	.byte	$CC
	.byte	$ED
	.byte	$38
	.byte	$5A
	.byte	$C7
	.byte	$71
	.byte	$EA
	.byte	$AA
	.byte	$E5
	.byte	$FA
	.byte	$05
	.byte	$51
	.byte	$6F
	.byte	$C4
	.byte	$19
	.byte	$39
	.byte	$E9
	.byte	$DD
	.byte	$6F
	.byte	$0C
	.byte	$A1
	.byte	$2E
	.byte	$EC
	.byte	$54
	.byte	$FE
	.byte	$7A
	.byte	$FB
	.byte	$66
	.byte	$86
	.byte	$77
	.byte	$2F
	.byte	$DF
	.byte	$78
	.byte	$F5
	.byte	$56
	.byte	$3E
	.byte	$1D
	.byte	$A7
	.byte	$F9
	.byte	$9F
	.byte	$2A
	.byte	$0F
	.byte	$F9
	.byte	$3A
	.byte	$15
	.byte	$E2
	.byte	$8C
	.byte	$9C
	.byte	$F4
	.byte	$EE
	.byte	$37
	.byte	$86
	.byte	$6E
	.byte	$E0
	.byte	$9E
	.byte	$94
	.byte	$4F
	.byte	$A7
	.byte	$F1
	.byte	$9A
	.byte	$FC
	.byte	$75
	.byte	$7B
	.byte	$96
	.byte	$27
	.byte	$BF
	.byte	$FB
	.byte	$4D
	.byte	$B7
	.byte	$8F
	.byte	$8C
	.byte	$1A
	.byte	$AE
	.byte	$CB
	.byte	$CF
	.byte	$75
	.byte	$25
	.byte	$3E
	.byte	$D5
	.byte	$A3
	.byte	$0C
	.byte	$00
_message239:
	.byte	$39
	.byte	$20
	.byte	$F2
	.byte	$55
	.byte	$A4
	.byte	$2F
	.byte	$88
	.byte	$6E
	.byte	$8C
	.byte	$05
	.byte	$53
	.byte	$54
	.byte	$BE
	.byte	$3A
	.byte	$9C
	.byte	$EE
	.byte	$EB
	.byte	$D7
	.byte	$EB
	.byte	$37
	.byte	$7E
	.byte	$D5
	.byte	$4F
	.byte	$B7
	.byte	$8F
	.byte	$8C
	.byte	$1A
	.byte	$44
	.byte	$08
	.byte	$AC
	.byte	$4D
	.byte	$86
	.byte	$DF
	.byte	$FD
	.byte	$C6
	.byte	$D0
	.byte	$08
	.byte	$91
	.byte	$AF
	.byte	$EB
	.byte	$E3
	.byte	$DF
	.byte	$2F
	.byte	$A2
	.byte	$F1
	.byte	$EA
	.byte	$E2
	.byte	$CD
	.byte	$7C
	.byte	$D6
	.byte	$09
	.byte	$00
_message240:
	.byte	$39
	.byte	$BF
	.byte	$8A
	.byte	$F4
	.byte	$CD
	.byte	$7E
	.byte	$4F
	.byte	$4A
	.byte	$42
	.byte	$79
	.byte	$CA
	.byte	$A3
	.byte	$3A
	.byte	$4E
	.byte	$00
_message241:
	.byte	$6E
	.byte	$66
	.byte	$47
	.byte	$33
	.byte	$9F
	.byte	$D2
	.byte	$4D
	.byte	$A8
	.byte	$DB
	.byte	$AF
	.byte	$35
	.byte	$7D
	.byte	$55
	.byte	$7E
	.byte	$12
	.byte	$BC
	.byte	$A6
	.byte	$27
	.byte	$25
	.byte	$A1
	.byte	$3C
	.byte	$E1
	.byte	$02
_message242:
	.byte	$E1
	.byte	$B3
	.byte	$A6
	.byte	$91
	.byte	$6D
	.byte	$4A
	.byte	$85
	.byte	$F5
	.byte	$D7
	.byte	$C2
	.byte	$D2
	.byte	$D7
	.byte	$69
	.byte	$E6
	.byte	$7B
	.byte	$D6
	.byte	$FD
	.byte	$44
	.byte	$D0
	.byte	$0D
	.byte	$EE
	.byte	$EE
	.byte	$D7
	.byte	$93
	.byte	$92
	.byte	$50
	.byte	$9E
	.byte	$46
	.byte	$88
	.byte	$7C
	.byte	$15
	.byte	$E9
	.byte	$9D
	.byte	$00
_message243:
	.byte	$39
	.byte	$BF
	.byte	$8A
	.byte	$F4
	.byte	$05
	.byte	$51
	.byte	$FA
	.byte	$9E
	.byte	$28
	.byte	$8F
	.byte	$EA
	.byte	$53
	.byte	$06
	.byte	$00
_message244:
	.byte	$2E
	.byte	$B6
	.byte	$C0
	.byte	$B7
	.byte	$D2
	.byte	$55
	.byte	$50
	.byte	$EA
	.byte	$AB
	.byte	$82
	.byte	$0F
	.byte	$35
	.byte	$88
	.byte	$7C
	.byte	$75
	.byte	$38
	.byte	$DD
	.byte	$17
	.byte	$CD
	.byte	$EB
	.byte	$B1
	.byte	$F4
	.byte	$43
	.byte	$CD
	.byte	$EB
	.byte	$7F
	.byte	$5D
	.byte	$F7
	.byte	$E3
	.byte	$4F
	.byte	$23
	.byte	$B3
	.byte	$7E
	.byte	$87
	.byte	$29
	.byte	$1A
	.byte	$67
	.byte	$9B
	.byte	$EA
	.byte	$9B
	.byte	$5E
	.byte	$DF
	.byte	$EC
	.byte	$42
	.byte	$5D
	.byte	$D7
	.byte	$4F
	.byte	$09
	.byte	$16
	.byte	$E1
	.byte	$94
	.byte	$82
	.byte	$57
	.byte	$7D
	.byte	$F2
	.byte	$BE
	.byte	$42
	.byte	$9C
	.byte	$29
	.byte	$98
	.byte	$BD
	.byte	$EA
	.byte	$30
	.byte	$0A
	.byte	$A2
	.byte	$67
	.byte	$E9
	.byte	$97
	.byte	$F2
	.byte	$EB
	.byte	$14
	.byte	$B5
	.byte	$B1
	.byte	$6E
	.byte	$7E
	.byte	$AE
	.byte	$DB
	.byte	$79
	.byte	$A2
	.byte	$6B
	.byte	$03
	.byte	$6D
	.byte	$60
	.byte	$79
	.byte	$27
	.byte	$00
_message245:
	.byte	$79
	.byte	$1A
	.byte	$87
	.byte	$44
	.byte	$E3
	.byte	$90
	.byte	$8C
	.byte	$EB
	.byte	$0E
	.byte	$55
	.byte	$B0
	.byte	$20
	.byte	$5C
	.byte	$73
	.byte	$E4
	.byte	$8E
	.byte	$B2
	.byte	$39
	.byte	$C6
	.byte	$8A
	.byte	$B5
	.byte	$C0
	.byte	$E8
	.byte	$4A
	.byte	$9E
	.byte	$F9
	.byte	$04
	.byte	$94
	.byte	$01
_message246:
	.byte	$B9
	.byte	$82
	.byte	$96
	.byte	$9B
	.byte	$CA
	.byte	$AF
	.byte	$74
	.byte	$CF
	.byte	$A8
	.byte	$7C
	.byte	$75
	.byte	$38
	.byte	$DD
	.byte	$F7
	.byte	$53
	.byte	$C2
	.byte	$FA
	.byte	$50
	.byte	$F5
	.byte	$4D
	.byte	$A7
	.byte	$82
	.byte	$52
	.byte	$5F
	.byte	$15
	.byte	$7C
	.byte	$E8
	.byte	$1A
	.byte	$9B
	.byte	$7E
	.byte	$C5
	.byte	$1B
	.byte	$FD
	.byte	$8D
	.byte	$9E
	.byte	$5F
	.byte	$BF
	.byte	$A8
	.byte	$FA
	.byte	$66
	.byte	$FF
	.byte	$AA
	.byte	$D8
	.byte	$B7
	.byte	$E9
	.byte	$1A
	.byte	$99
	.byte	$66
	.byte	$CE
	.byte	$A6
	.byte	$DF
	.byte	$38
	.byte	$FB
	.byte	$DB
	.byte	$75
	.byte	$7F
	.byte	$D5
	.byte	$B3
	.byte	$A7
	.byte	$0C
	.byte	$00
_message247:
	.byte	$2E
	.byte	$D2
	.byte	$BC
	.byte	$FE
	.byte	$23
	.byte	$4F
	.byte	$21
	.byte	$50
	.byte	$E5
	.byte	$4B
	.byte	$53
	.byte	$10
	.byte	$F5
	.byte	$D6
	.byte	$CC
	.byte	$F0
	.byte	$FE
	.byte	$CD
	.byte	$BD
	.byte	$A6
	.byte	$B1
	.byte	$EA
	.byte	$9B
	.byte	$A2
	.byte	$99
	.byte	$13
	.byte	$34
	.byte	$5E
	.byte	$CF
	.byte	$14
	.byte	$CC
	.byte	$5E
	.byte	$75
	.byte	$F8
	.byte	$0A
	.byte	$BD
	.byte	$94
	.byte	$85
	.byte	$EA
	.byte	$EB
	.byte	$39
	.byte	$CD
	.byte	$43
	.byte	$34
	.byte	$65
	.byte	$EF
	.byte	$F9
	.byte	$77
	.byte	$98
	.byte	$A2
	.byte	$42
	.byte	$0C
	.byte	$4D
	.byte	$43
	.byte	$75
	.byte	$9A
	.byte	$B2
	.byte	$68
	.byte	$9A
	.byte	$FD
	.byte	$2D
	.byte	$7E
	.byte	$D5
	.byte	$AB
	.byte	$7E
	.byte	$85
	.byte	$38
	.byte	$11
	.byte	$BF
	.byte	$9F
	.byte	$BD
	.byte	$FB
	.byte	$8D
	.byte	$A1
	.byte	$11
	.byte	$D2
	.byte	$DD
	.byte	$2F
	.byte	$8C
	.byte	$D3
	.byte	$9C
	.byte	$D3
	.byte	$B5
	.byte	$0D
	.byte	$2B
	.byte	$44
	.byte	$A6
	.byte	$F1
	.byte	$4A
	.byte	$42
	.byte	$79
	.byte	$9A
	.byte	$B2
	.byte	$A8
	.byte	$4C
	.byte	$53
	.byte	$F6
	.byte	$7C
	.byte	$44
	.byte	$D7
	.byte	$75
	.byte	$F3
	.byte	$43
	.byte	$F4
	.byte	$37
	.byte	$3E
	.byte	$46
	.byte	$D7
	.byte	$C8
	.byte	$34
	.byte	$8D
	.byte	$D5
	.byte	$DB
	.byte	$37
	.byte	$65
	.byte	$EF
	.byte	$49
	.byte	$74
	.byte	$6D
	.byte	$48
	.byte	$F7
	.byte	$02
	.byte	$27
	.byte	$00
_message248:
	.byte	$79
	.byte	$88
	.byte	$7A
	.byte	$AB
	.byte	$0D
	.byte	$EF
	.byte	$2F
	.byte	$B7
	.byte	$D6
	.byte	$ED
	.byte	$D3
	.byte	$05
	.byte	$DA
	.byte	$5E
	.byte	$D0
	.byte	$78
	.byte	$8D
	.byte	$47
	.byte	$1E
	.byte	$74
	.byte	$1A
	.byte	$AF
	.byte	$9F
	.byte	$12
	.byte	$D6
	.byte	$9A
	.byte	$50
	.byte	$BD
	.byte	$35
	.byte	$DE
	.byte	$4A
	.byte	$53
	.byte	$9E
	.byte	$B5
	.byte	$A6
	.byte	$69
	.byte	$AC
	.byte	$D4
	.byte	$67
	.byte	$FE
	.byte	$52
	.byte	$EF
	.byte	$2D
	.byte	$7D
	.byte	$87
	.byte	$CF
	.byte	$DD
	.byte	$7D
	.byte	$4C
	.byte	$5F
	.byte	$E0
	.byte	$04
	.byte	$00
_message249:
	.byte	$B9
	.byte	$79
	.byte	$2C
	.byte	$BD
	.byte	$D2
	.byte	$E0
	.byte	$A1
	.byte	$E5
	.byte	$32
	.byte	$97
	.byte	$AE
	.byte	$6B
	.byte	$6C
	.byte	$BA
	.byte	$F4
	.byte	$F5
	.byte	$3A
	.byte	$34
	.byte	$0D
	.byte	$D5
	.byte	$69
	.byte	$C4
	.byte	$55
	.byte	$FD
	.byte	$5C
	.byte	$97
	.byte	$FA
	.byte	$78
	.byte	$DD
	.byte	$C0
	.byte	$7D
	.byte	$B3
	.byte	$2B
	.byte	$2A
	.byte	$D7
	.byte	$EC
	.byte	$5F
	.byte	$D5
	.byte	$AB
	.byte	$5E
	.byte	$05
	.byte	$AA
	.byte	$17
	.byte	$AA
	.byte	$F2
	.byte	$C7
	.byte	$51
	.byte	$BD
	.byte	$22
	.byte	$F6
	.byte	$F6
	.byte	$ED
	.byte	$F9
	.byte	$F5
	.byte	$FA
	.byte	$DD
	.byte	$B1
	.byte	$0F
	.byte	$DF
	.byte	$3B
	.byte	$CD
	.byte	$31
	.byte	$56
	.byte	$10
	.byte	$3D
	.byte	$69
	.byte	$FA
	.byte	$35
	.byte	$8D
	.byte	$57
	.byte	$BE
	.byte	$34
	.byte	$FB
	.byte	$59
	.byte	$BA
	.byte	$67
	.byte	$50
	.byte	$06
	.byte	$00
_message250:
	.byte	$B9
	.byte	$F9
	.byte	$97
	.byte	$2B
	.byte	$0D
	.byte	$1E
	.byte	$5A
	.byte	$2E
	.byte	$73
	.byte	$E9
	.byte	$C2
	.byte	$05
	.byte	$00
_message251:
	.byte	$F9
	.byte	$FA
	.byte	$A5
	.byte	$D0
	.byte	$50
	.byte	$E5
	.byte	$4B
	.byte	$BF
	.byte	$EA
	.byte	$87
	.byte	$6A
	.byte	$63
	.byte	$FD
	.byte	$FD
	.byte	$8B
	.byte	$B5
	.byte	$C0
	.byte	$E8
	.byte	$C6
	.byte	$58
	.byte	$DF
	.byte	$B3
	.byte	$52
	.byte	$F9
	.byte	$53
	.byte	$BA
	.byte	$71
	.byte	$1A
	.byte	$F6
	.byte	$FC
	.byte	$44
	.byte	$05
	.byte	$D7
	.byte	$EF
	.byte	$02
	.byte	$ED
	.byte	$8F
	.byte	$F5
	.byte	$9A
	.byte	$41
	.byte	$84
	.byte	$EC
	.byte	$30
	.byte	$85
	.byte	$13
	.byte	$00
_message252:
	.byte	$61
	.byte	$D8
	.byte	$A9
	.byte	$FC
	.byte	$C5
	.byte	$5A
	.byte	$E0
	.byte	$74
	.byte	$5D
	.byte	$89
	.byte	$4F
	.byte	$75
	.byte	$9A
	.byte	$D7
	.byte	$BF
	.byte	$A4
	.byte	$59
	.byte	$4F
	.byte	$19
	.byte	$00
_message253:
	.byte	$39
	.byte	$C6
	.byte	$6A
	.byte	$A3
	.byte	$53
	.byte	$F3
	.byte	$22
	.byte	$DF
	.byte	$78
	.byte	$5D
	.byte	$1B
	.byte	$D2
	.byte	$BD
	.byte	$C0
	.byte	$09
	.byte	$00
_message254:
	.byte	$6E
	.byte	$08
	.byte	$10
	.byte	$F5
	.byte	$D6
	.byte	$CC
	.byte	$F0
	.byte	$D4
	.byte	$20
	.byte	$DD
	.byte	$3D
	.byte	$4F
	.byte	$3F
	.byte	$16
	.byte	$4B
	.byte	$9D
	.byte	$00
_message255:
	.byte	$E1
	.byte	$B3
	.byte	$C2
	.byte	$86
	.byte	$77
	.byte	$94
	.byte	$4F
	.byte	$F9
	.byte	$55
	.byte	$A7
	.byte	$F1
	.byte	$AA
	.byte	$7E
	.byte	$BA
	.byte	$7D
	.byte	$64
	.byte	$34
	.byte	$CD
	.byte	$C6
	.byte	$68
	.byte	$5E
	.byte	$FF
	.byte	$EB
	.byte	$AA
	.byte	$5E
	.byte	$F5
	.byte	$2B
	.byte	$DF
	.byte	$ED
	.byte	$19
	.byte	$8A
	.byte	$62
	.byte	$A9
	.byte	$13
	.byte	$00
_message256:
	.byte	$6E
	.byte	$C6
	.byte	$BA
	.byte	$8F
	.byte	$E8
	.byte	$37
	.byte	$BD
	.byte	$57
	.byte	$C8
	.byte	$57
	.byte	$87
	.byte	$96
	.byte	$EB
	.byte	$49
	.byte	$F9
	.byte	$94
	.byte	$5F
	.byte	$75
	.byte	$1A
	.byte	$5F
	.byte	$BA
	.byte	$7B
	.byte	$9E
	.byte	$A2
	.byte	$32
	.byte	$FD
	.byte	$6D
	.byte	$1B
	.byte	$9A
	.byte	$BE
	.byte	$BE
	.byte	$74
	.byte	$7B
	.byte	$F2
	.byte	$76
	.byte	$98
	.byte	$8E
	.byte	$13
	.byte	$00
_message257:
	.byte	$39
	.byte	$7F
	.byte	$A5
	.byte	$7B
	.byte	$99
	.byte	$C6
	.byte	$21
	.byte	$09
	.byte	$10
	.byte	$94
	.byte	$01
_message258:
	.byte	$6E
	.byte	$C6
	.byte	$9A
	.byte	$66
	.byte	$7D
	.byte	$65
	.byte	$9A
	.byte	$66
	.byte	$E3
	.byte	$09
	.byte	$17
	.byte	$00
_message259:
	.byte	$39
	.byte	$A7
	.byte	$6B
	.byte	$43
	.byte	$4A
	.byte	$D9
	.byte	$9B
	.byte	$82
	.byte	$A8
	.byte	$8E
	.byte	$BE
	.byte	$EC
	.byte	$30
	.byte	$45
	.byte	$F9
	.byte	$D2
	.byte	$6C
	.byte	$60
	.byte	$9D
	.byte	$C6
	.byte	$97
	.byte	$DA
	.byte	$2F
	.byte	$E5
	.byte	$71
	.byte	$02
_message260:
	.byte	$39
	.byte	$A7
	.byte	$6B
	.byte	$43
	.byte	$4A
	.byte	$D9
	.byte	$9B
	.byte	$82
	.byte	$28
	.byte	$7D
	.byte	$4F
	.byte	$34
	.byte	$CD
	.byte	$06
	.byte	$D6
	.byte	$69
	.byte	$BC
	.byte	$DA
	.byte	$2F
	.byte	$E5
	.byte	$71
	.byte	$02
_message261:
	.byte	$14
	.byte	$AE
	.byte	$FB
	.byte	$5B
	.byte	$FA
	.byte	$E6
	.byte	$F5
	.byte	$2F
	.byte	$69
	.byte	$D6
	.byte	$D7
	.byte	$71
	.byte	$9C
	.byte	$00
_message262:
	.byte	$2E
	.byte	$CD
	.byte	$F0
	.byte	$EF
	.byte	$3B
	.byte	$4C
	.byte	$AF
	.byte	$F1
	.byte	$4A
	.byte	$42
	.byte	$79
	.byte	$BA
	.byte	$C6
	.byte	$A6
	.byte	$FB
	.byte	$88
	.byte	$4E
	.byte	$F5
	.byte	$69
	.byte	$39
	.byte	$98
	.byte	$5E
	.byte	$51
	.byte	$BD
	.byte	$66
	.byte	$DE
	.byte	$6C
	.byte	$7A
	.byte	$D6
	.byte	$FD
	.byte	$44
	.byte	$D0
	.byte	$0D
	.byte	$EE
	.byte	$EE
	.byte	$E7
	.byte	$34
	.byte	$0F
	.byte	$51
	.byte	$6F
	.byte	$DF
	.byte	$7D
	.byte	$58
	.byte	$D1
	.byte	$61
	.byte	$86
	.byte	$C5
	.byte	$77
	.byte	$5C
	.byte	$0D
	.byte	$AF
	.byte	$00
_message263:
	.byte	$39
	.byte	$A7
	.byte	$6B
	.byte	$43
	.byte	$4A
	.byte	$D9
	.byte	$9B
	.byte	$AE
	.byte	$2B
	.byte	$CF
	.byte	$BE
	.byte	$A1
	.byte	$FB
	.byte	$F7
	.byte	$9A
	.byte	$E1
	.byte	$DF
	.byte	$77
	.byte	$98
	.byte	$5E
	.byte	$A8
	.byte	$0A
	.byte	$F3
	.byte	$7A
	.byte	$3D
	.byte	$5B
	.byte	$87
	.byte	$1D
	.byte	$8D
	.byte	$2F
	.byte	$B5
	.byte	$5F
	.byte	$CA
	.byte	$13
	.byte	$EA
	.byte	$BA
	.byte	$46
	.byte	$6C
	.byte	$B3
	.byte	$4E
	.byte	$DF
	.byte	$A6
	.byte	$5F
	.byte	$05
	.byte	$F3
	.byte	$77
	.byte	$C1
	.byte	$DC
	.byte	$BF
	.byte	$1B
	.byte	$0F
	.byte	$39
	.byte	$E9
	.byte	$19
	.byte	$CD
	.byte	$05
	.byte	$74
	.byte	$E3
	.byte	$21
	.byte	$27
	.byte	$3D
	.byte	$EB
	.byte	$E5
	.byte	$62
	.byte	$E3
	.byte	$9B
	.byte	$9D
	.byte	$13
	.byte	$00
_message264:
	.byte	$6E
	.byte	$08
	.byte	$10
	.byte	$F5
	.byte	$D6
	.byte	$ED
	.byte	$D7
	.byte	$7A
	.byte	$9A
	.byte	$BE
	.byte	$E9
	.byte	$C7
	.byte	$0E
	.byte	$89
	.byte	$A5
	.byte	$A1
	.byte	$C6
	.byte	$21
	.byte	$D1
	.byte	$8D
	.byte	$6F
	.byte	$FF
	.byte	$26
	.byte	$02
	.byte	$FC
	.byte	$95
	.byte	$E9
	.byte	$DA
	.byte	$90
	.byte	$52
	.byte	$F6
	.byte	$C6
	.byte	$09
	.byte	$00
_message265:
	.byte	$79
	.byte	$88
	.byte	$EE
	.byte	$23
	.byte	$3A
	.byte	$8D
	.byte	$9E
	.byte	$BF
	.byte	$BF
	.byte	$F1
	.byte	$31
	.byte	$2A
	.byte	$68
	.byte	$FA
	.byte	$B5
	.byte	$D0
	.byte	$34
	.byte	$56
	.byte	$6F
	.byte	$4D
	.byte	$9F
	.byte	$D2
	.byte	$3D
	.byte	$79
	.byte	$8A
	.byte	$C6
	.byte	$2F
	.byte	$04
	.byte	$AA
	.byte	$7C
	.byte	$E9
	.byte	$96
	.byte	$7E
	.byte	$F7
	.byte	$6F
	.byte	$BA
	.byte	$6E
	.byte	$3C
	.byte	$E4
	.byte	$D5
	.byte	$D3
	.byte	$FE
	.byte	$65
	.byte	$87
	.byte	$29
	.byte	$9C
	.byte	$00
_message266:
	.byte	$2E
	.byte	$4D
	.byte	$D9
	.byte	$9B
	.byte	$78
	.byte	$5D
	.byte	$63
	.byte	$D3
	.byte	$ED
	.byte	$52
	.byte	$1A
	.byte	$B9
	.byte	$A2
	.byte	$99
	.byte	$B3
	.byte	$0B
	.byte	$35
	.byte	$CD
	.byte	$8E
	.byte	$2E
	.byte	$54
	.byte	$D0
	.byte	$F4
	.byte	$6B
	.byte	$A1
	.byte	$99
	.byte	$59
	.byte	$0B
	.byte	$3C
	.byte	$5D
	.byte	$FA
	.byte	$8A
	.byte	$F2
	.byte	$A5
	.byte	$EC
	.byte	$F9
	.byte	$85
	.byte	$AE
	.byte	$D9
	.byte	$F7
	.byte	$E7
	.byte	$FB
	.byte	$1D
	.byte	$A6
	.byte	$A8
	.byte	$E3
	.byte	$38
	.byte	$01
_message267:
	.byte	$6E
	.byte	$FD
	.byte	$04
	.byte	$8B
	.byte	$53
	.byte	$01
	.byte	$F9
	.byte	$3D
	.byte	$69
	.byte	$FA
	.byte	$94
	.byte	$EE
	.byte	$C9
	.byte	$53
	.byte	$54
	.byte	$87
	.byte	$96
	.byte	$43
	.byte	$AF
	.byte	$29
	.byte	$7B
	.byte	$13
	.byte	$AF
	.byte	$E8
	.byte	$6F
	.byte	$8C
	.byte	$0A
	.byte	$9A
	.byte	$7E
	.byte	$2D
	.byte	$38
	.byte	$01
_message268:
	.byte	$39
	.byte	$D1
	.byte	$EC
	.byte	$5F
	.byte	$E9
	.byte	$7B
	.byte	$A2
	.byte	$BF
	.byte	$81
	.byte	$15
	.byte	$94
	.byte	$01
_message269:
	.byte	$AE
	.byte	$7C
	.byte	$BD
	.byte	$55
	.byte	$5E
	.byte	$A7
	.byte	$E9
	.byte	$BA
	.byte	$C6
	.byte	$A6
	.byte	$11
	.byte	$22
	.byte	$68
	.byte	$FA
	.byte	$B5
	.byte	$E0
	.byte	$04
	.byte	$00
_message270:
	.byte	$AE
	.byte	$7C
	.byte	$BD
	.byte	$55
	.byte	$5E
	.byte	$A7
	.byte	$E9
	.byte	$BA
	.byte	$C6
	.byte	$A6
	.byte	$11
	.byte	$22
	.byte	$68
	.byte	$FA
	.byte	$B5
	.byte	$D0
	.byte	$DF
	.byte	$C0
	.byte	$0A
	.byte	$27
	.byte	$00
_message271:
	.byte	$6E
	.byte	$AE
	.byte	$9F
	.byte	$C9
	.byte	$8C
	.byte	$C5
	.byte	$6B
	.byte	$84
	.byte	$29
	.byte	$4F
	.byte	$05
	.byte	$DD
	.byte	$DF
	.byte	$AE
	.byte	$A8
	.byte	$F2
	.byte	$90
	.byte	$D7
	.byte	$BC
	.byte	$FE
	.byte	$25
	.byte	$CD
	.byte	$FA
	.byte	$C6
	.byte	$EB
	.byte	$99
	.byte	$82
	.byte	$B1
	.byte	$D6
	.byte	$9B
	.byte	$82
	.byte	$32
	.byte	$00
_message272:
	.byte	$F9
	.byte	$9F
	.byte	$AE
	.byte	$91
	.byte	$A9
	.byte	$A0
	.byte	$FB
	.byte	$DB
	.byte	$75
	.byte	$03
	.byte	$F7
	.byte	$37
	.byte	$3E
	.byte	$16
	.byte	$38
	.byte	$CD
	.byte	$31
	.byte	$D6
	.byte	$74
	.byte	$E5
	.byte	$C3
	.byte	$4A
	.byte	$43
	.byte	$19
	.byte	$00
_message273:
	.byte	$E1
	.byte	$B3
	.byte	$C2
	.byte	$86
	.byte	$77
	.byte	$74
	.byte	$6D
	.byte	$48
	.byte	$29
	.byte	$7B
	.byte	$D3
	.byte	$34
	.byte	$1B
	.byte	$A3
	.byte	$69
	.byte	$F6
	.byte	$4D
	.byte	$A0
	.byte	$BF
	.byte	$C3
	.byte	$14
	.byte	$95
	.byte	$EF
	.byte	$F6
	.byte	$0C
	.byte	$45
	.byte	$87
	.byte	$C4
	.byte	$52
	.byte	$27
	.byte	$00
_message274:
	.byte	$6E
	.byte	$08
	.byte	$10
	.byte	$F5
	.byte	$56
	.byte	$FD
	.byte	$94
	.byte	$FC
	.byte	$D9
	.byte	$74
	.byte	$79
	.byte	$91
	.byte	$E9
	.byte	$4A
	.byte	$7C
	.byte	$AA
	.byte	$73
	.byte	$43
	.byte	$19
	.byte	$00
_message275:
	.byte	$79
	.byte	$88
	.byte	$7A
	.byte	$FB
	.byte	$CA
	.byte	$EF
	.byte	$DB
	.byte	$C7
	.byte	$6F
	.byte	$BC
	.byte	$52
	.byte	$B8
	.byte	$4C
	.byte	$E6
	.byte	$2D
	.byte	$BC
	.byte	$43
	.byte	$CD
	.byte	$9C
	.byte	$61
	.byte	$87
	.byte	$29
	.byte	$1A
	.byte	$91
	.byte	$86
	.byte	$5F
	.byte	$DF
	.byte	$69
	.byte	$F8
	.byte	$AC
	.byte	$1B
	.byte	$DC
	.byte	$DD
	.byte	$A7
	.byte	$F1
	.byte	$CA
	.byte	$CF
	.byte	$D3
	.byte	$8D
	.byte	$41
	.byte	$DF
	.byte	$38
	.byte	$01
_message276:
	.byte	$79
	.byte	$88
	.byte	$9E
	.byte	$54
	.byte	$3F
	.byte	$25
	.byte	$7F
	.byte	$36
	.byte	$8D
	.byte	$57
	.byte	$F5
	.byte	$D3
	.byte	$ED
	.byte	$23
	.byte	$23
	.byte	$D4
	.byte	$B3
	.byte	$26
	.byte	$7F
	.byte	$05
	.byte	$51
	.byte	$BE
	.byte	$6D
	.byte	$58
	.byte	$5F
	.byte	$A7
	.byte	$32
	.byte	$5D
	.byte	$E4
	.byte	$08
	.byte	$7D
	.byte	$3B
	.byte	$4C
	.byte	$A7
	.byte	$11
	.byte	$22
	.byte	$DF
	.byte	$04
	.byte	$BE
	.byte	$7D
	.byte	$EC
	.byte	$BE
	.byte	$69
	.byte	$AC
	.byte	$57
	.byte	$F2
	.byte	$F9
	.byte	$BA
	.byte	$FD
	.byte	$5A
	.byte	$4F
	.byte	$D3
	.byte	$D7
	.byte	$F8
	.byte	$5D
	.byte	$A0
	.byte	$FD
	.byte	$31
	.byte	$9C
	.byte	$E6
	.byte	$FA
	.byte	$96
	.byte	$BE
	.byte	$6B
	.byte	$64
	.byte	$2A
	.byte	$DF
	.byte	$8D
	.byte	$41
	.byte	$67
	.byte	$0F
	.byte	$FC
	.byte	$8D
	.byte	$DF
	.byte	$88
	.byte	$24
	.byte	$BF
	.byte	$3F
	.byte	$A3
	.byte	$29
	.byte	$8B
	.byte	$50
	.byte	$15
	.byte	$4B
	.byte	$FD
	.byte	$0B
	.byte	$42
	.byte	$05
	.byte	$51
	.byte	$FB
	.byte	$95
	.byte	$66
	.byte	$E9
	.byte	$77
	.byte	$1F
	.byte	$D1
	.byte	$E9
	.byte	$59
	.byte	$5F
	.byte	$74
	.byte	$28
	.byte	$03
_message277:
	.byte	$79
	.byte	$88
	.byte	$9E
	.byte	$54
	.byte	$3F
	.byte	$25
	.byte	$7F
	.byte	$36
	.byte	$8D
	.byte	$57
	.byte	$F5
	.byte	$D3
	.byte	$ED
	.byte	$23
	.byte	$23
	.byte	$54
	.byte	$6F
	.byte	$A5
	.byte	$42
	.byte	$AA
	.byte	$9F
	.byte	$92
	.byte	$3F
	.byte	$9B
	.byte	$A6
	.byte	$B1
	.byte	$6E
	.byte	$4F
	.byte	$9F
	.byte	$A1
	.byte	$F1
	.byte	$BA
	.byte	$81
	.byte	$E9
	.byte	$DF
	.byte	$61
	.byte	$5F
	.byte	$3E
	.byte	$01
	.byte	$FD
	.byte	$3A
	.byte	$3D
	.byte	$EB
	.byte	$FE
	.byte	$3C
	.byte	$29
	.byte	$65
	.byte	$CF
	.byte	$A6
	.byte	$3C
	.byte	$6B
	.byte	$8D
	.byte	$13
	.byte	$00
_message278:
	.byte	$39
	.byte	$C6
	.byte	$6A
	.byte	$28
	.byte	$89
	.byte	$38
	.byte	$3D
	.byte	$2B
	.byte	$7D
	.byte	$3C
	.byte	$94
	.byte	$01
_message279:
	.byte	$39
	.byte	$C6
	.byte	$4A
	.byte	$22
	.byte	$4E
	.byte	$0D
	.byte	$6B
	.byte	$79
	.byte	$AB
	.byte	$7E
	.byte	$4A
	.byte	$FE
	.byte	$6C
	.byte	$28
	.byte	$03
_message280:
	.byte	$2E
	.byte	$16
	.byte	$67
	.byte	$AD
	.byte	$EB
	.byte	$75
	.byte	$7B
	.byte	$FE
	.byte	$1D
	.byte	$A6
	.byte	$D7
	.byte	$F5
	.byte	$89
	.byte	$AF
	.byte	$F1
	.byte	$9A
	.byte	$1F
	.byte	$FC
	.byte	$D6
	.byte	$B0
	.byte	$4F
	.byte	$E0
	.byte	$38
	.byte	$8A
	.byte	$46
	.byte	$88
	.byte	$10
	.byte	$F9
	.byte	$98
	.byte	$5E
	.byte	$9A
	.byte	$E6
	.byte	$A1
	.byte	$4F
	.byte	$75
	.byte	$8A
	.byte	$58
	.byte	$6F
	.byte	$5F
	.byte	$39
	.byte	$CB
	.byte	$7C
	.byte	$E3
	.byte	$75
	.byte	$F3
	.byte	$FC
	.byte	$85
	.byte	$81
	.byte	$E9
	.byte	$FB
	.byte	$2E
	.byte	$EC
	.byte	$54
	.byte	$FE
	.byte	$AE
	.byte	$34
	.byte	$CC
	.byte	$60
	.byte	$BD
	.byte	$1A
	.byte	$44
	.byte	$50
	.byte	$12
	.byte	$06
	.byte	$A7
	.byte	$F9
	.byte	$FF
	.byte	$AB
	.byte	$B7
	.byte	$FE
	.byte	$DA
	.byte	$A0
	.byte	$3A
	.byte	$3D
	.byte	$F0
	.byte	$EB
	.byte	$A5
	.byte	$69
	.byte	$1A
	.byte	$EB
	.byte	$59
	.byte	$9C
	.byte	$B5
	.byte	$A6
	.byte	$D7
	.byte	$ED
	.byte	$F9
	.byte	$77
	.byte	$98
	.byte	$9E
	.byte	$13
	.byte	$00
_message281:
	.byte	$B9
	.byte	$F9
	.byte	$97
	.byte	$EB
	.byte	$F6
	.byte	$FC
	.byte	$3B
	.byte	$4C
	.byte	$2F
	.byte	$5C
	.byte	$00
_message282:
	.byte	$14
	.byte	$0E
	.byte	$76
	.byte	$72
	.byte	$3D
	.byte	$8B
	.byte	$B3
	.byte	$D6
	.byte	$84
	.byte	$AA
	.byte	$D7
	.byte	$6D
	.byte	$D6
	.byte	$1A
	.byte	$9B
	.byte	$62
	.byte	$2D
	.byte	$30
	.byte	$EA
	.byte	$F5
	.byte	$E4
	.byte	$EA
	.byte	$38
	.byte	$4E
	.byte	$00
_message283:
	.byte	$2E
	.byte	$76
	.byte	$EE
	.byte	$D7
	.byte	$AF
	.byte	$80
	.byte	$A6
	.byte	$C1
	.byte	$E8
	.byte	$49
	.byte	$E5
	.byte	$A8
	.byte	$3C
	.byte	$8D
	.byte	$B8
	.byte	$EE
	.byte	$C3
	.byte	$7A
	.byte	$4E
	.byte	$73
	.byte	$7E
	.byte	$D3
	.byte	$9B
	.byte	$9E
	.byte	$C0
	.byte	$BE
	.byte	$0B
	.byte	$3B
	.byte	$95
	.byte	$BF
	.byte	$7C
	.byte	$8B
	.byte	$04
	.byte	$2D
	.byte	$F7
	.byte	$8C
	.byte	$46
	.byte	$5C
	.byte	$D7
	.byte	$6C
	.byte	$A7
	.byte	$D7
	.byte	$B5
	.byte	$1D
	.byte	$9F
	.byte	$9E
	.byte	$53
	.byte	$0A
	.byte	$D7
	.byte	$0C
	.byte	$78
	.byte	$3F
	.byte	$A7
	.byte	$2E
	.byte	$52
	.byte	$39
	.byte	$2A
	.byte	$4F
	.byte	$F5
	.byte	$BA
	.byte	$9E
	.byte	$9F
	.byte	$A8
	.byte	$D7
	.byte	$13
	.byte	$74
	.byte	$03
	.byte	$57
	.byte	$BE
	.byte	$09
	.byte	$7C
	.byte	$FB
	.byte	$D8
	.byte	$BD
	.byte	$13
	.byte	$00
_message284:
	.byte	$39
	.byte	$C6
	.byte	$4A
	.byte	$22
	.byte	$4E
	.byte	$0D
	.byte	$6B
	.byte	$79
	.byte	$AB
	.byte	$1C
	.byte	$95
	.byte	$87
	.byte	$32
	.byte	$00
_message285:
	.byte	$39
	.byte	$89
	.byte	$17
	.byte	$7D
	.byte	$46
	.byte	$41
	.byte	$34
	.byte	$AF
	.byte	$87
	.byte	$C8
	.byte	$34
	.byte	$65
	.byte	$D1
	.byte	$75
	.byte	$55
	.byte	$1E
	.byte	$F2
	.byte	$C9
	.byte	$AF
	.byte	$41
	.byte	$E4
	.byte	$EB
	.byte	$FA
	.byte	$F8
	.byte	$F7
	.byte	$8B
	.byte	$68
	.byte	$BC
	.byte	$BA
	.byte	$78
	.byte	$33
	.byte	$9F
	.byte	$2D
	.byte	$9A
	.byte	$B2
	.byte	$A8
	.byte	$FA
	.byte	$E9
	.byte	$F6
	.byte	$91
	.byte	$51
	.byte	$C4
	.byte	$5E
	.byte	$97
	.byte	$9F
	.byte	$6B
	.byte	$1A
	.byte	$91
	.byte	$A7
	.byte	$0E
	.byte	$BF
	.byte	$0E
	.byte	$5F
	.byte	$B7
	.byte	$61
	.byte	$7D
	.byte	$1E
	.byte	$9B
	.byte	$92
	.byte	$F7
	.byte	$4E
	.byte	$73
	.byte	$7E
	.byte	$B7
	.byte	$83
	.byte	$F2
	.byte	$37
	.byte	$5E
	.byte	$93
	.byte	$BF
	.byte	$82
	.byte	$68
	.byte	$E6
	.byte	$55
	.byte	$A7
	.byte	$20
	.byte	$FA
	.byte	$96
	.byte	$86
	.byte	$BF
	.byte	$B7
	.byte	$6F
	.byte	$0C
	.byte	$DA
	.byte	$5E
	.byte	$BF
	.byte	$11
	.byte	$D2
	.byte	$F5
	.byte	$46
	.byte	$7B
	.byte	$34
	.byte	$82
	.byte	$96
	.byte	$EB
	.byte	$99
	.byte	$F9
	.byte	$1D
	.byte	$0C
	.byte	$72
	.byte	$E4
	.byte	$BA
	.byte	$3E
	.byte	$F1
	.byte	$65
	.byte	$2E
	.byte	$5D
	.byte	$FD
	.byte	$FE
	.byte	$76
	.byte	$8D
	.byte	$D7
	.byte	$E4
	.byte	$AF
	.byte	$19
	.byte	$DF
	.byte	$8D
	.byte	$47
	.byte	$9F
	.byte	$1E
	.byte	$BB
	.byte	$A5
	.byte	$EF
	.byte	$04
	.byte	$00
_message286:
	.byte	$B9
	.byte	$F9
	.byte	$17
	.byte	$F4
	.byte	$45
	.byte	$9F
	.byte	$11
	.byte	$2E
	.byte	$00
_message287:
	.byte	$B9
	.byte	$7E
	.byte	$6D
	.byte	$AC
	.byte	$69
	.byte	$6C
	.byte	$56
	.byte	$BA
	.byte	$9E
	.byte	$94
	.byte	$4F
	.byte	$A7
	.byte	$F1
	.byte	$CB
	.byte	$48
	.byte	$A7
	.byte	$CF
	.byte	$A0
	.byte	$0C
	.byte	$00
_message288:
	.byte	$AE
	.byte	$80
	.byte	$BC
	.byte	$9E
	.byte	$C5
	.byte	$59
	.byte	$EB
	.byte	$19
	.byte	$CD
	.byte	$EB
	.byte	$5F
	.byte	$D2
	.byte	$AC
	.byte	$A7
	.byte	$0C
	.byte	$00
_message289:
	.byte	$B9
	.byte	$7E
	.byte	$6D
	.byte	$AC
	.byte	$69
	.byte	$6C
	.byte	$56
	.byte	$BA
	.byte	$5E
	.byte	$C9
	.byte	$E7
	.byte	$EB
	.byte	$F6
	.byte	$6B
	.byte	$3D
	.byte	$4D
	.byte	$5F
	.byte	$23
	.byte	$44
	.byte	$BE
	.byte	$09
	.byte	$7C
	.byte	$FB
	.byte	$D8
	.byte	$3D
	.byte	$65
	.byte	$00
_message290:
	.byte	$39
	.byte	$20
	.byte	$B5
	.byte	$D9
	.byte	$D1
	.byte	$78
	.byte	$CD
	.byte	$47
	.byte	$FD
	.byte	$1E
	.byte	$2A
	.byte	$85
	.byte	$EC
	.byte	$68
	.byte	$D1
	.byte	$FC
	.byte	$0F
	.byte	$FB
	.byte	$55
	.byte	$C7
	.byte	$71
	.byte	$02
_message291:
	.byte	$2E
	.byte	$76
	.byte	$EE
	.byte	$D7
	.byte	$2F
	.byte	$23
	.byte	$9D
	.byte	$3E
	.byte	$A3
	.byte	$82
	.byte	$6E
	.byte	$CF
	.byte	$23
	.byte	$68
	.byte	$84
	.byte	$08
	.byte	$F1
	.byte	$A6
	.byte	$97
	.byte	$BE
	.byte	$1B
	.byte	$83
	.byte	$CE
	.byte	$1E
	.byte	$F8
	.byte	$1D
	.byte	$C7
	.byte	$09
	.byte	$00
_message292:
	.byte	$6E
	.byte	$66
	.byte	$3F
	.byte	$4B
	.byte	$D7
	.byte	$EF
	.byte	$82
	.byte	$E9
	.byte	$31
	.byte	$EA
	.byte	$ED
	.byte	$9B
	.byte	$19
	.byte	$56
	.byte	$14
	.byte	$06
	.byte	$A6
	.byte	$EF
	.byte	$6B
	.byte	$10
	.byte	$21
	.byte	$9E
	.byte	$EF
	.byte	$BB
	.byte	$C3
	.byte	$94
	.byte	$51
	.byte	$41
	.byte	$B7
	.byte	$E7
	.byte	$11
	.byte	$84
	.byte	$7A
	.byte	$56
	.byte	$6F
	.byte	$5F
	.byte	$39
	.byte	$A3
	.byte	$FD
	.byte	$F7
	.byte	$4D
	.byte	$2F
	.byte	$7D
	.byte	$51
	.byte	$1B
	.byte	$EB
	.byte	$76
	.byte	$9E
	.byte	$E8
	.byte	$C6
	.byte	$63
	.byte	$DE
	.byte	$D2
	.byte	$BD
	.byte	$7E
	.byte	$E3
	.byte	$77
	.byte	$3F
	.byte	$11
	.byte	$98
	.byte	$5D
	.byte	$A8
	.byte	$7A
	.byte	$C5
	.byte	$4A
	.byte	$63
	.byte	$D3
	.byte	$78
	.byte	$A5
	.byte	$4E
	.byte	$4A
	.byte	$EF
	.byte	$38
	.byte	$4E
	.byte	$00
_message293:
	.byte	$E1
	.byte	$B3
	.byte	$66
	.byte	$86
	.byte	$15
	.byte	$E5
	.byte	$DB
	.byte	$A9
	.byte	$B3
	.byte	$53
	.byte	$A7
	.byte	$2B
	.byte	$F9
	.byte	$51
	.byte	$54
	.byte	$BE
	.byte	$EB
	.byte	$E5
	.byte	$1D
	.byte	$C7
	.byte	$09
	.byte	$00
_message294:
	.byte	$39
	.byte	$89
	.byte	$17
	.byte	$7D
	.byte	$46
	.byte	$D3
	.byte	$EC
	.byte	$67
	.byte	$E9
	.byte	$BE
	.byte	$5F
	.byte	$65
	.byte	$EC
	.byte	$CF
	.byte	$70
	.byte	$1C
	.byte	$27
	.byte	$00
_message295:
	.byte	$E1
	.byte	$B3
	.byte	$CA
	.byte	$EF
	.byte	$DB
	.byte	$84
	.byte	$EA
	.byte	$8D
	.byte	$F8
	.byte	$6D
	.byte	$7B
	.byte	$3E
	.byte	$F7
	.byte	$1B
	.byte	$43
	.byte	$A8
	.byte	$27
	.byte	$8D
	.byte	$37
	.byte	$CD
	.byte	$47
	.byte	$FD
	.byte	$1E
	.byte	$6A
	.byte	$E6
	.byte	$68
	.byte	$B9
	.byte	$69
	.byte	$BC
	.byte	$E6
	.byte	$F0
	.byte	$16
	.byte	$2A
	.byte	$88
	.byte	$C6
	.byte	$27
	.byte	$DF
	.byte	$F4
	.byte	$FA
	.byte	$55
	.byte	$38
	.byte	$01
_message296:
	.byte	$39
	.byte	$D1
	.byte	$E5
	.byte	$D1
	.byte	$ED
	.byte	$79
	.byte	$04
	.byte	$E5
	.byte	$5B
	.byte	$7E
	.byte	$EC
	.byte	$6D
	.byte	$9A
	.byte	$B2
	.byte	$F7
	.byte	$8C
	.byte	$50
	.byte	$E5
	.byte	$BB
	.byte	$BF
	.byte	$20
	.byte	$9E
	.byte	$FB
	.byte	$8D
	.byte	$A1
	.byte	$20
	.byte	$AA
	.byte	$23
	.byte	$FA
	.byte	$94
	.byte	$01
_message297:
	.byte	$F9
	.byte	$82
	.byte	$35
	.byte	$F3
	.byte	$AA
	.byte	$43
	.byte	$D9
	.byte	$DC
	.byte	$F1
	.byte	$77
	.byte	$1B
	.byte	$E5
	.byte	$BF
	.byte	$92
	.byte	$47
	.byte	$82
	.byte	$D1
	.byte	$AF
	.byte	$78
	.byte	$A3
	.byte	$A7
	.byte	$0B
	.byte	$E6
	.byte	$FE
	.byte	$DD
	.byte	$CE
	.byte	$13
	.byte	$DD
	.byte	$78
	.byte	$A8
	.byte	$82
	.byte	$FD
	.byte	$42
	.byte	$5D
	.byte	$A8
	.byte	$8D
	.byte	$75
	.byte	$03
	.byte	$57
	.byte	$88
	.byte	$CF
	.byte	$64
	.byte	$4E
	.byte	$75
	.byte	$42
	.byte	$15
	.byte	$54
	.byte	$7F
	.byte	$2D
	.byte	$14
	.byte	$15
	.byte	$94
	.byte	$3A
	.byte	$22
	.byte	$50
	.byte	$05
	.byte	$65
	.byte	$73
	.byte	$FD
	.byte	$E6
	.byte	$F5
	.byte	$58
	.byte	$FA
	.byte	$05
	.byte	$51
	.byte	$6F
	.byte	$C4
	.byte	$8B
	.byte	$F2
	.byte	$77
	.byte	$E9
	.byte	$F0
	.byte	$BD
	.byte	$E3
	.byte	$38
	.byte	$01
_message298:
	.byte	$79
	.byte	$88
	.byte	$9E
	.byte	$54
	.byte	$B1
	.byte	$74
	.byte	$1A
	.byte	$AF
	.byte	$79
	.byte	$78
	.byte	$87
	.byte	$A2
	.byte	$14
	.byte	$F8
	.byte	$D6
	.byte	$0E
	.byte	$FA
	.byte	$96
	.byte	$4E
	.byte	$2E
	.byte	$EB
	.byte	$6A
	.byte	$78
	.byte	$E5
	.byte	$7E
	.byte	$B0
	.byte	$DF
	.byte	$43
	.byte	$5D
	.byte	$67
	.byte	$E8
	.byte	$0E
	.byte	$8B
	.byte	$9F
	.byte	$6E
	.byte	$9A
	.byte	$C0
	.byte	$EA
	.byte	$F7
	.byte	$42
	.byte	$4B
	.byte	$82
	.byte	$6F
	.byte	$AD
	.byte	$DB
	.byte	$FD
	.byte	$1E
	.byte	$6A
	.byte	$5E
	.byte	$3F
	.byte	$B1
	.byte	$58
	.byte	$DA
	.byte	$B3
	.byte	$0C
	.byte	$F8
	.byte	$FC
	.byte	$0A
	.byte	$15
	.byte	$4B
	.byte	$BB
	.byte	$2E
	.byte	$79
	.byte	$6D
	.byte	$5E
	.byte	$3F
	.byte	$B1
	.byte	$58
	.byte	$DA
	.byte	$E5
	.byte	$37
	.byte	$F0
	.byte	$F9
	.byte	$15
	.byte	$2A
	.byte	$B4
	.byte	$79
	.byte	$FD
	.byte	$C4
	.byte	$62
	.byte	$69
	.byte	$97
	.byte	$DF
	.byte	$C0
	.byte	$E7
	.byte	$57
	.byte	$A8
	.byte	$58
	.byte	$DA
	.byte	$75
	.byte	$C9
	.byte	$6B
	.byte	$F3
	.byte	$FA
	.byte	$89
	.byte	$C5
	.byte	$D2
	.byte	$9E
	.byte	$65
	.byte	$C0
	.byte	$E7
	.byte	$57
	.byte	$2E
	.byte	$FB
	.byte	$B1
	.byte	$1B
	.byte	$78
	.byte	$83
	.byte	$F2
	.byte	$5B
	.byte	$FC
	.byte	$EE
	.byte	$C7
	.byte	$9F
	.byte	$BC
	.byte	$7C
	.byte	$19
	.byte	$57
	.byte	$6F
	.byte	$E7
	.byte	$97
	.byte	$D3
	.byte	$3C
	.byte	$DA
	.byte	$75
	.byte	$C9
	.byte	$6B
	.byte	$67
	.byte	$37
	.byte	$AC
	.byte	$32
	.byte	$56
	.byte	$1D
	.byte	$C7
	.byte	$71
	.byte	$35
	.byte	$BC
	.byte	$9C
	.byte	$E6
	.byte	$18
	.byte	$2B
	.byte	$88
	.byte	$9E
	.byte	$34
	.byte	$FD
	.byte	$9A
	.byte	$C6
	.byte	$AB
	.byte	$80
	.byte	$A6
	.byte	$C1
	.byte	$A8
	.byte	$7A
	.byte	$D5
	.byte	$09
	.byte	$D5
	.byte	$C6
	.byte	$6A
	.byte	$68
	.byte	$F6
	.byte	$AF
	.byte	$27
	.byte	$55
	.byte	$EC
	.byte	$DB
	.byte	$14
	.byte	$DD
	.byte	$E6
	.byte	$0A
	.byte	$A2
	.byte	$67
	.byte	$5E
	.byte	$4F
	.byte	$40
	.byte	$19
	.byte	$00
_message299:
	.byte	$61
	.byte	$C9
	.byte	$AF
	.byte	$0F
	.byte	$35
	.byte	$AF
	.byte	$7F
	.byte	$41
	.byte	$29
	.byte	$3C
	.byte	$39
	.byte	$F2
	.byte	$8D
	.byte	$D7
	.byte	$B0
	.byte	$1D
	.byte	$FC
	.byte	$12
	.byte	$27
	.byte	$5C
	.byte	$5D
	.byte	$A6
	.byte	$36
	.byte	$56
	.byte	$43
	.byte	$49
	.byte	$C4
	.byte	$71
	.byte	$02
_message300:
	.byte	$2E
	.byte	$25
	.byte	$9F
	.byte	$AF
	.byte	$67
	.byte	$0A
	.byte	$66
	.byte	$AF
	.byte	$3A
	.byte	$7C
	.byte	$5D
	.byte	$63
	.byte	$D3
	.byte	$78
	.byte	$50
	.byte	$9E
	.byte	$CA
	.byte	$74
	.byte	$6D
	.byte	$C3
	.byte	$0A
	.byte	$91
	.byte	$69
	.byte	$84
	.byte	$34
	.byte	$AF
	.byte	$FF
	.byte	$C8
	.byte	$13
	.byte	$EA
	.byte	$31
	.byte	$3F
	.byte	$4D
	.byte	$9F
	.byte	$37
	.byte	$FA
	.byte	$A8
	.byte	$27
	.byte	$47
	.byte	$19
	.byte	$00
_message301:
	.byte	$AE
	.byte	$61
	.byte	$EB
	.byte	$FB
	.byte	$CD
	.byte	$EB
	.byte	$5F
	.byte	$D2
	.byte	$AC
	.byte	$6F
	.byte	$BC
	.byte	$6E
	.byte	$E7
	.byte	$89
	.byte	$7A
	.byte	$3D
	.byte	$01
	.byte	$65
	.byte	$00
_message302:
	.byte	$2E
	.byte	$D2
	.byte	$BC
	.byte	$FE
	.byte	$23
	.byte	$4F
	.byte	$6D
	.byte	$AC
	.byte	$EB
	.byte	$BA
	.byte	$F9
	.byte	$21
	.byte	$FA
	.byte	$1B
	.byte	$1F
	.byte	$A3
	.byte	$D3
	.byte	$94
	.byte	$3D
	.byte	$1F
	.byte	$C1
	.byte	$E8
	.byte	$82
	.byte	$B9
	.byte	$7F
	.byte	$BD
	.byte	$7D
	.byte	$D7
	.byte	$86
	.byte	$74
	.byte	$2F
	.byte	$68
	.byte	$CA
	.byte	$DE
	.byte	$93
	.byte	$E8
	.byte	$59
	.byte	$B7
	.byte	$59
	.byte	$0B
	.byte	$6B
	.byte	$4D
	.byte	$D7
	.byte	$C8
	.byte	$34
	.byte	$E2
	.byte	$BA
	.byte	$BF
	.byte	$79
	.byte	$85
	.byte	$E9
	.byte	$F0
	.byte	$39
	.byte	$01
_message303:
	.byte	$39
	.byte	$51
	.byte	$F2
	.byte	$F9
	.byte	$50
	.byte	$E8
	.byte	$A5
	.byte	$2C
	.byte	$54
	.byte	$51
	.byte	$BE
	.byte	$6D
	.byte	$58
	.byte	$DF
	.byte	$A6
	.byte	$2B
	.byte	$F1
	.byte	$A9
	.byte	$A2
	.byte	$69
	.byte	$76
	.byte	$34
	.byte	$67
	.byte	$F8
	.byte	$DC
	.byte	$B8
	.byte	$34
	.byte	$2C
	.byte	$9F
	.byte	$9C
	.byte	$F9
	.byte	$84
	.byte	$9A
	.byte	$33
	.byte	$7C
	.byte	$6E
	.byte	$5C
	.byte	$9A
	.byte	$0F
	.byte	$85
	.byte	$FC
	.byte	$74
	.byte	$C9
	.byte	$5D
	.byte	$A8
	.byte	$39
	.byte	$C3
	.byte	$E7
	.byte	$C6
	.byte	$A5
	.byte	$6E
	.byte	$72
	.byte	$97
	.byte	$9F
	.byte	$F9
	.byte	$E9
	.byte	$E2
	.byte	$4A
	.byte	$EE
	.byte	$5C
	.byte	$72
	.byte	$57
	.byte	$34
	.byte	$CD
	.byte	$3A
	.byte	$A2
	.byte	$E4
	.byte	$7D
	.byte	$A8
	.byte	$1F
	.byte	$7B
	.byte	$16
	.byte	$2F
	.byte	$3D
	.byte	$A3
	.byte	$F2
	.byte	$CD
	.byte	$78
	.byte	$73
	.byte	$BF
	.byte	$31
	.byte	$34
	.byte	$E2
	.byte	$4A
	.byte	$3E
	.byte	$5F
	.byte	$CF
	.byte	$14
	.byte	$CC
	.byte	$5E
	.byte	$75
	.byte	$F8
	.byte	$9C
	.byte	$00
_message304:
	.byte	$39
	.byte	$C6
	.byte	$4A
	.byte	$22
	.byte	$4E
	.byte	$CF
	.byte	$14
	.byte	$CC
	.byte	$5E
	.byte	$75
	.byte	$F8
	.byte	$7A
	.byte	$56
	.byte	$FA
	.byte	$78
	.byte	$9C
	.byte	$00
_message305:
	.byte	$39
	.byte	$C6
	.byte	$4A
	.byte	$22
	.byte	$4E
	.byte	$F3
	.byte	$FA
	.byte	$8F
	.byte	$7C
	.byte	$3D
	.byte	$2B
	.byte	$7D
	.byte	$3C
	.byte	$4E
	.byte	$00
_message306:
	.byte	$39
	.byte	$C6
	.byte	$4A
	.byte	$22
	.byte	$4E
	.byte	$A1
	.byte	$97
	.byte	$B2
	.byte	$50
	.byte	$05
	.byte	$65
	.byte	$00
_message310:
	.byte	$79
	.byte	$88
	.byte	$CA
	.byte	$37
	.byte	$03
	.byte	$DE
	.byte	$5F
	.byte	$BF
	.byte	$11
	.byte	$22
	.byte	$C4
	.byte	$7B
	.byte	$1D
	.byte	$AA
	.byte	$5F
	.byte	$8D
	.byte	$DF
	.byte	$E4
	.byte	$AF
	.byte	$0B
	.byte	$D7
	.byte	$95
	.byte	$B0
	.byte	$A6
	.byte	$1B
	.byte	$B8
	.byte	$24
	.byte	$EC
	.byte	$18
	.byte	$CD
	.byte	$EB
	.byte	$CF
	.byte	$09
	.byte	$00
_message311:
	.byte	$6E
	.byte	$AE
	.byte	$6B
	.byte	$6C
	.byte	$7A
	.byte	$B5
	.byte	$D9
	.byte	$AF
	.byte	$E8
	.byte	$75
	.byte	$03
	.byte	$A7
	.byte	$E1
	.byte	$75
	.byte	$8D
	.byte	$A0
	.byte	$E5
	.byte	$FA
	.byte	$5E
	.byte	$87
	.byte	$EA
	.byte	$97
	.byte	$D3
	.byte	$1C
	.byte	$5E
	.byte	$E4
	.byte	$9B
	.byte	$B2
	.byte	$A8
	.byte	$5E
	.byte	$B7
	.byte	$59
	.byte	$EB
	.byte	$BB
	.byte	$C0
	.byte	$E4
	.byte	$31
	.byte	$9C
	.byte	$00
_message312:
	.byte	$79
	.byte	$88
	.byte	$CA
	.byte	$77
	.byte	$A5
	.byte	$97
	.byte	$B3
	.byte	$D7
	.byte	$6F
	.byte	$CA
	.byte	$A2
	.byte	$54
	.byte	$58
	.byte	$D3
	.byte	$D8
	.byte	$AC
	.byte	$74
	.byte	$DD
	.byte	$C0
	.byte	$7D
	.byte	$12
	.byte	$2C
	.byte	$DF
	.byte	$F5
	.byte	$72
	.byte	$FA
	.byte	$55
	.byte	$AF
	.byte	$7A
	.byte	$BD
	.byte	$D2
	.byte	$37
	.byte	$6C
	.byte	$D7
	.byte	$08
	.byte	$5A
	.byte	$AE
	.byte	$5E
	.byte	$F4
	.byte	$F6
	.byte	$2B
	.byte	$09
	.byte	$D3
	.byte	$EB
	.byte	$9B
	.byte	$5D
	.byte	$28
	.byte	$00
_message313:
	.byte	$6E
	.byte	$66
	.byte	$7D
	.byte	$49
	.byte	$3F
	.byte	$D7
	.byte	$94
	.byte	$45
	.byte	$F5
	.byte	$1A
	.byte	$2F
	.byte	$7D
	.byte	$B8
	.byte	$BA
	.byte	$C9
	.byte	$A2
	.byte	$7A
	.byte	$5D
	.byte	$DB
	.byte	$81
	.byte	$CE
	.byte	$5E
	.byte	$D3
	.byte	$EC
	.byte	$04
	.byte	$88
	.byte	$9E
	.byte	$34
	.byte	$5F
	.byte	$7C
	.byte	$7A
	.byte	$2B
	.byte	$DB
	.byte	$5C
	.byte	$FD
	.byte	$82
	.byte	$DF
	.byte	$C3
	.byte	$05
	.byte	$00
_message314:
	.byte	$79
	.byte	$88
	.byte	$7A
	.byte	$AB
	.byte	$0D
	.byte	$EF
	.byte	$2F
	.byte	$B7
	.byte	$D6
	.byte	$ED
	.byte	$D3
	.byte	$FD
	.byte	$39
	.byte	$DD
	.byte	$6F
	.byte	$87
	.byte	$88
	.byte	$CA
	.byte	$58
	.byte	$3C
	.byte	$C3
	.byte	$02
	.byte	$65
	.byte	$00
_message315:
	.byte	$39
	.byte	$A7
	.byte	$D9
	.byte	$BF
	.byte	$92
	.byte	$B7
	.byte	$74
	.byte	$BA
	.byte	$9F
	.byte	$08
	.byte	$4A
	.byte	$8E
	.byte	$28
	.byte	$42
	.byte	$B5
	.byte	$B1
	.byte	$66
	.byte	$BF
	.byte	$E6
	.byte	$45
	.byte	$BE
	.byte	$F1
	.byte	$6A
	.byte	$7E
	.byte	$C8
	.byte	$71
	.byte	$02
_message316:
	.byte	$39
	.byte	$C6
	.byte	$BA
	.byte	$81
	.byte	$23
	.byte	$58
	.byte	$AF
	.byte	$F1
	.byte	$A0
	.byte	$3C
	.byte	$7D
	.byte	$5A
	.byte	$AE
	.byte	$2B
	.byte	$BD
	.byte	$9C
	.byte	$5D
	.byte	$A8
	.byte	$36
	.byte	$D6
	.byte	$EC
	.byte	$9B
	.byte	$4D
	.byte	$CD
	.byte	$8B
	.byte	$7C
	.byte	$E3
	.byte	$75
	.byte	$6D
	.byte	$48
	.byte	$F7
	.byte	$02
	.byte	$CA
	.byte	$00
_message317:
	.byte	$79
	.byte	$88
	.byte	$7A
	.byte	$23
	.byte	$60
	.byte	$C3
	.byte	$3B
	.byte	$BA
	.byte	$DD
	.byte	$BB
	.byte	$BB
	.byte	$7F
	.byte	$E3
	.byte	$90
	.byte	$08
	.byte	$F5
	.byte	$AC
	.byte	$C3
	.byte	$CF
	.byte	$37
	.byte	$8D
	.byte	$D7
	.byte	$DF
	.byte	$C0
	.byte	$EA
	.byte	$F9
	.byte	$43
	.byte	$5D
	.byte	$57
	.byte	$FE
	.byte	$E8
	.byte	$ED
	.byte	$6D
	.byte	$7A
	.byte	$25
	.byte	$6F
	.byte	$9D
	.byte	$BE
	.byte	$0E
	.byte	$5F
	.byte	$37
	.byte	$BE
	.byte	$FD
	.byte	$1B
	.byte	$AF
	.byte	$30
	.byte	$E5
	.byte	$67
	.byte	$38
	.byte	$01
_message318:
	.byte	$79
	.byte	$88
	.byte	$9E
	.byte	$94
	.byte	$7C
	.byte	$4E
	.byte	$D3
	.byte	$57
	.byte	$E5
	.byte	$27
	.byte	$C1
	.byte	$6B
	.byte	$7A
	.byte	$D2
	.byte	$BC
	.byte	$FE
	.byte	$05
	.byte	$BD
	.byte	$92
	.byte	$B7
	.byte	$4E
	.byte	$5F
	.byte	$87
	.byte	$AF
	.byte	$30
	.byte	$E5
	.byte	$B7
	.byte	$A9
	.byte	$41
	.byte	$9A
	.byte	$AB
	.byte	$5F
	.byte	$18
	.byte	$A7
	.byte	$39
	.byte	$C6
	.byte	$9A
	.byte	$FD
	.byte	$9A
	.byte	$17
	.byte	$F9
	.byte	$C6
	.byte	$6B
	.byte	$3C
	.byte	$12
	.byte	$BC
	.byte	$A6
	.byte	$F1
	.byte	$AB
	.byte	$5E
	.byte	$F5
	.byte	$4A
	.byte	$CB
	.byte	$F5
	.byte	$45
	.byte	$F9
	.byte	$4A
	.byte	$DF
	.byte	$B0
	.byte	$5D
	.byte	$CF
	.byte	$9A
	.byte	$FC
	.byte	$55
	.byte	$A6
	.byte	$D9
	.byte	$BF
	.byte	$92
	.byte	$B7
	.byte	$74
	.byte	$28
	.byte	$03
_message319:
	.byte	$79
	.byte	$88
	.byte	$2E
	.byte	$EC
	.byte	$1B
	.byte	$A3
	.byte	$32
	.byte	$5D
	.byte	$8A
	.byte	$B5
	.byte	$A6
	.byte	$6B
	.byte	$1B
	.byte	$56
	.byte	$88
	.byte	$4C
	.byte	$E3
	.byte	$90
	.byte	$E8
	.byte	$BA
	.byte	$92
	.byte	$B0
	.byte	$38
	.byte	$36
	.byte	$BD
	.byte	$AE
	.byte	$91
	.byte	$D3
	.byte	$2B
	.byte	$F5
	.byte	$68
	.byte	$39
	.byte	$A8
	.byte	$5E
	.byte	$37
	.byte	$70
	.byte	$61
	.byte	$CA
	.byte	$CF
	.byte	$A8
	.byte	$41
	.byte	$BA
	.byte	$46
	.byte	$4E
	.byte	$A7
	.byte	$BB
	.byte	$5F
	.byte	$18
	.byte	$A7
	.byte	$6E
	.byte	$B2
	.byte	$F7
	.byte	$FC
	.byte	$3B
	.byte	$4C
	.byte	$D1
	.byte	$E1
	.byte	$2F
	.byte	$88
	.byte	$A6
	.byte	$EC
	.byte	$F9
	.byte	$35
	.byte	$45
	.byte	$6D
	.byte	$AC
	.byte	$89
	.byte	$00
	.byte	$51
	.byte	$12
	.byte	$16
	.byte	$4F
	.byte	$DF
	.byte	$09
	.byte	$00
_message320:
	.byte	$AE
	.byte	$C1
	.byte	$DD
	.byte	$46
	.byte	$C1
	.byte	$C5
	.byte	$FA
	.byte	$FD
	.byte	$EC
	.byte	$19
	.byte	$F5
	.byte	$56
	.byte	$EA
	.byte	$D1
	.byte	$72
	.byte	$50
	.byte	$9D
	.byte	$52
	.byte	$6F
	.byte	$0D
	.byte	$6D
	.byte	$DF
	.byte	$27
	.byte	$C1
	.byte	$32
	.byte	$45
	.byte	$D5
	.byte	$D7
	.byte	$C6
	.byte	$9A
	.byte	$50
	.byte	$21
	.byte	$B2
	.byte	$7F
	.byte	$94
	.byte	$CD
	.byte	$53
	.byte	$C3
	.byte	$BE
	.byte	$C3
	.byte	$A6
	.byte	$7A
	.byte	$5D
	.byte	$60
	.byte	$12
	.byte	$A1
	.byte	$92
	.byte	$B7
	.byte	$74
	.byte	$9A
	.byte	$B2
	.byte	$E8
	.byte	$49
	.byte	$77
	.byte	$BF
	.byte	$30
	.byte	$05
	.byte	$D1
	.byte	$94
	.byte	$3D
	.byte	$BF
	.byte	$A6
	.byte	$A8
	.byte	$8D
	.byte	$35
	.byte	$11
	.byte	$20
	.byte	$6A
	.byte	$58
	.byte	$CB
	.byte	$DB
	.byte	$50
	.byte	$06
	.byte	$00
_message321:
	.byte	$79
	.byte	$88
	.byte	$CA
	.byte	$77
	.byte	$8D
	.byte	$9C
	.byte	$7E
	.byte	$A9
	.byte	$47
	.byte	$CB
	.byte	$41
	.byte	$15
	.byte	$7C
	.byte	$DF
	.byte	$94
	.byte	$45
	.byte	$A9
	.byte	$30
	.byte	$34
	.byte	$8D
	.byte	$CD
	.byte	$4A
	.byte	$17
	.byte	$AA
	.byte	$B7
	.byte	$EF
	.byte	$02
	.byte	$1F
	.byte	$1A
	.byte	$AF
	.byte	$6B
	.byte	$1B
	.byte	$56
	.byte	$88
	.byte	$5C
	.byte	$37
	.byte	$70
	.byte	$E5
	.byte	$4B
	.byte	$C2
	.byte	$E2
	.byte	$E9
	.byte	$17
	.byte	$DD
	.byte	$CE
	.byte	$13
	.byte	$3D
	.byte	$AB
	.byte	$7C
	.byte	$23
	.byte	$AE
	.byte	$E4
	.byte	$73
	.byte	$CA
	.byte	$5E
	.byte	$37
	.byte	$70
	.byte	$85
	.byte	$F8
	.byte	$94
	.byte	$B0
	.byte	$D6
	.byte	$38
	.byte	$CD
	.byte	$31
	.byte	$D6
	.byte	$44
	.byte	$80
	.byte	$A8
	.byte	$79
	.byte	$91
	.byte	$6F
	.byte	$BC
	.byte	$AE
	.byte	$0D
	.byte	$E9
	.byte	$5E
	.byte	$E0
	.byte	$04
	.byte	$00
_message322:
	.byte	$AE
	.byte	$0C
	.byte	$C9
	.byte	$58
	.byte	$7A
	.byte	$E5
	.byte	$DB
	.byte	$86
	.byte	$F5
	.byte	$59
	.byte	$A6
	.byte	$67
	.byte	$25
	.byte	$4F
	.byte	$BF
	.byte	$1B
	.byte	$B8
	.byte	$DB
	.byte	$28
	.byte	$58
	.byte	$A6
	.byte	$58
	.byte	$BF
	.byte	$9F
	.byte	$3D
	.byte	$83
	.byte	$32
	.byte	$00
_message323:
	.byte	$AE
	.byte	$0C
	.byte	$C9
	.byte	$58
	.byte	$7A
	.byte	$E5
	.byte	$DB
	.byte	$86
	.byte	$F5
	.byte	$59
	.byte	$BE
	.byte	$67
	.byte	$25
	.byte	$4F
	.byte	$BF
	.byte	$1B
	.byte	$B8
	.byte	$DB
	.byte	$28
	.byte	$58
	.byte	$BE
	.byte	$58
	.byte	$BF
	.byte	$9F
	.byte	$3D
	.byte	$83
	.byte	$32
	.byte	$00
_message324:
	.byte	$39
	.byte	$C6
	.byte	$6A
	.byte	$A3
	.byte	$53
	.byte	$F3
	.byte	$22
	.byte	$DF
	.byte	$78
	.byte	$DD
	.byte	$9E
	.byte	$F5
	.byte	$D2
	.byte	$C8
	.byte	$33
	.byte	$6A
	.byte	$90
	.byte	$EE
	.byte	$6F
	.byte	$47
	.byte	$CB
	.byte	$8D
	.byte	$A1
	.byte	$6F
	.byte	$7A
	.byte	$DB
	.byte	$DB
	.byte	$A5
	.byte	$71
	.byte	$02
_message325:
	.byte	$39
	.byte	$C6
	.byte	$BA
	.byte	$70
	.byte	$DD
	.byte	$2F
	.byte	$7D
	.byte	$CF
	.byte	$EA
	.byte	$ED
	.byte	$BB
	.byte	$1D
	.byte	$FF
	.byte	$7E
	.byte	$11
	.byte	$94
	.byte	$01
_message326:
	.byte	$79
	.byte	$88
	.byte	$CA
	.byte	$77
	.byte	$1B
	.byte	$D6
	.byte	$6F
	.byte	$BC
	.byte	$9E
	.byte	$D1
	.byte	$8C
	.byte	$B5
	.byte	$A6
	.byte	$F1
	.byte	$A5
	.byte	$F2
	.byte	$3A
	.byte	$3D
	.byte	$53
	.byte	$B0
	.byte	$4D
	.byte	$5F
	.byte	$BA
	.byte	$FB
	.byte	$85
	.byte	$09
	.byte	$D5
	.byte	$DB
	.byte	$77
	.byte	$29
	.byte	$7B
	.byte	$55
	.byte	$CF
	.byte	$DF
	.byte	$1D
	.byte	$FA
	.byte	$22
	.byte	$97
	.byte	$BE
	.byte	$6F
	.byte	$7A
	.byte	$2B
	.byte	$FD
	.byte	$5A
	.byte	$53
	.byte	$74
	.byte	$1F
	.byte	$D1
	.byte	$E9
	.byte	$86
	.byte	$F5
	.byte	$A6
	.byte	$70
	.byte	$9A
	.byte	$87
	.byte	$68
	.byte	$1C
	.byte	$7D
	.byte	$FD
	.byte	$C6
	.byte	$AB
	.byte	$B7
	.byte	$EE
	.byte	$6F
	.byte	$47
	.byte	$CB
	.byte	$8D
	.byte	$A1
	.byte	$6F
	.byte	$7A
	.byte	$DB
	.byte	$DB
	.byte	$A5
	.byte	$E9
	.byte	$06
	.byte	$AE
	.byte	$B7
	.byte	$2F
	.byte	$09
	.byte	$99
	.byte	$84
	.byte	$82
	.byte	$FC
	.byte	$E4
	.byte	$DF
	.byte	$FD
	.byte	$C6
	.byte	$D0
	.byte	$B3
	.byte	$A6
	.byte	$5F
	.byte	$D3
	.byte	$78
	.byte	$C5
	.byte	$0E
	.byte	$A6
	.byte	$61
	.byte	$EE
	.byte	$EF
	.byte	$04
	.byte	$00
_message327:
	.byte	$2E
	.byte	$D2
	.byte	$F5
	.byte	$32
	.byte	$86
	.byte	$82
	.byte	$68
	.byte	$BC
	.byte	$66
	.byte	$86
	.byte	$F7
	.byte	$2F
	.byte	$43
	.byte	$F5
	.byte	$8D
	.byte	$1E
	.byte	$79
	.byte	$46
	.byte	$A8
	.byte	$FB
	.byte	$88
	.byte	$4E
	.byte	$69
	.byte	$7E
	.byte	$8B
	.byte	$28
	.byte	$BA
	.byte	$79
	.byte	$39
	.byte	$BD
	.byte	$B5
	.byte	$6E
	.byte	$1F
	.byte	$A7
	.byte	$79
	.byte	$88
	.byte	$2E
	.byte	$7D
	.byte	$9D
	.byte	$BE
	.byte	$08
	.byte	$96
	.byte	$9E
	.byte	$4E
	.byte	$37
	.byte	$70
	.byte	$F9
	.byte	$12
	.byte	$E3
	.byte	$19
	.byte	$15
	.byte	$E2
	.byte	$4C
	.byte	$C1
	.byte	$36
	.byte	$8D
	.byte	$10
	.byte	$F9
	.byte	$BA
	.byte	$3E
	.byte	$FE
	.byte	$FD
	.byte	$22
	.byte	$1A
	.byte	$AF
	.byte	$2E
	.byte	$DE
	.byte	$CC
	.byte	$67
	.byte	$43
	.byte	$8D
	.byte	$6F
	.byte	$71
	.byte	$FA
	.byte	$52
	.byte	$F2
	.byte	$D6
	.byte	$E9
	.byte	$EB
	.byte	$30
	.byte	$2A
	.byte	$DF
	.byte	$05
	.byte	$5B
	.byte	$EF
	.byte	$7E
	.byte	$63
	.byte	$68
	.byte	$BC
	.byte	$2A
	.byte	$0F
	.byte	$F9
	.byte	$BC
	.byte	$AE
	.byte	$72
	.byte	$84
	.byte	$13
	.byte	$00
_message328:
	.byte	$39
	.byte	$BF
	.byte	$4B
	.byte	$D9
	.byte	$AB
	.byte	$7A
	.byte	$FE
	.byte	$46
	.byte	$48
	.byte	$D7
	.byte	$CB
	.byte	$18
	.byte	$0A
	.byte	$A2
	.byte	$79
	.byte	$3D
	.byte	$44
	.byte	$BE
	.byte	$7A
	.byte	$DB
	.byte	$A5
	.byte	$6F
	.byte	$84
	.byte	$08
	.byte	$9A
	.byte	$66
	.byte	$29
	.byte	$7B
	.byte	$F7
	.byte	$1B
	.byte	$BB
	.byte	$92
	.byte	$A7
	.byte	$3A
	.byte	$7C
	.byte	$6F
	.byte	$08
	.byte	$35
	.byte	$8D
	.byte	$75
	.byte	$4D
	.byte	$26
	.byte	$73
	.byte	$AA
	.byte	$D7
	.byte	$17
	.byte	$BD
	.byte	$B5
	.byte	$6E
	.byte	$BF
	.byte	$50
	.byte	$D7
	.byte	$CB
	.byte	$D8
	.byte	$75
	.byte	$6D
	.byte	$EF
	.byte	$7E
	.byte	$B3
	.byte	$AE
	.byte	$68
	.byte	$1A
	.byte	$19
	.byte	$33
	.byte	$74
	.byte	$03
	.byte	$77
	.byte	$CD
	.byte	$52
	.byte	$18
	.byte	$18
	.byte	$55
	.byte	$AF
	.byte	$FA
	.byte	$CD
	.byte	$EB
	.byte	$B1
	.byte	$F4
	.byte	$BB
	.byte	$94
	.byte	$BD
	.byte	$AA
	.byte	$E7
	.byte	$77
	.byte	$02
_message329:
	.byte	$79
	.byte	$88
	.byte	$9E
	.byte	$74
	.byte	$1B
	.byte	$D6
	.byte	$31
	.byte	$74
	.byte	$E3
	.byte	$B3
	.byte	$74
	.byte	$DB
	.byte	$0B
	.byte	$BA
	.byte	$81
	.byte	$2B
	.byte	$C4
	.byte	$A7
	.byte	$84
	.byte	$B5
	.byte	$A6
	.byte	$2F
	.byte	$DD
	.byte	$FD
	.byte	$C2
	.byte	$38
	.byte	$CD
	.byte	$43
	.byte	$34
	.byte	$65
	.byte	$CF
	.byte	$AF
	.byte	$E9
	.byte	$06
	.byte	$2E
	.byte	$15
	.byte	$86
	.byte	$A2
	.byte	$0B
	.byte	$3B
	.byte	$95
	.byte	$BF
	.byte	$FB
	.byte	$88
	.byte	$4E
	.byte	$79
	.byte	$A8
	.byte	$7E
	.byte	$E9
	.byte	$84
	.byte	$FA
	.byte	$DD
	.byte	$78
	.byte	$C8
	.byte	$6F
	.byte	$BC
	.byte	$9E
	.byte	$29
	.byte	$FB
	.byte	$35
	.byte	$4E
	.byte	$C3
	.byte	$D0
	.byte	$27
	.byte	$B1
	.byte	$D6
	.byte	$35
	.byte	$0E
	.byte	$E9
	.byte	$75
	.byte	$BA
	.byte	$FD
	.byte	$5A
	.byte	$CF
	.byte	$68
	.byte	$FC
	.byte	$CA
	.byte	$11
	.byte	$A1
	.byte	$6E
	.byte	$3C
	.byte	$D4
	.byte	$A7
	.byte	$9E
	.byte	$EC
	.byte	$30
	.byte	$45
	.byte	$97
	.byte	$3E
	.byte	$63
	.byte	$E9
	.byte	$F5
	.byte	$2D
	.byte	$0D
	.byte	$7F
	.byte	$33
	.byte	$7E
	.byte	$F8
	.byte	$FA
	.byte	$22
	.byte	$C4
	.byte	$6F
	.byte	$60
	.byte	$9D
	.byte	$50
	.byte	$BF
	.byte	$1B
	.byte	$6C
	.byte	$3D
	.byte	$A3
	.byte	$69
	.byte	$76
	.byte	$34
	.byte	$F3
	.byte	$8C
	.byte	$6E
	.byte	$E0
	.byte	$C2
	.byte	$94
	.byte	$9F
	.byte	$41
	.byte	$19
	.byte	$00
_message330:
	.byte	$B9
	.byte	$79
	.byte	$2C
	.byte	$FD
	.byte	$AA
	.byte	$FF
	.byte	$62
	.byte	$6D
	.byte	$32
	.byte	$FC
	.byte	$EE
	.byte	$37
	.byte	$86
	.byte	$46
	.byte	$48
	.byte	$77
	.byte	$E8
	.byte	$67
	.byte	$6E
	.byte	$5D
	.byte	$9A
	.byte	$66
	.byte	$BF
	.byte	$DE
	.byte	$6A
	.byte	$63
	.byte	$5D
	.byte	$D3
	.byte	$94
	.byte	$45
	.byte	$E3
	.byte	$F5
	.byte	$33
	.byte	$99
	.byte	$5F
	.byte	$E9
	.byte	$EC
	.byte	$4D
	.byte	$E1
	.byte	$38
	.byte	$8E
	.byte	$AB
	.byte	$96
	.byte	$3B
	.byte	$FE
	.byte	$EA
	.byte	$B0
	.byte	$7D
	.byte	$5F
	.byte	$2A
	.byte	$4F
	.byte	$0E
	.byte	$4F
	.byte	$A8
	.byte	$F1
	.byte	$8F
	.byte	$32
	.byte	$00
_message331:
	.byte	$39
	.byte	$D1
	.byte	$5B
	.byte	$89
	.byte	$CF
	.byte	$FD
	.byte	$C6
	.byte	$AE
	.byte	$67
	.byte	$A5
	.byte	$C1
	.byte	$43
	.byte	$CB
	.byte	$65
	.byte	$2E
	.byte	$5D
	.byte	$A8
	.byte	$D3
	.byte	$1D
	.byte	$B4
	.byte	$DC
	.byte	$54
	.byte	$50
	.byte	$19
	.byte	$9E
	.byte	$F2
	.byte	$6D
	.byte	$3C
	.byte	$D1
	.byte	$BB
	.byte	$DF
	.byte	$D8
	.byte	$85
	.byte	$CA
	.byte	$9F
	.byte	$D2
	.byte	$98
	.byte	$BE
	.byte	$4D
	.byte	$05
	.byte	$5D
	.byte	$09
	.byte	$86
	.byte	$46
	.byte	$88
	.byte	$7C
	.byte	$C9
	.byte	$D3
	.byte	$6F
	.byte	$84
	.byte	$D4
	.byte	$AD
	.byte	$CF
	.byte	$3F
	.byte	$86
	.byte	$BA
	.byte	$78
	.byte	$33
	.byte	$9F
	.byte	$2D
	.byte	$1A
	.byte	$21
	.byte	$F2
	.byte	$5D
	.byte	$FE
	.byte	$BB
	.byte	$B6
	.byte	$59
	.byte	$1F
	.byte	$6A
	.byte	$84
	.byte	$08
	.byte	$BA
	.byte	$3C
	.byte	$4A
	.byte	$F3
	.byte	$5B
	.byte	$BC
	.byte	$92
	.byte	$A7
	.byte	$3A
	.byte	$7C
	.byte	$E8
	.byte	$59
	.byte	$A9
	.byte	$AF
	.byte	$FA
	.byte	$B4
	.byte	$DC
	.byte	$87
	.byte	$1A
	.byte	$21
	.byte	$82
	.byte	$A6
	.byte	$59
	.byte	$CA
	.byte	$DE
	.byte	$FD
	.byte	$C6
	.byte	$AE
	.byte	$F1
	.byte	$AA
	.byte	$D8
	.byte	$37
	.byte	$B9
	.byte	$22
	.byte	$76
	.byte	$32
	.byte	$19
	.byte	$B0
	.byte	$A2
	.byte	$4F
	.byte	$CB
	.byte	$35
	.byte	$E2
	.byte	$42
	.byte	$8D
	.byte	$57
	.byte	$6F
	.byte	$5F
	.byte	$F2
	.byte	$F4
	.byte	$43
	.byte	$3D
	.byte	$5B
	.byte	$B3
	.byte	$EF
	.byte	$1F
	.byte	$6A
	.byte	$FC
	.byte	$D2
	.byte	$FC
	.byte	$16
	.byte	$D1
	.byte	$CC
	.byte	$F3
	.byte	$8F
	.byte	$C1
	.byte	$09
	.byte	$00
_message332:
	.byte	$2E
	.byte	$D2
	.byte	$ED
	.byte	$C9
	.byte	$DB
	.byte	$61
	.byte	$3A
	.byte	$A5
	.byte	$F2
	.byte	$89
	.byte	$7C
	.byte	$37
	.byte	$70
	.byte	$E5
	.byte	$2B
	.byte	$3E
	.byte	$C1
	.byte	$14
	.byte	$EE
	.byte	$EE
	.byte	$DF
	.byte	$08
	.byte	$E9
	.byte	$FE
	.byte	$BC
	.byte	$4F
	.byte	$7F
	.byte	$DB
	.byte	$60
	.byte	$DF
	.byte	$CD
	.byte	$CB
	.byte	$E9
	.byte	$38
	.byte	$CD
	.byte	$CD
	.byte	$FF
	.byte	$BA
	.byte	$EA
	.byte	$95
	.byte	$04
	.byte	$D3
	.byte	$43
	.byte	$DB
	.byte	$F5
	.byte	$9B
	.byte	$7E
	.byte	$DF
	.byte	$CF
	.byte	$9E
	.byte	$D3
	.byte	$75
	.byte	$CD
	.byte	$C6
	.byte	$5F
	.byte	$84
	.byte	$9A
	.byte	$66
	.byte	$1D
	.byte	$D1
	.byte	$CC
	.byte	$27
	.byte	$58
	.byte	$9C
	.byte	$50
	.byte	$D7
	.byte	$36
	.byte	$9C
	.byte	$9E
	.byte	$65
	.byte	$28
	.byte	$03
_message333:
	.byte	$79
	.byte	$88
	.byte	$7A
	.byte	$EB
	.byte	$FE
	.byte	$B4
	.byte	$5D
	.byte	$E6
	.byte	$D2
	.byte	$84
	.byte	$0A
	.byte	$1B
	.byte	$DE
	.byte	$51
	.byte	$F9
	.byte	$7D
	.byte	$FB
	.byte	$F8
	.byte	$7C
	.byte	$D3
	.byte	$78
	.byte	$4D
	.byte	$7C
	.byte	$4B
	.byte	$5F
	.byte	$64
	.byte	$42
	.byte	$8D
	.byte	$D7
	.byte	$78
	.byte	$3B
	.byte	$6C
	.byte	$DD
	.byte	$D8
	.byte	$F5
	.byte	$D7
	.byte	$1A
	.byte	$F1
	.byte	$FA
	.byte	$3B
	.byte	$4C
	.byte	$D1
	.byte	$B3
	.byte	$C4
	.byte	$88
	.byte	$47
	.byte	$3D
	.byte	$B9
	.byte	$A2
	.byte	$DB
	.byte	$C1
	.byte	$A6
	.byte	$F1
	.byte	$2A
	.byte	$BF
	.byte	$6F
	.byte	$1F
	.byte	$CF
	.byte	$E0
	.byte	$D4
	.byte	$4D
	.byte	$F6
	.byte	$D6
	.byte	$7A
	.byte	$A2
	.byte	$29
	.byte	$8B
	.byte	$66
	.byte	$5E
	.byte	$2F
	.byte	$7D
	.byte	$F3
	.byte	$FA
	.byte	$B7
	.byte	$38
	.byte	$95
	.byte	$69
	.byte	$04
	.byte	$39
	.byte	$36
	.byte	$DD
	.byte	$BC
	.byte	$1C
	.byte	$83
	.byte	$32
	.byte	$00
_message334:
	.byte	$6E
	.byte	$1D
	.byte	$5E
	.byte	$E8
	.byte	$99
	.byte	$C2
	.byte	$E2
	.byte	$15
	.byte	$EB
	.byte	$F7
	.byte	$B3
	.byte	$67
	.byte	$F4
	.byte	$A4
	.byte	$F2
	.byte	$FB
	.byte	$F6
	.byte	$F1
	.byte	$F9
	.byte	$26
	.byte	$5C
	.byte	$73
	.byte	$4C
	.byte	$37
	.byte	$70
	.byte	$CA
	.byte	$82
	.byte	$E8
	.byte	$49
	.byte	$13
	.byte	$DF
	.byte	$D2
	.byte	$17
	.byte	$99
	.byte	$50
	.byte	$7F
	.byte	$DB
	.byte	$BC
	.byte	$E9
	.byte	$84
	.byte	$0A
	.byte	$A2
	.byte	$6B
	.byte	$64
	.byte	$1C
	.byte	$C7
	.byte	$69
	.byte	$E2
	.byte	$5B
	.byte	$FA
	.byte	$22
	.byte	$43
	.byte	$19
	.byte	$00
_message335:
	.byte	$79
	.byte	$88
	.byte	$2A
	.byte	$DF
	.byte	$1B
	.byte	$3D
	.byte	$F2
	.byte	$8C
	.byte	$50
	.byte	$E5
	.byte	$9B
	.byte	$19
	.byte	$DE
	.byte	$DF
	.byte	$71
	.byte	$9C
	.byte	$00
_message336:
	.byte	$79
	.byte	$88
	.byte	$7A
	.byte	$FB
	.byte	$AE
	.byte	$F4
	.byte	$F2
	.byte	$4D
	.byte	$B3
	.byte	$6F
	.byte	$02
	.byte	$FD
	.byte	$1D
	.byte	$A6
	.byte	$E8
	.byte	$0E
	.byte	$7D
	.byte	$91
	.byte	$4B
	.byte	$1F
	.byte	$2A
	.byte	$CD
	.byte	$1F
	.byte	$CF
	.byte	$AE
	.byte	$E8
	.byte	$FE
	.byte	$96
	.byte	$86
	.byte	$19
	.byte	$A6
	.byte	$68
	.byte	$9A
	.byte	$7D
	.byte	$63
	.byte	$AC
	.byte	$73
	.byte	$02
_message337:
	.byte	$79
	.byte	$88
	.byte	$7A
	.byte	$EB
	.byte	$02
	.byte	$6D
	.byte	$2F
	.byte	$68
	.byte	$BC
	.byte	$C6
	.byte	$23
	.byte	$0F
	.byte	$3A
	.byte	$8D
	.byte	$D7
	.byte	$4F
	.byte	$09
	.byte	$6B
	.byte	$4D
	.byte	$73
	.byte	$81
	.byte	$FA
	.byte	$CC
	.byte	$5F
	.byte	$EA
	.byte	$BD
	.byte	$A5
	.byte	$EF
	.byte	$F2
	.byte	$4D
	.byte	$E0
	.byte	$94
	.byte	$BD
	.byte	$29
	.byte	$CF
	.byte	$5A
	.byte	$93
	.byte	$8B
	.byte	$4E
	.byte	$C3
	.byte	$AE
	.byte	$CA
	.byte	$43
	.byte	$7E
	.byte	$CF
	.byte	$BA
	.byte	$1D
	.byte	$E2
	.byte	$75
	.byte	$79
	.byte	$E9
	.byte	$F6
	.byte	$E4
	.byte	$ED
	.byte	$30
	.byte	$9D
	.byte	$50
	.byte	$E3
	.byte	$93
	.byte	$6F
	.byte	$7A
	.byte	$FD
	.byte	$2B
	.byte	$CD
	.byte	$1F
	.byte	$CF
	.byte	$AE
	.byte	$11
	.byte	$22
	.byte	$DF
	.byte	$95
	.byte	$5E
	.byte	$DE
	.byte	$69
	.byte	$18
	.byte	$9A
	.byte	$99
	.byte	$B5
	.byte	$AE
	.byte	$DE
	.byte	$9A
	.byte	$F1
	.byte	$9C
	.byte	$79
	.byte	$53
	.byte	$84
	.byte	$2A
	.byte	$D3
	.byte	$A3
	.byte	$6D
	.byte	$18
	.byte	$8C
	.byte	$73
	.byte	$1C
	.byte	$27
	.byte	$00
_message338:
	.byte	$F9
	.byte	$21
	.byte	$D7
	.byte	$4F
	.byte	$09
	.byte	$6B
	.byte	$5D
	.byte	$5F
	.byte	$04
	.byte	$7D
	.byte	$51
	.byte	$46
	.byte	$D7
	.byte	$0B
	.byte	$BA
	.byte	$C6
	.byte	$A6
	.byte	$11
	.byte	$22
	.byte	$E8
	.byte	$C2
	.byte	$BE
	.byte	$C9
	.byte	$A5
	.byte	$EB
	.byte	$6F
	.byte	$60
	.byte	$F5
	.byte	$8C
	.byte	$1A
	.byte	$AE
	.byte	$BB
	.byte	$E7
	.byte	$6B
	.byte	$84
	.byte	$08
	.byte	$BA
	.byte	$F4
	.byte	$CD
	.byte	$1D
	.byte	$4E
	.byte	$00
_message339:
	.byte	$2E
	.byte	$55
	.byte	$2C
	.byte	$BD
	.byte	$AE
	.byte	$2B
	.byte	$5F
	.byte	$06
	.byte	$7C
	.byte	$2B
	.byte	$8D
	.byte	$4D
	.byte	$BF
	.byte	$E4
	.byte	$F3
	.byte	$A1
	.byte	$8A
	.byte	$FD
	.byte	$F5
	.byte	$52
	.byte	$16
	.byte	$D5
	.byte	$DB
	.byte	$2E
	.byte	$65
	.byte	$D1
	.byte	$08
	.byte	$11
	.byte	$E2
	.byte	$25
	.byte	$65
	.byte	$6F
	.byte	$BF
	.byte	$77
	.byte	$1A
	.byte	$86
	.byte	$3E
	.byte	$89
	.byte	$B5
	.byte	$AE
	.byte	$11
	.byte	$52
	.byte	$C5
	.byte	$BE
	.byte	$4D
	.byte	$A8
	.byte	$DB
	.byte	$28
	.byte	$63
	.byte	$E9
	.byte	$35
	.byte	$03
	.byte	$DE
	.byte	$9F
	.byte	$F5
	.byte	$FA
	.byte	$5D
	.byte	$EA
	.byte	$E3
	.byte	$3D
	.byte	$1B
	.byte	$9A
	.byte	$D7
	.byte	$BF
	.byte	$24
	.byte	$6F
	.byte	$D3
	.byte	$FD
	.byte	$BB
	.byte	$79
	.byte	$56
	.byte	$9E
	.byte	$6D
	.byte	$9B
	.byte	$DA
	.byte	$58
	.byte	$0D
	.byte	$CD
	.byte	$FE
	.byte	$51
	.byte	$06
	.byte	$00
_message340:
	.byte	$61
	.byte	$E8
	.byte	$36
	.byte	$8A
	.byte	$B5
	.byte	$AE
	.byte	$24
	.byte	$22
	.byte	$18
	.byte	$15
	.byte	$E2
	.byte	$25
	.byte	$65
	.byte	$6F
	.byte	$BF
	.byte	$A5
	.byte	$5F
	.byte	$5A
	.byte	$AE
	.byte	$29
	.byte	$7B
	.byte	$88
	.byte	$60
	.byte	$5C
	.byte	$23
	.byte	$44
	.byte	$BE
	.byte	$DB
	.byte	$41
	.byte	$F9
	.byte	$9B
	.byte	$39
	.byte	$99
	.byte	$35
	.byte	$99
	.byte	$17
	.byte	$84
	.byte	$BA
	.byte	$81
	.byte	$AB
	.byte	$FC
	.byte	$2B
	.byte	$33
	.byte	$BC
	.byte	$3F
	.byte	$A3
	.byte	$27
	.byte	$DD
	.byte	$6E
	.byte	$76
	.byte	$EA
	.byte	$F4
	.byte	$AC
	.byte	$C3
	.byte	$E3
	.byte	$04
	.byte	$00
_message341:
	.byte	$39
	.byte	$D1
	.byte	$EC
	.byte	$5F
	.byte	$97
	.byte	$FA
	.byte	$78
	.byte	$AF
	.byte	$E8
	.byte	$06
	.byte	$EE
	.byte	$9B
	.byte	$5D
	.byte	$97
	.byte	$BF
	.byte	$CA
	.byte	$51
	.byte	$F9
	.byte	$2A
	.byte	$E8
	.byte	$ED
	.byte	$FB
	.byte	$D3
	.byte	$67
	.byte	$D7
	.byte	$08
	.byte	$A9
	.byte	$F2
	.byte	$6F
	.byte	$BF
	.byte	$D6
	.byte	$14
	.byte	$8D
	.byte	$90
	.byte	$2A
	.byte	$3F
	.byte	$9D
	.byte	$85
	.byte	$EA
	.byte	$EF
	.byte	$30
	.byte	$9D
	.byte	$1A
	.byte	$A4
	.byte	$0C
	.byte	$DA
	.byte	$A6
	.byte	$11
	.byte	$D7
	.byte	$7D
	.byte	$58
	.byte	$CF
	.byte	$69
	.byte	$0E
	.byte	$2F
	.byte	$F2
	.byte	$D5
	.byte	$2B
	.byte	$88
	.byte	$1E
	.byte	$6D
	.byte	$A3
	.byte	$13
	.byte	$EA
	.byte	$59
	.byte	$33
	.byte	$63
	.byte	$71
	.byte	$BA
	.byte	$70
	.byte	$3D
	.byte	$69
	.byte	$04
	.byte	$6D
	.byte	$D3
	.byte	$CC
	.byte	$D1
	.byte	$72
	.byte	$D3
	.byte	$78
	.byte	$55
	.byte	$3F
	.byte	$DD
	.byte	$3E
	.byte	$32
	.byte	$9C
	.byte	$00
_message342:
	.byte	$79
	.byte	$88
	.byte	$7A
	.byte	$AB
	.byte	$0D
	.byte	$EF
	.byte	$2F
	.byte	$B7
	.byte	$D6
	.byte	$ED
	.byte	$53
	.byte	$F5
	.byte	$66
	.byte	$90
	.byte	$50
	.byte	$DF
	.byte	$52
	.byte	$16
	.byte	$5D
	.byte	$E8
	.byte	$BA
	.byte	$2A
	.byte	$0F
	.byte	$F9
	.byte	$35
	.byte	$5C
	.byte	$D7
	.byte	$A8
	.byte	$82
	.byte	$F9
	.byte	$0D
	.byte	$D7
	.byte	$08
	.byte	$69
	.byte	$BE
	.byte	$F8
	.byte	$F4
	.byte	$56
	.byte	$B6
	.byte	$B9
	.byte	$FA
	.byte	$05
	.byte	$BF
	.byte	$53
	.byte	$06
	.byte	$00
_message343:
	.byte	$E1
	.byte	$B3
	.byte	$AE
	.byte	$DB
	.byte	$BD
	.byte	$7C
	.byte	$E2
	.byte	$69
	.byte	$BC
	.byte	$0A
	.byte	$68
	.byte	$9B
	.byte	$50
	.byte	$F9
	.byte	$D2
	.byte	$6C
	.byte	$60
	.byte	$9D
	.byte	$C6
	.byte	$6B
	.byte	$66
	.byte	$68
	.byte	$39
	.byte	$34
	.byte	$12
	.byte	$C3
	.byte	$13
	.byte	$2A
	.byte	$52
	.byte	$9A
	.byte	$9E
	.byte	$74
	.byte	$3D
	.byte	$A7
	.byte	$C9
	.byte	$3C
	.byte	$3D
	.byte	$8D
	.byte	$90
	.byte	$BA
	.byte	$F5
	.byte	$F9
	.byte	$C7
	.byte	$50
	.byte	$17
	.byte	$6F
	.byte	$E6
	.byte	$B3
	.byte	$4E
	.byte	$C3
	.byte	$7C
	.byte	$F3
	.byte	$7A
	.byte	$2C
	.byte	$9D
	.byte	$EE
	.byte	$CF
	.byte	$68
	.byte	$BC
	.byte	$0E
	.byte	$4F
	.byte	$D7
	.byte	$95
	.byte	$44
	.byte	$1C
	.byte	$9B
	.byte	$46
	.byte	$5C
	.byte	$E3
	.byte	$6D
	.byte	$67
	.byte	$7A
	.byte	$3D
	.byte	$2B
	.byte	$F9
	.byte	$7C
	.byte	$4D
	.byte	$23
	.byte	$C3
	.byte	$57
	.byte	$9E
	.byte	$B5
	.byte	$2E
	.byte	$54
	.byte	$AA
	.byte	$F8
	.byte	$A2
	.byte	$24
	.byte	$38
	.byte	$5E
	.byte	$51
	.byte	$6F
	.byte	$DF
	.byte	$05
	.byte	$3E
	.byte	$34
	.byte	$5E
	.byte	$69
	.byte	$F0
	.byte	$D0
	.byte	$72
	.byte	$99
	.byte	$4B
	.byte	$D7
	.byte	$94
	.byte	$45
	.byte	$CF
	.byte	$0C
	.byte	$34
	.byte	$7D
	.byte	$6F
	.byte	$D3
	.byte	$17
	.byte	$F9
	.byte	$D2
	.byte	$FC
	.byte	$16
	.byte	$E1
	.byte	$EE
	.byte	$FE
	.byte	$8D
	.byte	$90
	.byte	$66
	.byte	$9E
	.byte	$7F
	.byte	$0C
	.byte	$4E
	.byte	$00
_message344:
	.byte	$61
	.byte	$63
	.byte	$D3
	.byte	$88
	.byte	$EB
	.byte	$02
	.byte	$6D
	.byte	$9F
	.byte	$D2
	.byte	$D5
	.byte	$C0
	.byte	$17
	.byte	$6A
	.byte	$9A
	.byte	$1D
	.byte	$5D
	.byte	$68
	.byte	$5E
	.byte	$FF
	.byte	$92
	.byte	$BC
	.byte	$4D
	.byte	$9F
	.byte	$C4
	.byte	$5A
	.byte	$A8
	.byte	$F2
	.byte	$AF
	.byte	$74
	.byte	$F6
	.byte	$3A
	.byte	$CD
	.byte	$EB
	.byte	$5F
	.byte	$D2
	.byte	$AC
	.byte	$77
	.byte	$1C
	.byte	$27
	.byte	$00
_message345:
	.byte	$2E
	.byte	$DD
	.byte	$0E
	.byte	$F1
	.byte	$BA
	.byte	$7C
	.byte	$93
	.byte	$BF
	.byte	$6E
	.byte	$43
	.byte	$D3
	.byte	$F7
	.byte	$3D
	.byte	$E9
	.byte	$7A
	.byte	$4E
	.byte	$93
	.byte	$79
	.byte	$7A
	.byte	$BA
	.byte	$C6
	.byte	$A6
	.byte	$F1
	.byte	$2A
	.byte	$A0
	.byte	$6D
	.byte	$FA
	.byte	$96
	.byte	$B2
	.byte	$04
	.byte	$D6
	.byte	$BA
	.byte	$50
	.byte	$33
	.byte	$67
	.byte	$D8
	.byte	$61
	.byte	$8A
	.byte	$CA
	.byte	$93
	.byte	$C3
	.byte	$AF
	.byte	$E7
	.byte	$34
	.byte	$0C
	.byte	$3B
	.byte	$95
	.byte	$DF
	.byte	$A6
	.byte	$D7
	.byte	$ED
	.byte	$10
	.byte	$AF
	.byte	$11
	.byte	$22
	.byte	$DF
	.byte	$95
	.byte	$39
	.byte	$A3
	.byte	$E1
	.byte	$04
	.byte	$00
_message346:
	.byte	$14
	.byte	$50
	.byte	$43
	.byte	$F9
	.byte	$F6
	.byte	$37
	.byte	$74
	.byte	$61
	.byte	$DF
	.byte	$18
	.byte	$DD
	.byte	$61
	.byte	$D3
	.byte	$85
	.byte	$EA
	.byte	$75
	.byte	$96
	.byte	$9E
	.byte	$5D
	.byte	$BF
	.byte	$1B
	.byte	$38
	.byte	$82
	.byte	$51
	.byte	$C5
	.byte	$BE
	.byte	$4D
	.byte	$CF
	.byte	$9A
	.byte	$D7
	.byte	$63
	.byte	$E9
	.byte	$74
	.byte	$9F
	.byte	$38
	.byte	$94
	.byte	$01
_message347:
	.byte	$79
	.byte	$88
	.byte	$CA
	.byte	$37
	.byte	$0D
	.byte	$C7
	.byte	$6F
	.byte	$CA
	.byte	$A2
	.byte	$D9
	.byte	$BF
	.byte	$BE
	.byte	$EA
	.byte	$A7
	.byte	$F4
	.byte	$3A
	.byte	$7D
	.byte	$E9
	.byte	$7A
	.byte	$4E
	.byte	$93
	.byte	$79
	.byte	$7A
	.byte	$BA
	.byte	$81
	.byte	$BB
	.byte	$12
	.byte	$2C
	.byte	$82
	.byte	$11
	.byte	$AA
	.byte	$A2
	.byte	$86
	.byte	$2E
	.byte	$5C
	.byte	$E3
	.byte	$ED
	.byte	$30
	.byte	$BD
	.byte	$F4
	.byte	$3A
	.byte	$E1
	.byte	$02
_message348:
	.byte	$61
	.byte	$D8
	.byte	$A9
	.byte	$FC
	.byte	$F5
	.byte	$F6
	.byte	$5D
	.byte	$D8
	.byte	$37
	.byte	$B9
	.byte	$74
	.byte	$6B
	.byte	$DD
	.byte	$FE
	.byte	$DD
	.byte	$7D
	.byte	$26
	.byte	$F3
	.byte	$25
	.byte	$C1
	.byte	$71
	.byte	$68
	.byte	$1B
	.byte	$F9
	.byte	$50
	.byte	$E3
	.byte	$35
	.byte	$AF
	.byte	$87
	.byte	$08
	.byte	$9A
	.byte	$B2
	.byte	$E8
	.byte	$BA
	.byte	$2A
	.byte	$0F
	.byte	$F9
	.byte	$36
	.byte	$35
	.byte	$88
	.byte	$A0
	.byte	$E9
	.byte	$4D
	.byte	$CF
	.byte	$50
	.byte	$BF
	.byte	$5F
	.byte	$84
	.byte	$13
	.byte	$00
_message349:
	.byte	$39
	.byte	$C6
	.byte	$0A
	.byte	$A2
	.byte	$DB
	.byte	$7D
	.byte	$02
	.byte	$39
	.byte	$82
	.byte	$BE
	.byte	$C5
	.byte	$67
	.byte	$F4
	.byte	$AC
	.byte	$F4
	.byte	$F1
	.byte	$34
	.byte	$8D
	.byte	$35
	.byte	$42
	.byte	$E4
	.byte	$BB
	.byte	$FB
	.byte	$4C
	.byte	$E6
	.byte	$6B
	.byte	$10
	.byte	$41
	.byte	$F5
	.byte	$57
	.byte	$CA
	.byte	$22
	.byte	$D4
	.byte	$F8
	.byte	$57
	.byte	$86
	.byte	$EA
	.byte	$F7
	.byte	$BB
	.byte	$C3
	.byte	$09
	.byte	$00
_message350:
	.byte	$61
	.byte	$63
	.byte	$D3
	.byte	$08
	.byte	$5A
	.byte	$AE
	.byte	$4B
	.byte	$D9
	.byte	$EF
	.byte	$30
	.byte	$BD
	.byte	$C6
	.byte	$6B
	.byte	$06
	.byte	$CC
	.byte	$53
	.byte	$BD
	.byte	$ED
	.byte	$D2
	.byte	$35
	.byte	$42
	.byte	$84
	.byte	$B8
	.byte	$9D
	.byte	$FA
	.byte	$B2
	.byte	$7E
	.byte	$7F
	.byte	$F7
	.byte	$1B
	.byte	$83
	.byte	$D3
	.byte	$FC
	.byte	$BC
	.byte	$F5
	.byte	$A2
	.byte	$6F
	.byte	$53
	.byte	$E5
	.byte	$6F
	.byte	$BC
	.byte	$CA
	.byte	$F0
	.byte	$F4
	.byte	$1A
	.byte	$3D
	.byte	$2A
	.byte	$DE
	.byte	$E8
	.byte	$EC
	.byte	$35
	.byte	$03
	.byte	$E6
	.byte	$2B
	.byte	$5F
	.byte	$F2
	.byte	$4C
	.byte	$5E
	.byte	$53
	.byte	$16
	.byte	$5D
	.byte	$60
	.byte	$F2
	.byte	$C8
	.byte	$B7
	.byte	$E9
	.byte	$06
	.byte	$AE
	.byte	$0E
	.byte	$2D
	.byte	$07
	.byte	$46
	.byte	$4F
	.byte	$9A
	.byte	$C0
	.byte	$24
	.byte	$44
	.byte	$A6
	.byte	$F1
	.byte	$A5
	.byte	$F6
	.byte	$6B
	.byte	$9C
	.byte	$00
_message351:
	.byte	$61
	.byte	$63
	.byte	$D3
	.byte	$ED
	.byte	$59
	.byte	$D1
	.byte	$08
	.byte	$11
	.byte	$02
	.byte	$6B
	.byte	$9B
	.byte	$75
	.byte	$EE
	.byte	$37
	.byte	$86
	.byte	$50
	.byte	$6D
	.byte	$AC
	.byte	$99
	.byte	$67
	.byte	$34
	.byte	$BE
	.byte	$D9
	.byte	$39
	.byte	$CD
	.byte	$D3
	.byte	$6D
	.byte	$AE
	.byte	$36
	.byte	$56
	.byte	$BD
	.byte	$2E
	.byte	$30
	.byte	$39
	.byte	$36
	.byte	$A1
	.byte	$CA
	.byte	$74
	.byte	$0D
	.byte	$65
	.byte	$00
_message352:
	.byte	$61
	.byte	$63
	.byte	$D3
	.byte	$08
	.byte	$5A
	.byte	$AE
	.byte	$6B
	.byte	$13
	.byte	$58
	.byte	$BC
	.byte	$78
	.byte	$25
	.byte	$7F
	.byte	$5D
	.byte	$D3
	.byte	$DB
	.byte	$6C
	.byte	$D7
	.byte	$34
	.byte	$A6
	.byte	$30
	.byte	$98
	.byte	$5E
	.byte	$69
	.byte	$B9
	.byte	$0E
	.byte	$D3
	.byte	$6F
	.byte	$D7
	.byte	$08
	.byte	$69
	.byte	$E6
	.byte	$F9
	.byte	$C7
	.byte	$50
	.byte	$17
	.byte	$6F
	.byte	$E6
	.byte	$B3
	.byte	$4E
	.byte	$C3
	.byte	$C6
	.byte	$A6
	.byte	$99
	.byte	$33
	.byte	$EC
	.byte	$30
	.byte	$45
	.byte	$6F
	.byte	$E9
	.byte	$F0
	.byte	$BD
	.byte	$5E
	.byte	$D1
	.byte	$88
	.byte	$34
	.byte	$FC
	.byte	$7A
	.byte	$4D
	.byte	$63
	.byte	$5D
	.byte	$09
	.byte	$86
	.byte	$C6
	.byte	$2B
	.byte	$ED
	.byte	$C1
	.byte	$FC
	.byte	$3D
	.byte	$6B
	.byte	$F2
	.byte	$D7
	.byte	$93
	.byte	$66
	.byte	$9E
	.byte	$7F
	.byte	$0C
	.byte	$05
	.byte	$D1
	.byte	$8D
	.byte	$47
	.byte	$9F
	.byte	$1E
	.byte	$BB
	.byte	$A5
	.byte	$EF
	.byte	$34
	.byte	$77
	.byte	$B4
	.byte	$79
	.byte	$9B
	.byte	$46
	.byte	$5C
	.byte	$F3
	.byte	$FA
	.byte	$57
	.byte	$E5
	.byte	$29
	.byte	$F9
	.byte	$EB
	.byte	$9A
	.byte	$FD
	.byte	$9E
	.byte	$34
	.byte	$CD
	.byte	$06
	.byte	$4E
	.byte	$D9
	.byte	$9B
	.byte	$7E
	.byte	$33
	.byte	$C3
	.byte	$FB
	.byte	$37
	.byte	$5E
	.byte	$15
	.byte	$4B
	.byte	$3F
	.byte	$54
	.byte	$6F
	.byte	$DF
	.byte	$0D
	.byte	$DC
	.byte	$A1
	.byte	$CD
	.byte	$DB
	.byte	$34
	.byte	$E2
	.byte	$9A
	.byte	$D7
	.byte	$BF
	.byte	$2A
	.byte	$4F
	.byte	$33
	.byte	$47
	.byte	$CB
	.byte	$35
	.byte	$5E
	.byte	$F3
	.byte	$3F
	.byte	$EC
	.byte	$57
	.byte	$2E
	.byte	$9B
	.byte	$FF
	.byte	$DF
	.byte	$17
	.byte	$B4
	.byte	$1B
	.byte	$B8
	.byte	$27
	.byte	$CD
	.byte	$80
	.byte	$7E
	.byte	$9D
	.byte	$50
	.byte	$F3
	.byte	$FF
	.byte	$DB
	.byte	$75
	.byte	$03
	.byte	$F7
	.byte	$BA
	.byte	$8D
	.byte	$EC
	.byte	$63
	.byte	$17
	.byte	$6A
	.byte	$78
	.byte	$1C
	.byte	$54
	.byte	$64
	.byte	$17
	.byte	$0C
	.byte	$99
	.byte	$6E
	.byte	$E0
	.byte	$D2
	.byte	$72
	.byte	$3D
	.byte	$53
	.byte	$2C
	.byte	$3D
	.byte	$BB
	.byte	$A2
	.byte	$AE
	.byte	$F8
	.byte	$DF
	.byte	$BD
	.byte	$22
	.byte	$D3
	.byte	$0D
	.byte	$5C
	.byte	$99
	.byte	$2E
	.byte	$9D
	.byte	$FD
	.byte	$D3
	.byte	$38
	.byte	$01
_message353:
	.byte	$14
	.byte	$AE
	.byte	$D9
	.byte	$29
	.byte	$7D
	.byte	$4F
	.byte	$34
	.byte	$42
	.byte	$75
	.byte	$AA
	.byte	$5E
	.byte	$75
	.byte	$9A
	.byte	$D7
	.byte	$43
	.byte	$9A
	.byte	$B2
	.byte	$E8
	.byte	$BA
	.byte	$92
	.byte	$88
	.byte	$A0
	.byte	$0C
	.byte	$00
_message354:
	.byte	$79
	.byte	$88
	.byte	$0A
	.byte	$F1
	.byte	$A2
	.byte	$CF
	.byte	$E8
	.byte	$F0
	.byte	$D1
	.byte	$67
	.byte	$2F
	.byte	$28
	.byte	$9F
	.byte	$91
	.byte	$30
	.byte	$AF
	.byte	$53
	.byte	$83
	.byte	$C8
	.byte	$D7
	.byte	$F5
	.byte	$F1
	.byte	$EF
	.byte	$17
	.byte	$D1
	.byte	$78
	.byte	$75
	.byte	$F1
	.byte	$66
	.byte	$3E
	.byte	$5B
	.byte	$34
	.byte	$7E
	.byte	$E5
	.byte	$88
	.byte	$EA
	.byte	$88
	.byte	$4E
	.byte	$51
	.byte	$E5
	.byte	$5F
	.byte	$DB
	.byte	$B0
	.byte	$BE
	.byte	$4E
	.byte	$0D
	.byte	$D2
	.byte	$DD
	.byte	$2F
	.byte	$8C
	.byte	$D3
	.byte	$3C
	.byte	$44
	.byte	$33
	.byte	$AF
	.byte	$3A
	.byte	$8D
	.byte	$57
	.byte	$6F
	.byte	$DD
	.byte	$9F
	.byte	$F7
	.byte	$A9
	.byte	$80
	.byte	$A6
	.byte	$C1
	.byte	$3B
	.byte	$4C
	.byte	$51
	.byte	$9E
	.byte	$F5
	.byte	$3A
	.byte	$A1
	.byte	$6E
	.byte	$3C
	.byte	$D4
	.byte	$A7
	.byte	$9E
	.byte	$EC
	.byte	$30
	.byte	$45
	.byte	$BD
	.byte	$75
	.byte	$83
	.byte	$29
	.byte	$E4
	.byte	$D2
	.byte	$74
	.byte	$7A
	.byte	$3B
	.byte	$54
	.byte	$A7
	.byte	$34
	.byte	$23
	.byte	$8D
	.byte	$D3
	.byte	$B0
	.byte	$AB
	.byte	$8D
	.byte	$BE
	.byte	$4D
	.byte	$23
	.byte	$44
	.byte	$D0
	.byte	$FD
	.byte	$53
	.byte	$CA
	.byte	$1E
	.byte	$BA
	.byte	$9D
	.byte	$27
	.byte	$BA
	.byte	$92
	.byte	$67
	.byte	$84
	.byte	$9A
	.byte	$C0
	.byte	$FA
	.byte	$3B
	.byte	$4C
	.byte	$D1
	.byte	$08
	.byte	$E9
	.byte	$7A
	.byte	$A3
	.byte	$3D
	.byte	$1A
	.byte	$AF
	.byte	$79
	.byte	$FD
	.byte	$4B
	.byte	$CA
	.byte	$A2
	.byte	$EB
	.byte	$13
	.byte	$5F
	.byte	$E6
	.byte	$D2
	.byte	$4D
	.byte	$FD
	.byte	$FE
	.byte	$36
	.byte	$4D
	.byte	$59
	.byte	$14
	.byte	$44
	.byte	$F9
	.byte	$F6
	.byte	$5F
	.byte	$3A
	.byte	$FD
	.byte	$EE
	.byte	$9F
	.byte	$52
	.byte	$F6
	.byte	$9E
	.byte	$51
	.byte	$21
	.byte	$5E
	.byte	$F4
	.byte	$19
	.byte	$4E
	.byte	$00
_message355:
	.byte	$79
	.byte	$88
	.byte	$AE
	.byte	$91
	.byte	$E9
	.byte	$FE
	.byte	$BC
	.byte	$4F
	.byte	$A8
	.byte	$54
	.byte	$88
	.byte	$4C
	.byte	$33
	.byte	$67
	.byte	$29
	.byte	$0B
	.byte	$A2
	.byte	$EB
	.byte	$4A
	.byte	$FA
	.byte	$11
	.byte	$74
	.byte	$FF
	.byte	$EE
	.byte	$CF
	.byte	$FB
	.byte	$50
	.byte	$06
	.byte	$00
_message356:
	.byte	$79
	.byte	$88
	.byte	$0A
	.byte	$01
	.byte	$01
	.byte	$FD
	.byte	$A6
	.byte	$E8
	.byte	$52
	.byte	$1F
	.byte	$6F
	.byte	$1A
	.byte	$AF
	.byte	$EA
	.byte	$A7
	.byte	$DB
	.byte	$47
	.byte	$46
	.byte	$A8
	.byte	$CF
	.byte	$8C
	.byte	$F8
	.byte	$3A
	.byte	$4D
	.byte	$63
	.byte	$DD
	.byte	$47
	.byte	$74
	.byte	$4A
	.byte	$FB
	.byte	$A5
	.byte	$E3
	.byte	$04
	.byte	$00
_message357:
	.byte	$79
	.byte	$88
	.byte	$7A
	.byte	$9B
	.byte	$AE
	.byte	$C4
	.byte	$A7
	.byte	$3A
	.byte	$37
	.byte	$7D
	.byte	$D3
	.byte	$4B
	.byte	$D3
	.byte	$B3
	.byte	$6E
	.byte	$0C
	.byte	$FA
	.byte	$5E
	.byte	$A7
	.byte	$02
	.byte	$DA
	.byte	$A6
	.byte	$F1
	.byte	$BA
	.byte	$0F
	.byte	$FD
	.byte	$36
	.byte	$A1
	.byte	$2E
	.byte	$98
	.byte	$FB
	.byte	$37
	.byte	$FD
	.byte	$5A
	.byte	$50
	.byte	$3D
	.byte	$A7
	.byte	$79
	.byte	$88
	.byte	$EE
	.byte	$23
	.byte	$3A
	.byte	$85
	.byte	$80
	.byte	$7E
	.byte	$53
	.byte	$D4
	.byte	$20
	.byte	$F2
	.byte	$5D
	.byte	$FE
	.byte	$FB
	.byte	$7E
	.byte	$29
	.byte	$F8
	.byte	$BB
	.byte	$B0
	.byte	$6F
	.byte	$72
	.byte	$E9
	.byte	$F4
	.byte	$09
	.byte	$27
	.byte	$00
_message358:
	.byte	$79
	.byte	$88
	.byte	$AE
	.byte	$91
	.byte	$A9
	.byte	$80
	.byte	$B6
	.byte	$09
	.byte	$95
	.byte	$0A
	.byte	$91
	.byte	$69
	.byte	$E6
	.byte	$2C
	.byte	$65
	.byte	$41
	.byte	$74
	.byte	$5D
	.byte	$49
	.byte	$3F
	.byte	$82
	.byte	$EE
	.byte	$5F
	.byte	$01
	.byte	$6D
	.byte	$43
	.byte	$19
	.byte	$00
_message359:
	.byte	$F9
	.byte	$21
	.byte	$D7
	.byte	$67
	.byte	$46
	.byte	$BC
	.byte	$A6
	.byte	$2C
	.byte	$9A
	.byte	$66
	.byte	$DF
	.byte	$C6
	.byte	$E8
	.byte	$B1
	.byte	$A9
	.byte	$4C
	.byte	$97
	.byte	$FA
	.byte	$78
	.byte	$D3
	.byte	$78
	.byte	$55
	.byte	$3F
	.byte	$DD
	.byte	$3E
	.byte	$32
	.byte	$BA
	.byte	$C6
	.byte	$A6
	.byte	$FC
	.byte	$99
	.byte	$CC
	.byte	$D9
	.byte	$EB
	.byte	$AD
	.byte	$75
	.byte	$FB
	.byte	$39
	.byte	$75
	.byte	$CD
	.byte	$43
	.byte	$7E
	.byte	$3F
	.byte	$16
	.byte	$EB
	.byte	$F7
	.byte	$B3
	.byte	$67
	.byte	$B9
	.byte	$A6
	.byte	$EC
	.byte	$FD
	.byte	$FE
	.byte	$16
	.byte	$47
	.byte	$AE
	.byte	$69
	.byte	$AC
	.byte	$27
	.byte	$95
	.byte	$E1
	.byte	$A9
	.byte	$CD
	.byte	$8E
	.byte	$50
	.byte	$BD
	.byte	$4D
	.byte	$37
	.byte	$70
	.byte	$BD
	.byte	$8D
	.byte	$E3
	.byte	$38
	.byte	$01
_message360:
	.byte	$6E
	.byte	$66
	.byte	$47
	.byte	$F5
	.byte	$9A
	.byte	$9D
	.byte	$D2
	.byte	$F7
	.byte	$44
	.byte	$23
	.byte	$54
	.byte	$27
	.byte	$D4
	.byte	$85
	.byte	$EB
	.byte	$59
	.byte	$BD
	.byte	$55
	.byte	$26
	.byte	$BD
	.byte	$A0
	.byte	$69
	.byte	$AC
	.byte	$82
	.byte	$6E
	.byte	$CF
	.byte	$D0
	.byte	$EB
	.byte	$4A
	.byte	$9F
	.byte	$C9
	.byte	$BC
	.byte	$BC
	.byte	$C2
	.byte	$A9
	.byte	$1B
	.byte	$BF
	.byte	$7B
	.byte	$B9
	.byte	$C6
	.byte	$AB
	.byte	$1C
	.byte	$95
	.byte	$AF
	.byte	$7C
	.byte	$69
	.byte	$36
	.byte	$1E
	.byte	$9B
	.byte	$AA
	.byte	$57
	.byte	$BD
	.byte	$5E
	.byte	$E5
	.byte	$F5
	.byte	$1A
	.byte	$21
	.byte	$F2
	.byte	$5D
	.byte	$FA
	.byte	$E6
	.byte	$FE
	.byte	$A1
	.byte	$C6
	.byte	$97
	.byte	$AE
	.byte	$C9
	.byte	$64
	.byte	$4E
	.byte	$75
	.byte	$FA
	.byte	$D2
	.byte	$ED
	.byte	$C9
	.byte	$DB
	.byte	$61
	.byte	$3A
	.byte	$4E
	.byte	$00
_message361:
	.byte	$61
	.byte	$63
	.byte	$53
	.byte	$39
	.byte	$2A
	.byte	$5F
	.byte	$97
	.byte	$17
	.byte	$21
	.byte	$DE
	.byte	$F4
	.byte	$D2
	.byte	$14
	.byte	$F4
	.byte	$A9
	.byte	$4E
	.byte	$A8
	.byte	$D7
	.byte	$E5
	.byte	$E7
	.byte	$CA
	.byte	$A7
	.byte	$17
	.byte	$AA
	.byte	$A0
	.byte	$CB
	.byte	$A3
	.byte	$4B
	.byte	$D9
	.byte	$AB
	.byte	$7A
	.byte	$46
	.byte	$D1
	.byte	$34
	.byte	$46
	.byte	$C2
	.byte	$DC
	.byte	$6F
	.byte	$EC
	.byte	$BA
	.byte	$26
	.byte	$DD
	.byte	$CB
	.byte	$39
	.byte	$0D
	.byte	$1B
	.byte	$9B
	.byte	$D2
	.byte	$72
	.byte	$5D
	.byte	$8A
	.byte	$B5
	.byte	$AE
	.byte	$72
	.byte	$54
	.byte	$BE
	.byte	$A6
	.byte	$2C
	.byte	$9A
	.byte	$FD
	.byte	$AB
	.byte	$41
	.byte	$E4
	.byte	$AB
	.byte	$FE
	.byte	$2B
	.byte	$47
	.byte	$65
	.byte	$F0
	.byte	$7D
	.byte	$BF
	.byte	$E9
	.byte	$D7
	.byte	$87
	.byte	$2A
	.byte	$47
	.byte	$E5
	.byte	$AB
	.byte	$FC
	.byte	$4A
	.byte	$F7
	.byte	$7A
	.byte	$8D
	.byte	$5F
	.byte	$F5
	.byte	$D3
	.byte	$ED
	.byte	$23
	.byte	$C3
	.byte	$69
	.byte	$4E
	.byte	$C2
	.byte	$DB
	.byte	$A5
	.byte	$6F
	.byte	$BC
	.byte	$4C
	.byte	$06
	.byte	$0C
	.byte	$73
	.byte	$FF
	.byte	$50
	.byte	$D1
	.byte	$94
	.byte	$45
	.byte	$E3
	.byte	$65
	.byte	$32
	.byte	$60
	.byte	$98
	.byte	$FB
	.byte	$87
	.byte	$0A
	.byte	$A2
	.byte	$29
	.byte	$8B
	.byte	$E6
	.byte	$F5
	.byte	$58
	.byte	$7A
	.byte	$5D
	.byte	$63
	.byte	$53
	.byte	$5A
	.byte	$AE
	.byte	$C3
	.byte	$47
	.byte	$9F
	.byte	$BD
	.byte	$9C
	.byte	$D3
	.byte	$5C
	.byte	$BF
	.byte	$27
	.byte	$4D
	.byte	$63
	.byte	$0A
	.byte	$F3
	.byte	$3A
	.byte	$95
	.byte	$69
	.byte	$1A
	.byte	$9B
	.byte	$95
	.byte	$AE
	.byte	$DF
	.byte	$1D
	.byte	$FB
	.byte	$F0
	.byte	$BD
	.byte	$13
	.byte	$00
_message362:
	.byte	$2E
	.byte	$52
	.byte	$FE
	.byte	$1D
	.byte	$E1
	.byte	$EA
	.byte	$66
	.byte	$D6
	.byte	$97
	.byte	$F4
	.byte	$73
	.byte	$4D
	.byte	$59
	.byte	$54
	.byte	$AF
	.byte	$F1
	.byte	$D2
	.byte	$87
	.byte	$9A
	.byte	$B2
	.byte	$E8
	.byte	$49
	.byte	$97
	.byte	$9F
	.byte	$AE
	.byte	$DB
	.byte	$87
	.byte	$3A
	.byte	$32
	.byte	$05
	.byte	$51
	.byte	$37
	.byte	$3E
	.byte	$5C
	.byte	$73
	.byte	$8C
	.byte	$75
	.byte	$03
	.byte	$47
	.byte	$30
	.byte	$AA
	.byte	$D8
	.byte	$B7
	.byte	$69
	.byte	$1A
	.byte	$EB
	.byte	$49
	.byte	$F9
	.byte	$77
	.byte	$84
	.byte	$6A
	.byte	$63
	.byte	$5D
	.byte	$60
	.byte	$12
	.byte	$94
	.byte	$01
_message363:
	.byte	$79
	.byte	$88
	.byte	$CA
	.byte	$97
	.byte	$FA
	.byte	$92
	.byte	$C6
	.byte	$5E
	.byte	$BF
	.byte	$29
	.byte	$8B
	.byte	$A6
	.byte	$61
	.byte	$46
	.byte	$CF
	.byte	$FA
	.byte	$A2
	.byte	$13
	.byte	$AA
	.byte	$78
	.byte	$A3
	.byte	$A7
	.byte	$EA
	.byte	$55
	.byte	$51
	.byte	$41
	.byte	$B7
	.byte	$67
	.byte	$E8
	.byte	$35
	.byte	$42
	.byte	$BA
	.byte	$5E
	.byte	$C6
	.byte	$E0
	.byte	$34
	.byte	$FF
	.byte	$5F
	.byte	$6F
	.byte	$DD
	.byte	$9E
	.byte	$7F
	.byte	$83
	.byte	$EA
	.byte	$34
	.byte	$5D
	.byte	$D3
	.byte	$71
	.byte	$FA
	.byte	$7A
	.byte	$EB
	.byte	$0E
	.byte	$E5
	.byte	$E9
	.byte	$06
	.byte	$EE
	.byte	$ED
	.byte	$1B
	.byte	$E2
	.byte	$31
	.byte	$2A
	.byte	$DF
	.byte	$F4
	.byte	$D1
	.byte	$EB
	.byte	$F7
	.byte	$AC
	.byte	$D4
	.byte	$5F
	.byte	$6B
	.byte	$9C
	.byte	$E6
	.byte	$18
	.byte	$6B
	.byte	$22
	.byte	$40
	.byte	$74
	.byte	$E3
	.byte	$D7
	.byte	$4B
	.byte	$BF
	.byte	$C3
	.byte	$14
	.byte	$35
	.byte	$2F
	.byte	$F2
	.byte	$8D
	.byte	$D7
	.byte	$B5
	.byte	$21
	.byte	$DD
	.byte	$0B
	.byte	$7A
	.byte	$D6
	.byte	$BC
	.byte	$1E
	.byte	$4B
	.byte	$BF
	.byte	$D4
	.byte	$97
	.byte	$34
	.byte	$F6
	.byte	$FA
	.byte	$4E
	.byte	$00
_message364:
	.byte	$39
	.byte	$C6
	.byte	$6A
	.byte	$A3
	.byte	$53
	.byte	$F3
	.byte	$22
	.byte	$DF
	.byte	$78
	.byte	$5D
	.byte	$1B
	.byte	$D2
	.byte	$BD
	.byte	$A0
	.byte	$E9
	.byte	$38
	.byte	$7D
	.byte	$4F
	.byte	$BA
	.byte	$3D
	.byte	$FF
	.byte	$06
	.byte	$D5
	.byte	$71
	.byte	$02
_message365:
	.byte	$79
	.byte	$88
	.byte	$7A
	.byte	$2B
	.byte	$6C
	.byte	$78
	.byte	$47
	.byte	$E5
	.byte	$F7
	.byte	$ED
	.byte	$E3
	.byte	$F3
	.byte	$4D
	.byte	$E3
	.byte	$35
	.byte	$F1
	.byte	$2D
	.byte	$7D
	.byte	$91
	.byte	$E9
	.byte	$77
	.byte	$1F
	.byte	$D1
	.byte	$2B
	.byte	$95
	.byte	$3F
	.byte	$A5
	.byte	$73
	.byte	$9A
	.byte	$87
	.byte	$A8
	.byte	$BE
	.byte	$EC
	.byte	$30
	.byte	$45
	.byte	$C9
	.byte	$4B
	.byte	$67
	.byte	$D3
	.byte	$94
	.byte	$45
	.byte	$37
	.byte	$3F
	.byte	$D7
	.byte	$BC
	.byte	$FE
	.byte	$D7
	.byte	$55
	.byte	$27
	.byte	$A5
	.byte	$67
	.byte	$19
	.byte	$C7
	.byte	$71
	.byte	$02
_message366:
	.byte	$F9
	.byte	$9F
	.byte	$46
	.byte	$A8
	.byte	$4E
	.byte	$9F
	.byte	$4A
	.byte	$FD
	.byte	$A5
	.byte	$6F
	.byte	$EE
	.byte	$5F
	.byte	$F2
	.byte	$D2
	.byte	$D9
	.byte	$34
	.byte	$65
	.byte	$D1
	.byte	$CD
	.byte	$CF
	.byte	$35
	.byte	$B7
	.byte	$F0
	.byte	$E5
	.byte	$13
	.byte	$E6
	.byte	$52
	.byte	$9D
	.byte	$94
	.byte	$9E
	.byte	$65
	.byte	$28
	.byte	$03
_message367:
	.byte	$61
	.byte	$68
	.byte	$66
	.byte	$D6
	.byte	$BA
	.byte	$6E
	.byte	$E7
	.byte	$89
	.byte	$92
	.byte	$97
	.byte	$CE
	.byte	$A6
	.byte	$DB
	.byte	$28
	.byte	$E3
	.byte	$8A
	.byte	$F5
	.byte	$FB
	.byte	$D9
	.byte	$B3
	.byte	$4C
	.byte	$77
	.byte	$D0
	.byte	$72
	.byte	$E3
	.byte	$D4
	.byte	$95
	.byte	$6F
	.byte	$5E
	.byte	$7F
	.byte	$5D
	.byte	$D8
	.byte	$A9
	.byte	$FC
	.byte	$5D
	.byte	$23
	.byte	$D3
	.byte	$08
	.byte	$69
	.byte	$E2
	.byte	$5B
	.byte	$FA
	.byte	$22
	.byte	$E3
	.byte	$04
	.byte	$00
_message368:
	.byte	$B9
	.byte	$F9
	.byte	$17
	.byte	$F4
	.byte	$8C
	.byte	$66
	.byte	$AC
	.byte	$35
	.byte	$E1
	.byte	$02
_message369:
	.byte	$B9
	.byte	$F9
	.byte	$17
	.byte	$74
	.byte	$F7
	.byte	$0B
	.byte	$13
	.byte	$2E
	.byte	$00
_message370:
	.byte	$B9
	.byte	$F9
	.byte	$17
	.byte	$74
	.byte	$A5
	.byte	$97
	.byte	$B3
	.byte	$D7
	.byte	$0F
	.byte	$17
	.byte	$00
_message371:
	.byte	$B9
	.byte	$F9
	.byte	$17
	.byte	$74
	.byte	$7F
	.byte	$4E
	.byte	$F7
	.byte	$DB
	.byte	$21
	.byte	$22
	.byte	$5C
	.byte	$00
_message372:
	.byte	$B9
	.byte	$F9
	.byte	$17
	.byte	$F4
	.byte	$95
	.byte	$6F
	.byte	$C2
	.byte	$05
	.byte	$00
_message373:
	.byte	$B9
	.byte	$F9
	.byte	$17
	.byte	$94
	.byte	$7A
	.byte	$B4
	.byte	$1C
	.byte	$54
	.byte	$C1
	.byte	$F7
	.byte	$E1
	.byte	$02
_message374:
	.byte	$AE
	.byte	$0C
	.byte	$89
	.byte	$92
	.byte	$88
	.byte	$57
	.byte	$6F
	.byte	$DF
	.byte	$ED
	.byte	$F8
	.byte	$F7
	.byte	$8B
	.byte	$08
	.byte	$17
	.byte	$00
_message375:
	.byte	$39
	.byte	$C6
	.byte	$4A
	.byte	$22
	.byte	$4E
	.byte	$F7
	.byte	$B7
	.byte	$A3
	.byte	$E5
	.byte	$C6
	.byte	$AE
	.byte	$6F
	.byte	$7A
	.byte	$DB
	.byte	$DB
	.byte	$A5
	.byte	$A1
	.byte	$0C
	.byte	$00
_message376:
	.byte	$B9
	.byte	$F9
	.byte	$17
	.byte	$74
	.byte	$1B
	.byte	$D6
	.byte	$31
	.byte	$84
	.byte	$0B
	.byte	$00
_message377:
	.byte	$B9
	.byte	$F9
	.byte	$17
	.byte	$74
	.byte	$7B
	.byte	$86
	.byte	$22
	.byte	$5C
	.byte	$00
_message378:
	.byte	$AE
	.byte	$61
	.byte	$EB
	.byte	$FB
	.byte	$B1
	.byte	$2F
	.byte	$CA
	.byte	$13
	.byte	$AA
	.byte	$8D
	.byte	$F5
	.byte	$A5
	.byte	$DB
	.byte	$93
	.byte	$B7
	.byte	$C3
	.byte	$74
	.byte	$1C
	.byte	$C7
	.byte	$09
	.byte	$00
_message379:
	.byte	$61
	.byte	$F7
	.byte	$FB
	.byte	$F4
	.byte	$A5
	.byte	$DB
	.byte	$F3
	.byte	$DB
	.byte	$F0
	.byte	$FE
	.byte	$82
	.byte	$50
	.byte	$87
	.byte	$F7
	.byte	$3F
	.byte	$C7
	.byte	$71
	.byte	$02
_message380:
	.byte	$B9
	.byte	$F9
	.byte	$17
	.byte	$34
	.byte	$0D
	.byte	$C7
	.byte	$0F
	.byte	$17
	.byte	$00
_message381:
	.byte	$B9
	.byte	$F9
	.byte	$17
	.byte	$34
	.byte	$FD
	.byte	$B6
	.byte	$41
	.byte	$E4
	.byte	$C3
	.byte	$05
	.byte	$00
_message382:
	.byte	$B9
	.byte	$F9
	.byte	$17
	.byte	$F4
	.byte	$45
	.byte	$9F
	.byte	$11
	.byte	$2E
	.byte	$00
_message383:
	.byte	$B9
	.byte	$F9
	.byte	$17
	.byte	$74
	.byte	$A9
	.byte	$8F
	.byte	$37
	.byte	$E1
	.byte	$02
_message384:
	.byte	$B9
	.byte	$F9
	.byte	$17
	.byte	$F4
	.byte	$99
	.byte	$11
	.byte	$27
	.byte	$5C
	.byte	$00
_message385:
	.byte	$B9
	.byte	$F9
	.byte	$17
	.byte	$54
	.byte	$40
	.byte	$DB
	.byte	$84
	.byte	$0B
	.byte	$00
_message386:
	.byte	$B9
	.byte	$F9
	.byte	$17
	.byte	$54
	.byte	$26
	.byte	$BD
	.byte	$20
	.byte	$5C
	.byte	$00
_message387:
	.byte	$B9
	.byte	$F9
	.byte	$17
	.byte	$74
	.byte	$7B
	.byte	$86
	.byte	$22
	.byte	$5C
	.byte	$00
_message388:
	.byte	$B9
	.byte	$F9
	.byte	$17
	.byte	$74
	.byte	$BD
	.byte	$8C
	.byte	$21
	.byte	$5C
	.byte	$00
_message389:
	.byte	$B9
	.byte	$F9
	.byte	$17
	.byte	$74
	.byte	$4D
	.byte	$26
	.byte	$73
	.byte	$AA
	.byte	$13
	.byte	$2E
	.byte	$00
_message390:
	.byte	$B9
	.byte	$F9
	.byte	$17
	.byte	$74
	.byte	$29
	.byte	$7B
	.byte	$55
	.byte	$CF
	.byte	$1F
	.byte	$2E
	.byte	$00
_message391:
	.byte	$61
	.byte	$FA
	.byte	$57
	.byte	$FA
	.byte	$9E
	.byte	$E8
	.byte	$59
	.byte	$9C
	.byte	$B5
	.byte	$DE
	.byte	$E2
	.byte	$F4
	.byte	$BA
	.byte	$3D
	.byte	$FF
	.byte	$0E
	.byte	$D3
	.byte	$A3
	.byte	$0C
	.byte	$00
_message392:
	.byte	$2E
	.byte	$95
	.byte	$A3
	.byte	$F2
	.byte	$75
	.byte	$8D
	.byte	$4D
	.byte	$F5
	.byte	$4D
	.byte	$6F
	.byte	$AD
	.byte	$DB
	.byte	$AF
	.byte	$E8
	.byte	$F2
	.byte	$D5
	.byte	$37
	.byte	$BD
	.byte	$3E
	.byte	$D3
	.byte	$B3
	.byte	$C3
	.byte	$F4
	.byte	$9C
	.byte	$E6
	.byte	$40
	.byte	$37
	.byte	$86
	.byte	$C5
	.byte	$AB
	.byte	$B7
	.byte	$E9
	.byte	$37
	.byte	$FD
	.byte	$9A
	.byte	$50
	.byte	$B7
	.byte	$B9
	.byte	$7A
	.byte	$EB
	.byte	$8B
	.byte	$F2
	.byte	$84
	.byte	$9A
	.byte	$D7
	.byte	$9F
	.byte	$C5
	.byte	$AB
	.byte	$B7
	.byte	$2A
	.byte	$D8
	.byte	$7D
	.byte	$1C
	.byte	$C7
	.byte	$69
	.byte	$8E
	.byte	$B1
	.byte	$2E
	.byte	$EC
	.byte	$54
	.byte	$FE
	.byte	$A6
	.byte	$EB
	.byte	$BA
	.byte	$6F
	.byte	$5E
	.byte	$FF
	.byte	$92
	.byte	$66
	.byte	$7D
	.byte	$E3
	.byte	$D5
	.byte	$EB
	.byte	$09
	.byte	$8A
	.byte	$D8
	.byte	$93
	.byte	$2A
	.byte	$F6
	.byte	$6D
	.byte	$9A
	.byte	$B2
	.byte	$68
	.byte	$F6
	.byte	$AF
	.byte	$DF
	.byte	$78
	.byte	$6B
	.byte	$9B
	.byte	$75
	.byte	$EE
	.byte	$37
	.byte	$86
	.byte	$DA
	.byte	$58
	.byte	$F5
	.byte	$BA
	.byte	$81
	.byte	$77
	.byte	$A8
	.byte	$A2
	.byte	$F1
	.byte	$2A
	.byte	$A0
	.byte	$69
	.byte	$30
	.byte	$AA
	.byte	$5E
	.byte	$F5
	.byte	$9A
	.byte	$D7
	.byte	$63
	.byte	$E9
	.byte	$55
	.byte	$8E
	.byte	$CA
	.byte	$E7
	.byte	$04
	.byte	$00
_message393:
	.byte	$39
	.byte	$51
	.byte	$F5
	.byte	$68
	.byte	$3C
	.byte	$FD
	.byte	$AE
	.byte	$34
	.byte	$CC
	.byte	$63
	.byte	$D3
	.byte	$E5
	.byte	$45
	.byte	$BE
	.byte	$DB
	.byte	$A9
	.byte	$7A
	.byte	$FE
	.byte	$46
	.byte	$48
	.byte	$F9
	.byte	$94
	.byte	$5F
	.byte	$75
	.byte	$2A
	.byte	$BF
	.byte	$D2
	.byte	$BD
	.byte	$C5
	.byte	$D1
	.byte	$AB
	.byte	$7C
	.byte	$D3
	.byte	$F3
	.byte	$AB
	.byte	$82
	.byte	$6F
	.byte	$E9
	.byte	$A5
	.byte	$EF
	.byte	$82
	.byte	$AD
	.byte	$77
	.byte	$BF
	.byte	$31
	.byte	$34
	.byte	$42
	.byte	$9A
	.byte	$46
	.byte	$86
	.byte	$D1
	.byte	$8F
	.byte	$1D
	.byte	$B9
	.byte	$71
	.byte	$1A
	.byte	$00
_message394:
	.byte	$79
	.byte	$1A
	.byte	$87
	.byte	$44
	.byte	$65
	.byte	$4A
	.byte	$22
	.byte	$5E
	.byte	$BD
	.byte	$95
	.byte	$4F
	.byte	$F9
	.byte	$55
	.byte	$27
	.byte	$5C
	.byte	$00
_message395:
	.byte	$39
	.byte	$C6
	.byte	$BA
	.byte	$CD
	.byte	$5A
	.byte	$13
	.byte	$AA
	.byte	$10
	.byte	$67
	.byte	$0A
	.byte	$66
	.byte	$AF
	.byte	$3A
	.byte	$8C
	.byte	$82
	.byte	$28
	.byte	$55
	.byte	$26
	.byte	$A5
	.byte	$D7
	.byte	$E9
	.byte	$F2
	.byte	$CD
	.byte	$5D
	.byte	$8E
	.byte	$A2
	.byte	$36
	.byte	$D6
	.byte	$75
	.byte	$DD
	.byte	$FD
	.byte	$90
	.byte	$70
	.byte	$EA
	.byte	$9A
	.byte	$87
	.byte	$FC
	.byte	$A6
	.byte	$B1
	.byte	$0A
	.byte	$4A
	.byte	$7D
	.byte	$55
	.byte	$F0
	.byte	$C1
	.byte	$71
	.byte	$9C
	.byte	$00
_message396:
	.byte	$14
	.byte	$86
	.byte	$D3
	.byte	$7D
	.byte	$B8
	.byte	$E6
	.byte	$E6
	.byte	$5F
	.byte	$50
	.byte	$1D
	.byte	$4E
	.byte	$F7
	.byte	$E1
	.byte	$02
_message397:
	.byte	$2E
	.byte	$A5
	.byte	$C1
	.byte	$43
	.byte	$CB
	.byte	$65
	.byte	$2E
	.byte	$5D
	.byte	$97
	.byte	$97
	.byte	$AE
	.byte	$E7
	.byte	$34
	.byte	$99
	.byte	$A7
	.byte	$A7
	.byte	$7C
	.byte	$DB
	.byte	$B0
	.byte	$BE
	.byte	$4D
	.byte	$C9
	.byte	$E7
	.byte	$43
	.byte	$57
	.byte	$82
	.byte	$A1
	.byte	$F1
	.byte	$4A
	.byte	$3E
	.byte	$5F
	.byte	$F7
	.byte	$D9
	.byte	$61
	.byte	$7A
	.byte	$8D
	.byte	$10
	.byte	$F9
	.byte	$92
	.byte	$A7
	.byte	$5F
	.byte	$5A
	.byte	$86
	.byte	$6F
	.byte	$D6
	.byte	$37
	.byte	$5E
	.byte	$5D
	.byte	$BC
	.byte	$99
	.byte	$CF
	.byte	$3A
	.byte	$01
_message398:
	.byte	$F9
	.byte	$FA
	.byte	$F8
	.byte	$4D
	.byte	$59
	.byte	$54
	.byte	$BE
	.byte	$69
	.byte	$38
	.byte	$7E
	.byte	$41
	.byte	$74
	.byte	$79
	.byte	$E9
	.byte	$F6
	.byte	$E4
	.byte	$ED
	.byte	$30
	.byte	$1D
	.byte	$C7
	.byte	$71
	.byte	$02
_message399:
	.byte	$61
	.byte	$63
	.byte	$D3
	.byte	$08
	.byte	$11
	.byte	$74
	.byte	$61
	.byte	$DF
	.byte	$E4
	.byte	$D2
	.byte	$35
	.byte	$FD
	.byte	$5A
	.byte	$68
	.byte	$BC
	.byte	$0A
	.byte	$68
	.byte	$9B
	.byte	$FA
	.byte	$F5
	.byte	$8A
	.byte	$6E
	.byte	$E0
	.byte	$2A
	.byte	$FF
	.byte	$DA
	.byte	$86
	.byte	$F5
	.byte	$19
	.byte	$BD
	.byte	$32
	.byte	$36
	.byte	$B0
	.byte	$9E
	.byte	$13
	.byte	$00
_message500:
	.byte	$F9
	.byte	$50
	.byte	$A9
	.byte	$6F
	.byte	$71
	.byte	$EC
	.byte	$2A
	.byte	$5F
	.byte	$BE
	.byte	$04
	.byte	$4E
	.byte	$DF
	.byte	$08
	.byte	$A9
	.byte	$7E
	.byte	$4A
	.byte	$FE
	.byte	$6C
	.byte	$1A
	.byte	$AF
	.byte	$EA
	.byte	$A7
	.byte	$DB
	.byte	$47
	.byte	$46
	.byte	$51
	.byte	$F9
	.byte	$AE
	.byte	$11
	.byte	$EF
	.byte	$7E
	.byte	$63
	.byte	$68
	.byte	$84
	.byte	$C8
	.byte	$77
	.byte	$7F
	.byte	$41
	.byte	$3C
	.byte	$F7
	.byte	$1B
	.byte	$43
	.byte	$E3
	.byte	$D5
	.byte	$C5
	.byte	$9B
	.byte	$F9
	.byte	$6C
	.byte	$D3
	.byte	$EC
	.byte	$A8
	.byte	$B7
	.byte	$E6
	.byte	$F5
	.byte	$2F
	.byte	$EB
	.byte	$7E
	.byte	$5D
	.byte	$37
	.byte	$3E
	.byte	$4B
	.byte	$B7
	.byte	$DD
	.byte	$9B
	.byte	$C2
	.byte	$69
	.byte	$CE
	.byte	$E1
	.byte	$58
	.byte	$37
	.byte	$CF
	.byte	$F6
	.byte	$4C
	.byte	$8E
	.byte	$75
	.byte	$5D
	.byte	$97
	.byte	$7E
	.byte	$F9
	.byte	$C8
	.byte	$11
	.byte	$7D
	.byte	$8B
	.byte	$53
	.byte	$83
	.byte	$C8
	.byte	$57
	.byte	$67
	.byte	$A7
	.byte	$3E
	.byte	$65
	.byte	$00
_message501:
	.byte	$6E
	.byte	$08
	.byte	$10
	.byte	$5D
	.byte	$89
	.byte	$4F
	.byte	$75
	.byte	$9A
	.byte	$D7
	.byte	$BF
	.byte	$A4
	.byte	$59
	.byte	$4F
	.byte	$19
	.byte	$00
_message502:
	.byte	$79
	.byte	$88
	.byte	$7A
	.byte	$2B
	.byte	$15
	.byte	$D2
	.byte	$7D
	.byte	$22
	.byte	$44
	.byte	$A6
	.byte	$F1
	.byte	$AA
	.byte	$C3
	.byte	$E9
	.byte	$BE
	.byte	$10
	.byte	$A8
	.byte	$F2
	.byte	$A5
	.byte	$EF
	.byte	$C6
	.byte	$93
	.byte	$C1
	.byte	$5A
	.byte	$37
	.byte	$F6
	.byte	$82
	.byte	$5C
	.byte	$96
	.byte	$A2
	.byte	$14
	.byte	$A1
	.byte	$08
	.byte	$45
	.byte	$9A
	.byte	$DE
	.byte	$22
	.byte	$04
	.byte	$45
	.byte	$05
	.byte	$A6
	.byte	$68
	.byte	$BC
	.byte	$BA
	.byte	$95
	.byte	$B1
	.byte	$0C
	.byte	$E2
	.byte	$04
	.byte	$00
_message503:
	.byte	$2E
	.byte	$52
	.byte	$FA
	.byte	$55
	.byte	$A7
	.byte	$FB
	.byte	$3D
	.byte	$3D
	.byte	$F2
	.byte	$3D
	.byte	$EB
	.byte	$3E
	.byte	$71
	.byte	$BA
	.byte	$66
	.byte	$DF
	.byte	$B1
	.byte	$D6
	.byte	$38
	.byte	$8E
	.byte	$13
	.byte	$00
_message504:
	.byte	$39
	.byte	$C6
	.byte	$BA
	.byte	$0D
	.byte	$EB
	.byte	$97
	.byte	$0A
	.byte	$43
	.byte	$37
	.byte	$86
	.byte	$45
	.byte	$30
	.byte	$7A
	.byte	$52
	.byte	$FA
	.byte	$55
	.byte	$C7
	.byte	$69
	.byte	$AE
	.byte	$A0
	.byte	$E5
	.byte	$A6
	.byte	$36
	.byte	$D6
	.byte	$CC
	.byte	$B3
	.byte	$8C
	.byte	$13
	.byte	$00
_message505:
	.byte	$B9
	.byte	$F9
	.byte	$17
	.byte	$94
	.byte	$7E
	.byte	$D5
	.byte	$09
	.byte	$17
	.byte	$00
_message506:
	.byte	$2E
	.byte	$52
	.byte	$FA
	.byte	$55
	.byte	$A7
	.byte	$7A
	.byte	$5D
	.byte	$A0
	.byte	$3D
	.byte	$9C
	.byte	$00
_message507:
	.byte	$61
	.byte	$63
	.byte	$53
	.byte	$41
	.byte	$03
_message508:
	.byte	$B9
	.byte	$0C
	.byte	$00
_message509:
	.byte	$61
	.byte	$63
	.byte	$53
	.byte	$41
	.byte	$29
	.byte	$AE
	.byte	$11
	.byte	$D2
	.byte	$FD
	.byte	$55
	.byte	$CF
	.byte	$C6
	.byte	$A9
	.byte	$4B
	.byte	$B7
	.byte	$7B
	.byte	$83
	.byte	$5E
	.byte	$B3
	.byte	$6F
	.byte	$36
	.byte	$DD
	.byte	$C0
	.byte	$6B
	.byte	$7A
	.byte	$52
	.byte	$19
	.byte	$9E
	.byte	$BE
	.byte	$C8
	.byte	$19
	.byte	$7E
	.byte	$87
	.byte	$E9
	.byte	$14
	.byte	$15
	.byte	$34
	.byte	$8D
	.byte	$C5
	.byte	$73
	.byte	$BF
	.byte	$B1
	.byte	$AB
	.byte	$8D
	.byte	$75
	.byte	$8D
	.byte	$4D
	.byte	$B7
	.byte	$F3
	.byte	$44
	.byte	$33
	.byte	$4F
	.byte	$0E
	.byte	$83
	.byte	$1C
	.byte	$B9
	.byte	$6E
	.byte	$E0
	.byte	$CA
	.byte	$37
	.byte	$81
	.byte	$6F
	.byte	$1F
	.byte	$BB
	.byte	$77
	.byte	$5C
	.byte	$B5
	.byte	$FC
	.byte	$FF
	.byte	$35
	.byte	$F3
	.byte	$22
	.byte	$A7
	.byte	$43
	.byte	$E9
	.byte	$AA
	.byte	$51
	.byte	$B8
	.byte	$AE
	.byte	$43
	.byte	$BC
	.byte	$50
	.byte	$7F
	.byte	$6D
	.byte	$50
	.byte	$7D
	.byte	$8B
	.byte	$D3
	.byte	$34
	.byte	$56
	.byte	$41
	.byte	$D7
	.byte	$F6
	.byte	$22
	.byte	$68
	.byte	$F2
	.byte	$4C
	.byte	$A2
	.byte	$27
	.byte	$55
	.byte	$BE
	.byte	$A5
	.byte	$68
	.byte	$C4
	.byte	$D2
	.byte	$B3
	.byte	$69
	.byte	$BC
	.byte	$EE
	.byte	$C3
	.byte	$8A
	.byte	$A6
	.byte	$2C
	.byte	$AA
	.byte	$D7
	.byte	$5F
	.byte	$1B
	.byte	$54
	.byte	$DF
	.byte	$71
	.byte	$D5
	.byte	$5C
	.byte	$BC
	.byte	$99
	.byte	$CF
	.byte	$36
	.byte	$FB
	.byte	$25
	.byte	$CF
	.byte	$74
	.byte	$28
	.byte	$03
_message510:
	.byte	$79
	.byte	$88
	.byte	$7A
	.byte	$9B
	.byte	$AE
	.byte	$4D
	.byte	$60
	.byte	$F1
	.byte	$E2
	.byte	$74
	.byte	$78
	.byte	$64
	.byte	$E8
	.byte	$9B
	.byte	$C6
	.byte	$EF
	.byte	$36
	.byte	$B2
	.byte	$A6
	.byte	$3B
	.byte	$52
	.byte	$7A
	.byte	$BB
	.byte	$34
	.byte	$FD
	.byte	$EE
	.byte	$43
	.byte	$DE
	.byte	$0E
	.byte	$D3
	.byte	$E9
	.byte	$7B
	.byte	$9D
	.byte	$FD
	.byte	$F5
	.byte	$D2
	.byte	$84
	.byte	$9A
	.byte	$C6
	.byte	$9A
	.byte	$7E
	.byte	$AD
	.byte	$EF
	.byte	$59
	.byte	$87
	.byte	$27
	.byte	$54
	.byte	$F9
	.byte	$95
	.byte	$EE
	.byte	$75
	.byte	$F4
	.byte	$1A
	.byte	$BF
	.byte	$EA
	.byte	$A7
	.byte	$DB
	.byte	$47
	.byte	$46
	.byte	$CF
	.byte	$0A
	.byte	$46
	.byte	$3C
	.byte	$7D
	.byte	$C2
	.byte	$09
	.byte	$00
_message511:
	.byte	$39
	.byte	$C6
	.byte	$BA
	.byte	$70
	.byte	$DD
	.byte	$2F
	.byte	$7D
	.byte	$C3
	.byte	$DE
	.byte	$EA
	.byte	$56
	.byte	$7E
	.byte	$4B
	.byte	$58
	.byte	$69
	.byte	$42
	.byte	$4D
	.byte	$59
	.byte	$74
	.byte	$7B
	.byte	$96
	.byte	$27
	.byte	$BF
	.byte	$4F
	.byte	$CB
	.byte	$F5
	.byte	$ED
	.byte	$F6
	.byte	$97
	.byte	$A3
	.byte	$0C
	.byte	$00
_message512:
	.byte	$79
	.byte	$88
	.byte	$7A
	.byte	$9B
	.byte	$AE
	.byte	$4D
	.byte	$60
	.byte	$F1
	.byte	$E2
	.byte	$14
	.byte	$0B
	.byte	$FB
	.byte	$26
	.byte	$CF
	.byte	$68
	.byte	$BC
	.byte	$D2
	.byte	$AF
	.byte	$3A
	.byte	$05
	.byte	$7D
	.byte	$EE
	.byte	$F7
	.byte	$36
	.byte	$CD
	.byte	$F5
	.byte	$7D
	.byte	$A8
	.byte	$7C
	.byte	$0A
	.byte	$F3
	.byte	$3A
	.byte	$5D
	.byte	$9F
	.byte	$78
	.byte	$1A
	.byte	$9F
	.byte	$96
	.byte	$2B
	.byte	$E8
	.byte	$73
	.byte	$BF
	.byte	$A6
	.byte	$2C
	.byte	$2A
	.byte	$D7
	.byte	$17
	.byte	$01
	.byte	$F9
	.byte	$E4
	.byte	$DB
	.byte	$94
	.byte	$0A
	.byte	$AB
	.byte	$32
	.byte	$F6
	.byte	$93
	.byte	$EF
	.byte	$9B
	.byte	$5D
	.byte	$33
	.byte	$4F
	.byte	$59
	.byte	$17
	.byte	$29
	.byte	$FD
	.byte	$AA
	.byte	$D3
	.byte	$EC
	.byte	$D7
	.byte	$DB
	.byte	$57
	.byte	$9F
	.byte	$E9
	.byte	$2C
	.byte	$54
	.byte	$BF
	.byte	$2F
	.byte	$4D
	.byte	$23
	.byte	$32
	.byte	$4E
	.byte	$00
_message513:
	.byte	$B9
	.byte	$5E
	.byte	$53
	.byte	$F6
	.byte	$7E
	.byte	$9F
	.byte	$E6
	.byte	$EB
	.byte	$97
	.byte	$42
	.byte	$8B
	.byte	$AE
	.byte	$B1
	.byte	$A9
	.byte	$7C
	.byte	$E9
	.byte	$57
	.byte	$FD
	.byte	$46
	.byte	$48
	.byte	$5D
	.byte	$F3
	.byte	$64
	.byte	$B0
	.byte	$D6
	.byte	$30
	.byte	$9C
	.byte	$86
	.byte	$A1
	.byte	$FB
	.byte	$F5
	.byte	$49
	.byte	$28
	.byte	$AA
	.byte	$3C
	.byte	$E4
	.byte	$EB
	.byte	$37
	.byte	$7E
	.byte	$D7
	.byte	$C8
	.byte	$87
	.byte	$CA
	.byte	$B7
	.byte	$0D
	.byte	$EB
	.byte	$2B
	.byte	$F6
	.byte	$EB
	.byte	$57
	.byte	$FC
	.byte	$39
	.byte	$75
	.byte	$91
	.byte	$A6
	.byte	$89
	.byte	$97
	.byte	$50
	.byte	$10
	.byte	$B9
	.byte	$2C
	.byte	$C5
	.byte	$28
	.byte	$42
	.byte	$11
	.byte	$B7
	.byte	$50
	.byte	$D4
	.byte	$2D
	.byte	$14
	.byte	$97
	.byte	$7B
	.byte	$B9
	.byte	$8F
	.byte	$13
	.byte	$00
_message514:
	.byte	$39
	.byte	$BF
	.byte	$DB
	.byte	$B0
	.byte	$7E
	.byte	$41
	.byte	$D4
	.byte	$5B
	.byte	$F7
	.byte	$89
	.byte	$10
	.byte	$99
	.byte	$A6
	.byte	$E1
	.byte	$77
	.byte	$77
	.byte	$7F
	.byte	$9D
	.byte	$A6
	.byte	$B1
	.byte	$FE
	.byte	$06
	.byte	$56
	.byte	$CF
	.byte	$5F
	.byte	$08
	.byte	$54
	.byte	$F9
	.byte	$D2
	.byte	$F7
	.byte	$9B
	.byte	$66
	.byte	$7F
	.byte	$8B
	.byte	$53
	.byte	$F3
	.byte	$3B
	.byte	$F8
	.byte	$D2
	.byte	$74
	.byte	$47
	.byte	$BC
	.byte	$37
	.byte	$45
	.byte	$BD
	.byte	$55
	.byte	$7F
	.byte	$E9
	.byte	$81
	.byte	$CF
	.byte	$C6
	.byte	$09
	.byte	$00
_message515:
	.byte	$39
	.byte	$C6
	.byte	$0A
	.byte	$A2
	.byte	$79
	.byte	$FD
	.byte	$35
	.byte	$65
	.byte	$D1
	.byte	$08
	.byte	$F2
	.byte	$9A
	.byte	$79
	.byte	$96
	.byte	$A1
	.byte	$0C
	.byte	$00
_message516:
	.byte	$61
	.byte	$30
	.byte	$9D
	.byte	$B2
	.byte	$DF
	.byte	$87
	.byte	$D1
	.byte	$78
	.byte	$CD
	.byte	$80
	.byte	$F9
	.byte	$77
	.byte	$98
	.byte	$BE
	.byte	$E3
	.byte	$38
	.byte	$01
_message517:
	.byte	$39
	.byte	$BF
	.byte	$0B
	.byte	$CC
	.byte	$AF
	.byte	$9E
	.byte	$BF
	.byte	$EB
	.byte	$BA
	.byte	$A8
	.byte	$32
	.byte	$29
	.byte	$7D
	.byte	$51
	.byte	$F9
	.byte	$6E
	.byte	$C3
	.byte	$FA
	.byte	$5D
	.byte	$D7
	.byte	$DF
	.byte	$18
	.byte	$85
	.byte	$40
	.byte	$95
	.byte	$2F
	.byte	$FD
	.byte	$0E
	.byte	$53
	.byte	$38
	.byte	$01
_message518:
	.byte	$79
	.byte	$88
	.byte	$7A
	.byte	$AB
	.byte	$FE
	.byte	$D2
	.byte	$03
	.byte	$9F
	.byte	$4D
	.byte	$CD
	.byte	$EF
	.byte	$E0
	.byte	$4B
	.byte	$D3
	.byte	$34
	.byte	$56
	.byte	$41
	.byte	$D3
	.byte	$65
	.byte	$18
	.byte	$8D
	.byte	$5F
	.byte	$8A
	.byte	$F6
	.byte	$EB
	.byte	$96
	.byte	$22
	.byte	$F6
	.byte	$BA
	.byte	$6E
	.byte	$A7
	.byte	$8E
	.byte	$5C
	.byte	$23
	.byte	$44
	.byte	$88
	.byte	$5F
	.byte	$0A
	.byte	$BE
	.byte	$95
	.byte	$A6
	.byte	$B9
	.byte	$10
	.byte	$9E
	.byte	$73
	.byte	$B1
	.byte	$68
	.byte	$84
	.byte	$34
	.byte	$BD
	.byte	$25
	.byte	$88
	.byte	$40
	.byte	$75
	.byte	$42
	.byte	$7D
	.byte	$73
	.byte	$BF
	.byte	$50
	.byte	$B3
	.byte	$BF
	.byte	$B2
	.byte	$CD
	.byte	$85
	.byte	$DC
	.byte	$27
	.byte	$17
	.byte	$9B
	.byte	$66
	.byte	$47
	.byte	$E3
	.byte	$A5
	.byte	$B1
	.byte	$69
	.byte	$5E
	.byte	$0F
	.byte	$91
	.byte	$2B
	.byte	$95
	.byte	$9F
	.byte	$3C
	.byte	$CA
	.byte	$00
_message519:
	.byte	$AE
	.byte	$80
	.byte	$BC
	.byte	$AE
	.byte	$C4
	.byte	$47
	.byte	$82
	.byte	$51
	.byte	$F9
	.byte	$A6
	.byte	$D9
	.byte	$A9
	.byte	$67
	.byte	$EF
	.byte	$7E
	.byte	$63
	.byte	$A0
	.byte	$0C
	.byte	$00
_message520:
	.byte	$6E
	.byte	$FD
	.byte	$EB
	.byte	$C6
	.byte	$58
	.byte	$EB
	.byte	$C6
	.byte	$D0
	.byte	$E5
	.byte	$A5
	.byte	$FB
	.byte	$DB
	.byte	$D1
	.byte	$72
	.byte	$63
	.byte	$E8
	.byte	$9B
	.byte	$DE
	.byte	$F6
	.byte	$76
	.byte	$69
	.byte	$42
	.byte	$95
	.byte	$EF
	.byte	$36
	.byte	$AC
	.byte	$DF
	.byte	$75
	.byte	$FD
	.byte	$8D
	.byte	$51
	.byte	$C4
	.byte	$62
	.byte	$A5
	.byte	$73
	.byte	$EA
	.byte	$7A
	.byte	$AE
	.byte	$F2
	.byte	$DD
	.byte	$86
	.byte	$F5
	.byte	$BB
	.byte	$AE
	.byte	$7C
	.byte	$29
	.byte	$7B
	.byte	$3E
	.byte	$A2
	.byte	$2F
	.byte	$82
	.byte	$AA
	.byte	$47
	.byte	$D7
	.byte	$F6
	.byte	$22
	.byte	$70
	.byte	$02
_message521:
	.byte	$39
	.byte	$BF
	.byte	$DB
	.byte	$B0
	.byte	$7E
	.byte	$E3
	.byte	$F5
	.byte	$53
	.byte	$C2
	.byte	$5A
	.byte	$D3
	.byte	$08
	.byte	$E9
	.byte	$06
	.byte	$5E
	.byte	$63
	.byte	$2F
	.byte	$E8
	.byte	$BA
	.byte	$F2
	.byte	$A5
	.byte	$EC
	.byte	$F9
	.byte	$88
	.byte	$A6
	.byte	$B1
	.byte	$7A
	.byte	$2B
	.byte	$CD
	.byte	$6F
	.byte	$11
	.byte	$CD
	.byte	$F0
	.byte	$D3
	.byte	$C3
	.byte	$68
	.byte	$CA
	.byte	$A2
	.byte	$7C
	.byte	$3B
	.byte	$75
	.byte	$76
	.byte	$EA
	.byte	$37
	.byte	$FE
	.byte	$B6
	.byte	$81
	.byte	$D5
	.byte	$AB
	.byte	$8E
	.byte	$13
	.byte	$00
_message522:
	.byte	$39
	.byte	$C6
	.byte	$9A
	.byte	$18
	.byte	$71
	.byte	$BA
	.byte	$EE
	.byte	$9B
	.byte	$66
	.byte	$1D
	.byte	$D1
	.byte	$85
	.byte	$7D
	.byte	$93
	.byte	$4B
	.byte	$A0
	.byte	$0C
	.byte	$00
_message523:
	.byte	$F9
	.byte	$A8
	.byte	$1E
	.byte	$F9
	.byte	$3A
	.byte	$95
	.byte	$E9
	.byte	$4A
	.byte	$7C
	.byte	$9B
	.byte	$9E
	.byte	$D1
	.byte	$4E
	.byte	$00
_message524:
	.byte	$AE
	.byte	$DC
	.byte	$7A
	.byte	$D5
	.byte	$23
	.byte	$5F
	.byte	$A7
	.byte	$32
	.byte	$5D
	.byte	$89
	.byte	$6F
	.byte	$D3
	.byte	$33
	.byte	$DA
	.byte	$09
	.byte	$00
_message525:
	.byte	$F9
	.byte	$9F
	.byte	$EE
	.byte	$58
	.byte	$6B
	.byte	$7A
	.byte	$D2
	.byte	$F4
	.byte	$16
	.byte	$21
	.byte	$4F
	.byte	$E5
	.byte	$E9
	.byte	$F2
	.byte	$22
	.byte	$C4
	.byte	$8B
	.byte	$3E
	.byte	$C3
	.byte	$09
	.byte	$00
_message526:
	.byte	$2E
	.byte	$D2
	.byte	$F4
	.byte	$16
	.byte	$21
	.byte	$4F
	.byte	$E5
	.byte	$29
	.byte	$88
	.byte	$D2
	.byte	$F7
	.byte	$44
	.byte	$97
	.byte	$17
	.byte	$21
	.byte	$5E
	.byte	$F4
	.byte	$19
	.byte	$4E
	.byte	$00
_message527:
	.byte	$B9
	.byte	$F9
	.byte	$17
	.byte	$34
	.byte	$BD
	.byte	$45
	.byte	$C8
	.byte	$53
	.byte	$79
	.byte	$C2
	.byte	$05
	.byte	$00
_message528:
	.byte	$39
	.byte	$A7
	.byte	$A4
	.byte	$9F
	.byte	$EB
	.byte	$0E
	.byte	$55
	.byte	$30
	.byte	$7A
	.byte	$D6
	.byte	$BC
	.byte	$FE
	.byte	$25
	.byte	$65
	.byte	$D1
	.byte	$6D
	.byte	$96
	.byte	$4E
	.byte	$CF
	.byte	$BA
	.byte	$3D
	.byte	$EB
	.byte	$A5
	.byte	$91
	.byte	$67
	.byte	$84
	.byte	$0B
	.byte	$00
_message529:
	.byte	$2E
	.byte	$D2
	.byte	$F4
	.byte	$16
	.byte	$21
	.byte	$4F
	.byte	$E5
	.byte	$29
	.byte	$88
	.byte	$2E
	.byte	$2F
	.byte	$42
	.byte	$BC
	.byte	$E8
	.byte	$33
	.byte	$9C
	.byte	$00
_message530:
	.byte	$39
	.byte	$C6
	.byte	$4A
	.byte	$22
	.byte	$4E
	.byte	$5F
	.byte	$F4
	.byte	$F9
	.byte	$9A
	.byte	$D7
	.byte	$1F
	.byte	$65
	.byte	$00
_message531:
	.byte	$B9
	.byte	$BE
	.byte	$D1
	.byte	$57
	.byte	$41
	.byte	$23
	.byte	$0F
	.byte	$9D
	.byte	$45
	.byte	$D3
	.byte	$58
	.byte	$BD
	.byte	$75
	.byte	$C1
	.byte	$D6
	.byte	$34
	.byte	$5E
	.byte	$F5
	.byte	$F6
	.byte	$61
	.byte	$38
	.byte	$CD
	.byte	$31
	.byte	$36
	.byte	$4B
	.byte	$DF
	.byte	$14
	.byte	$7D
	.byte	$2A
	.byte	$F5
	.byte	$DE
	.byte	$A6
	.byte	$FB
	.byte	$D1
	.byte	$72
	.byte	$7F
	.byte	$DF
	.byte	$78
	.byte	$7D
	.byte	$B3
	.byte	$0B
	.byte	$F5
	.byte	$A4
	.byte	$32
	.byte	$3C
	.byte	$45
	.byte	$26
	.byte	$03
	.byte	$D5
	.byte	$29
	.byte	$88
	.byte	$F2
	.byte	$6F
	.byte	$17
	.byte	$A7
	.byte	$E8
	.byte	$99
	.byte	$C2
	.byte	$D6
	.byte	$38
	.byte	$8E
	.byte	$13
	.byte	$00
_message532:
	.byte	$14
	.byte	$AE
	.byte	$0B
	.byte	$A6
	.byte	$57
	.byte	$01
	.byte	$4D
	.byte	$83
	.byte	$A7
	.byte	$68
	.byte	$F6
	.byte	$AF
	.byte	$F2
	.byte	$5D
	.byte	$B0
	.byte	$F5
	.byte	$EE
	.byte	$37
	.byte	$86
	.byte	$C6
	.byte	$2B
	.byte	$D6
	.byte	$02
	.byte	$A3
	.byte	$CA
	.byte	$BF
	.byte	$B6
	.byte	$61
	.byte	$7D
	.byte	$9D
	.byte	$9E
	.byte	$D5
	.byte	$5B
	.byte	$33
	.byte	$27
	.byte	$7B
	.byte	$E3
	.byte	$90
	.byte	$A8
	.byte	$5E
	.byte	$49
	.byte	$C4
	.byte	$EB
	.byte	$C6
	.byte	$A3
	.byte	$4F
	.byte	$8F
	.byte	$DD
	.byte	$D2
	.byte	$6F
	.byte	$BC
	.byte	$7A
	.byte	$23
	.byte	$9E
	.byte	$24
	.byte	$61
	.byte	$EA
	.byte	$F9
	.byte	$7B
	.byte	$96
	.byte	$18
	.byte	$F1
	.byte	$A8
	.byte	$27
	.byte	$A8
	.byte	$41
	.byte	$84
	.byte	$78
	.byte	$D3
	.byte	$4B
	.byte	$D3
	.byte	$3C
	.byte	$F4
	.byte	$A9
	.byte	$4E
	.byte	$A8
	.byte	$CA
	.byte	$5F
	.byte	$FA
	.byte	$55
	.byte	$AF
	.byte	$FB
	.byte	$D3
	.byte	$97
	.byte	$2E
	.byte	$D4
	.byte	$95
	.byte	$9E
	.byte	$9F
	.byte	$8A
	.byte	$0B
	.byte	$75
	.byte	$F7
	.byte	$FB
	.byte	$7E
	.byte	$28
	.byte	$9A
	.byte	$79
	.byte	$FE
	.byte	$B1
	.byte	$73
	.byte	$4A
	.byte	$E1
	.byte	$BA
	.byte	$60
	.byte	$7A
	.byte	$3D
	.byte	$23
	.byte	$CF
	.byte	$D2
	.byte	$51
	.byte	$4F
	.byte	$E0
	.byte	$04
	.byte	$00
_message533:
	.byte	$AE
	.byte	$E7
	.byte	$2A
	.byte	$04
	.byte	$32
	.byte	$19
	.byte	$A8
	.byte	$4E
	.byte	$17
	.byte	$F9
	.byte	$76
	.byte	$2B
	.byte	$A1
	.byte	$28
	.byte	$9F
	.byte	$0E
	.byte	$DB
	.byte	$D5
	.byte	$20
	.byte	$DD
	.byte	$18
	.byte	$0B
	.byte	$A6
	.byte	$08
	.byte	$35
	.byte	$AF
	.byte	$BF
	.byte	$A2
	.byte	$C3
	.byte	$EF
	.byte	$34
	.byte	$E7
	.byte	$37
	.byte	$82
	.byte	$BC
	.byte	$AE
	.byte	$1D
	.byte	$AA
	.byte	$60
	.byte	$34
	.byte	$5E
	.byte	$5D
	.byte	$0D
	.byte	$AF
	.byte	$CC
	.byte	$B3
	.byte	$9E
	.byte	$AB
	.byte	$E1
	.byte	$D5
	.byte	$78
	.byte	$5D
	.byte	$CA
	.byte	$6F
	.byte	$E8
	.byte	$9A
	.byte	$A5
	.byte	$6F
	.byte	$EE
	.byte	$08
	.byte	$35
	.byte	$FB
	.byte	$D7
	.byte	$BC
	.byte	$FE
	.byte	$25
	.byte	$CD
	.byte	$FA
	.byte	$C6
	.byte	$EB
	.byte	$3E
	.byte	$A2
	.byte	$D3
	.byte	$ED
	.byte	$3C
	.byte	$D1
	.byte	$DB
	.byte	$B7
	.byte	$61
	.byte	$7D
	.byte	$53
	.byte	$34
	.byte	$7E
	.byte	$B7
	.byte	$61
	.byte	$7D
	.byte	$46
	.byte	$BF
	.byte	$69
	.byte	$F6
	.byte	$ED
	.byte	$76
	.byte	$98
	.byte	$0E
	.byte	$65
	.byte	$00
_message534:
	.byte	$AE
	.byte	$F0
	.byte	$D0
	.byte	$59
	.byte	$84
	.byte	$6B
	.byte	$6E
	.byte	$FE
	.byte	$4D
	.byte	$AE
	.byte	$91
	.byte	$87
	.byte	$CE
	.byte	$22
	.byte	$5C
	.byte	$73
	.byte	$8C
	.byte	$D5
	.byte	$50
	.byte	$12
	.byte	$71
	.byte	$9A
	.byte	$D7
	.byte	$5F
	.byte	$CF
	.byte	$74
	.byte	$D8
	.byte	$86
	.byte	$32
	.byte	$00
_message535:
	.byte	$6E
	.byte	$C6
	.byte	$66
	.byte	$A5
	.byte	$EB
	.byte	$77
	.byte	$C7
	.byte	$3E
	.byte	$7C
	.byte	$DF
	.byte	$93
	.byte	$A6
	.byte	$31
	.byte	$85
	.byte	$79
	.byte	$9D
	.byte	$46
	.byte	$88
	.byte	$7C
	.byte	$29
	.byte	$3C
	.byte	$39
	.byte	$F2
	.byte	$8D
	.byte	$D7
	.byte	$B0
	.byte	$1D
	.byte	$FC
	.byte	$12
	.byte	$27
	.byte	$D4
	.byte	$6D
	.byte	$58
	.byte	$9F
	.byte	$E5
	.byte	$9B
	.byte	$C6
	.byte	$AA
	.byte	$A8
	.byte	$8D
	.byte	$55
	.byte	$AF
	.byte	$0B
	.byte	$4C
	.byte	$1E
	.byte	$83
	.byte	$4A
	.byte	$45
	.byte	$BF
	.byte	$E6
	.byte	$45
	.byte	$DE
	.byte	$69
	.byte	$CE
	.byte	$5F
	.byte	$E9
	.byte	$5E
	.byte	$BE
	.byte	$9B
	.byte	$67
	.byte	$54
	.byte	$8E
	.byte	$70
	.byte	$02
_message536:
	.byte	$6E
	.byte	$1D
	.byte	$9D
	.byte	$70
	.byte	$75
	.byte	$65
	.byte	$48
	.byte	$94
	.byte	$44
	.byte	$BC
	.byte	$46
	.byte	$88
	.byte	$A0
	.byte	$99
	.byte	$D1
	.byte	$09
	.byte	$17
	.byte	$00
_message537:
	.byte	$61
	.byte	$63
	.byte	$53
	.byte	$6F
	.byte	$DF
	.byte	$05
	.byte	$3E
	.byte	$34
	.byte	$5E
	.byte	$33
	.byte	$A3
	.byte	$43
	.byte	$F3
	.byte	$67
	.byte	$0E
	.byte	$CD
	.byte	$0C
	.byte	$EF
	.byte	$AF
	.byte	$D3
	.byte	$7C
	.byte	$4F
	.byte	$11
	.byte	$B7
	.byte	$3D
	.byte	$DF
	.byte	$E7
	.byte	$BE
	.byte	$A1
	.byte	$26
	.byte	$B0
	.byte	$FE
	.byte	$0E
	.byte	$53
	.byte	$74
	.byte	$E9
	.byte	$EF
	.byte	$DB
	.byte	$2B
	.byte	$FA
	.byte	$4D
	.byte	$63
	.byte	$FA
	.byte	$AA
	.byte	$D3
	.byte	$F8
	.byte	$35
	.byte	$D0
	.byte	$AF
	.byte	$47
	.byte	$5E
	.byte	$E3
	.byte	$95
	.byte	$E6
	.byte	$B7
	.byte	$88
	.byte	$66
	.byte	$86
	.byte	$F7
	.byte	$D7
	.byte	$71
	.byte	$9A
	.byte	$EB
	.byte	$2C
	.byte	$E5
	.byte	$B7
	.byte	$A9
	.byte	$7C
	.byte	$DD
	.byte	$C7
	.byte	$BE
	.byte	$CF
	.byte	$29
	.byte	$8B
	.byte	$91
	.byte	$A1
	.byte	$2F
	.byte	$7D
	.byte	$23
	.byte	$44
	.byte	$BE
	.byte	$DB
	.byte	$F1
	.byte	$EF
	.byte	$17
	.byte	$D1
	.byte	$78
	.byte	$75
	.byte	$F1
	.byte	$66
	.byte	$3E
	.byte	$1B
	.byte	$6A
	.byte	$1A
	.byte	$2B
	.byte	$2D
	.byte	$D7
	.byte	$95
	.byte	$9E
	.byte	$BC
	.byte	$9E
	.byte	$95
	.byte	$7C
	.byte	$3E
	.byte	$34
	.byte	$F3
	.byte	$EB
	.byte	$1A
	.byte	$AF
	.byte	$8B
	.byte	$3C
	.byte	$F1
	.byte	$DB
	.byte	$36
	.byte	$4E
	.byte	$00
_message600:
	.byte	$6E
	.byte	$1F
	.byte	$D7
	.byte	$F9
	.byte	$99
	.byte	$27
	.byte	$57
	.byte	$97
	.byte	$86
	.byte	$2F
	.byte	$47
	.byte	$29
	.byte	$E4
	.byte	$13
	.byte	$46
	.byte	$21
	.byte	$77
	.byte	$6E
	.byte	$DF
	.byte	$00
_message900:
	.byte	$6E
	.byte	$66
	.byte	$7D
	.byte	$23
	.byte	$C8
	.byte	$69
	.byte	$E6
	.byte	$19
	.byte	$E1
	.byte	$1A
	.byte	$00
_message901:
	.byte	$6E
	.byte	$66
	.byte	$7D
	.byte	$49
	.byte	$3F
	.byte	$D7
	.byte	$94
	.byte	$45
	.byte	$33
	.byte	$9F
	.byte	$D2
	.byte	$7D
	.byte	$B8
	.byte	$00
_message902:
	.byte	$B9
	.byte	$E3
	.byte	$0F
	.byte	$D7
	.byte	$00
_message903:
	.byte	$AE
	.byte	$DC
	.byte	$BE
	.byte	$5F
	.byte	$2E
	.byte	$1B
	.byte	$00
_message1000:
	.byte	$B9
	.byte	$CB
	.byte	$B7
	.byte	$0F
	.byte	$6F
	.byte	$27
	.byte	$00
_message1001:
	.byte	$6E
	.byte	$7D
	.byte	$D5
	.byte	$71
	.byte	$02
_message1002:
	.byte	$6E
	.byte	$7D
	.byte	$D5
	.byte	$71
	.byte	$02
_message1003:
	.byte	$61
	.byte	$63
	.byte	$53
	.byte	$E5
	.byte	$D9
	.byte	$B6
	.byte	$69
	.byte	$7A
	.byte	$BE
	.byte	$34
	.byte	$94
	.byte	$01
_message1004:
	.byte	$79
	.byte	$88
	.byte	$2A
	.byte	$CF
	.byte	$B6
	.byte	$4D
	.byte	$69
	.byte	$7E
	.byte	$8B
	.byte	$68
	.byte	$FC
	.byte	$EE
	.byte	$6F
	.byte	$A0
	.byte	$E9
	.byte	$7B
	.byte	$06
	.byte	$65
	.byte	$00
_message1005:
	.byte	$39
	.byte	$C6
	.byte	$BA
	.byte	$AE
	.byte	$9B
	.byte	$1F
	.byte	$A2
	.byte	$1B
	.byte	$C3
	.byte	$22
	.byte	$18
	.byte	$94
	.byte	$01
_message1006:
	.byte	$39
	.byte	$C6
	.byte	$6A
	.byte	$28
	.byte	$89
	.byte	$38
	.byte	$8D
	.byte	$5F
	.byte	$C3
	.byte	$5A
	.byte	$DE
	.byte	$BE
	.byte	$DB
	.byte	$B3
	.byte	$82
	.byte	$32
	.byte	$00
_message1007:
	.byte	$39
	.byte	$C6
	.byte	$9A
	.byte	$50
	.byte	$21
	.byte	$B2
	.byte	$D3
	.byte	$34
	.byte	$D6
	.byte	$1D
	.byte	$94
	.byte	$01
_message1008:
	.byte	$39
	.byte	$C6
	.byte	$BA
	.byte	$CD
	.byte	$5A
	.byte	$D3
	.byte	$B7
	.byte	$F8
	.byte	$8C
	.byte	$C6
	.byte	$6F
	.byte	$5E
	.byte	$0F
	.byte	$91
	.byte	$EF
	.byte	$F6
	.byte	$AC
	.byte	$A0
	.byte	$0C
	.byte	$00
_message1009:
	.byte	$AE
	.byte	$19
	.byte	$F4
	.byte	$84
	.byte	$0B
	.byte	$00
_message1010:
	.byte	$39
	.byte	$C6
	.byte	$BA
	.byte	$CD
	.byte	$5A
	.byte	$E3
	.byte	$04
	.byte	$00
_message1011:
	.byte	$F9
	.byte	$71
	.byte	$4F
	.byte	$34
	.byte	$A1
	.byte	$42
	.byte	$64
	.byte	$A7
	.byte	$69
	.byte	$AC
	.byte	$3B
	.byte	$28
	.byte	$03
_message1012:
	.byte	$6E
	.byte	$66
	.byte	$7D
	.byte	$23
	.byte	$C8
	.byte	$69
	.byte	$E6
	.byte	$19
	.byte	$E1
	.byte	$1A
	.byte	$00
_message1013:
	.byte	$79
	.byte	$88
	.byte	$52
	.byte	$FD
	.byte	$4D
	.byte	$A8
	.byte	$36
	.byte	$D6
	.byte	$75
	.byte	$25
	.byte	$11
	.byte	$51
	.byte	$F3
	.byte	$22
	.byte	$EF
	.byte	$04
	.byte	$00
_message1014:
	.byte	$F9
	.byte	$FF
	.byte	$EB
	.byte	$ED
	.byte	$DB
	.byte	$81
	.byte	$7E
	.byte	$9D
	.byte	$06
	.byte	$00
_message1015:
	.byte	$55
	.byte	$CF
	.byte	$76
	.byte	$DD
	.byte	$C0
	.byte	$E5
	.byte	$A7
	.byte	$E9
	.byte	$F3
	.byte	$46
	.byte	$83
	.byte	$D1
	.byte	$00
_message1016:
	.byte	$DD
	.byte	$BC
	.byte	$E9
	.byte	$39
	.byte	$01
_message1018:
	.byte	$2E
	.byte	$16
	.byte	$67
	.byte	$AD
	.byte	$69
	.byte	$00
_message1019:
	.byte	$39
	.byte	$A7
	.byte	$67
	.byte	$71
	.byte	$D6
	.byte	$9A
	.byte	$D2
	.byte	$F7
	.byte	$44
	.byte	$00
_message1020:
	.byte	$AE
	.byte	$67
	.byte	$AD
	.byte	$E9
	.byte	$5B
	.byte	$7C
	.byte	$46
	.byte	$49
	.byte	$F0
	.byte	$9A
	.byte	$5C
	.byte	$36
	.byte	$00
_message1021:
	.byte	$36
	.byte	$1C
	.byte	$03
_message1022:
	.byte	$CB
	.byte	$C7
	.byte	$00
_message1023:
	.byte	$58
	.byte	$1A
	.byte	$00
_message1024:
	.byte	$43
	.byte	$62
	.byte	$69
	.byte	$00
_message1025:
	.byte	$2F
	.byte	$3A
	.byte	$01
_message1026:
	.byte	$D4
	.byte	$5F
	.byte	$6B
	.byte	$02
_message1027:
	.byte	$36
	.byte	$1C
	.byte	$B1
	.byte	$34
	.byte	$00
_message1028:
	.byte	$36
	.byte	$1C
	.byte	$87
	.byte	$C4
	.byte	$D2
	.byte	$00
_message1029:
	.byte	$CB
	.byte	$47
	.byte	$2C
	.byte	$0D
	.byte	$00
_message1030:
	.byte	$CB
	.byte	$C7
	.byte	$21
	.byte	$B1
	.byte	$34
	.byte	$00
_message1031:
	.byte	$AE
	.byte	$67
	.byte	$AD
	.byte	$29
	.byte	$89
	.byte	$08
	.byte	$46
	.byte	$2E
	.byte	$1B
	.byte	$00
_message1032:
	.byte	$6E
	.byte	$C6
	.byte	$BA
	.byte	$A3
	.byte	$D9
	.byte	$C9
	.byte	$65
	.byte	$03
_message1033:
	.byte	$39
	.byte	$C6
	.byte	$9A
	.byte	$9D
	.byte	$9A
	.byte	$17
	.byte	$F9
	.byte	$A6
	.byte	$B1
	.byte	$EE
	.byte	$70
	.byte	$02
_message1035:
	.byte	$D4
	.byte	$5F
	.byte	$FA
	.byte	$01
_message1050:
	.byte	$39
	.byte	$FD
	.byte	$D0
	.byte	$93
	.byte	$CB
	.byte	$06
	.byte	$00
_message1051:
	.byte	$AE
	.byte	$BD
	.byte	$29
	.byte	$68
	.byte	$FA
	.byte	$26
	.byte	$97
	.byte	$0D
	.byte	$00
_message1052:
	.byte	$14
	.byte	$3C
	.byte	$DB
	.byte	$E5
	.byte	$B2
	.byte	$01
_dir:
	.addr	_message1021
	.addr	_message1022
	.addr	_message1023
	.addr	_message1024
	.addr	_message1025
	.addr	_message1026
_desc_l1:
	.byte	$DE
	.byte	$4A
	.byte	$8E
	.byte	$BC
	.byte	$E9
	.byte	$D9
	.byte	$74
	.byte	$F3
	.byte	$54
	.byte	$AA
	.byte	$5C
	.byte	$3A
	.byte	$7D
	.byte	$BE
	.byte	$09
	.byte	$00
_desc_l2:
	.byte	$27
	.byte	$95
	.byte	$A3
	.byte	$F2
	.byte	$34
	.byte	$E2
	.byte	$BA
	.byte	$0F
	.byte	$EB
	.byte	$35
	.byte	$42
	.byte	$9A
	.byte	$79
	.byte	$FE
	.byte	$31
	.byte	$D4
	.byte	$C5
	.byte	$9B
	.byte	$F9
	.byte	$6C
	.byte	$00
_desc_l3:
	.byte	$DE
	.byte	$3A
	.byte	$3C
	.byte	$32
	.byte	$F4
	.byte	$4D
	.byte	$E3
	.byte	$77
	.byte	$1B
	.byte	$59
	.byte	$13
	.byte	$00
_desc_l4:
	.byte	$DE
	.byte	$9A
	.byte	$3E
	.byte	$A5
	.byte	$7B
	.byte	$F2
	.byte	$14
	.byte	$0D
	.byte	$DF
	.byte	$7A
	.byte	$BA
	.byte	$69
	.byte	$AC
	.byte	$27
	.byte	$DD
	.byte	$DF
	.byte	$2E
	.byte	$4D
	.byte	$6F
	.byte	$8D
	.byte	$BC
	.byte	$4E
	.byte	$37
	.byte	$70
	.byte	$AF
	.byte	$F2
	.byte	$E4
	.byte	$F0
	.byte	$75
	.byte	$8D
	.byte	$EA
	.byte	$54
	.byte	$61
	.byte	$EB
	.byte	$C6
	.byte	$10
	.byte	$00
_desc_l5:
	.byte	$DE
	.byte	$BA
	.byte	$FD
	.byte	$4D
	.byte	$E3
	.byte	$35
	.byte	$33
	.byte	$4C
	.byte	$BD
	.byte	$74
	.byte	$8D
	.byte	$5F
	.byte	$08
	.byte	$54
	.byte	$F9
	.byte	$D2
	.byte	$2D
	.byte	$FD
	.byte	$00
_desc_l6:
	.byte	$DE
	.byte	$9A
	.byte	$DE
	.byte	$22
	.byte	$E4
	.byte	$A9
	.byte	$3C
	.byte	$05
	.byte	$7D
	.byte	$EE
	.byte	$37
	.byte	$8D
	.byte	$D7
	.byte	$8D
	.byte	$41
	.byte	$83
	.byte	$1C
	.byte	$41
	.byte	$33
	.byte	$AF
	.byte	$EA
	.byte	$F9
	.byte	$03
_desc_l7:
	.byte	$DE
	.byte	$CA
	.byte	$A3
	.byte	$23
	.byte	$D3
	.byte	$78
	.byte	$B5
	.byte	$5F
	.byte	$CA
	.byte	$D3
	.byte	$5B
	.byte	$23
	.byte	$6F
	.byte	$8A
	.byte	$6E
	.byte	$F2
	.byte	$4B
	.byte	$2F
	.byte	$73
	.byte	$E9
	.byte	$75
	.byte	$2A
	.byte	$CF
	.byte	$F4
	.byte	$34
	.byte	$F7
	.byte	$9A
	.byte	$F6
	.byte	$00
_desc_l8:
	.byte	$DE
	.byte	$BE
	.byte	$69
	.byte	$38
	.byte	$7E
	.byte	$C5
	.byte	$1B
	.byte	$FD
	.byte	$4D
	.byte	$C7
	.byte	$E9
	.byte	$AB
	.byte	$8C
	.byte	$EE
	.byte	$50
	.byte	$BE
	.byte	$00
_desc_l9:
	.byte	$D7
	.byte	$ED
	.byte	$F9
	.byte	$77
	.byte	$98
	.byte	$5E
	.byte	$D7
	.byte	$27
	.byte	$BE
	.byte	$C6
	.byte	$6F
	.byte	$D8
	.byte	$EC
	.byte	$FB
	.byte	$34
	.byte	$EC
	.byte	$13
	.byte	$38
	.byte	$8E
	.byte	$A2
	.byte	$7C
	.byte	$46
	.byte	$C2
	.byte	$BC
	.byte	$5E
	.byte	$0D
	.byte	$22
	.byte	$5F
	.byte	$D7
	.byte	$C7
	.byte	$BF
	.byte	$5F
	.byte	$44
	.byte	$E3
	.byte	$D5
	.byte	$C5
	.byte	$9B
	.byte	$F9
	.byte	$6C
	.byte	$00
_desc_l10:
	.byte	$DE
	.byte	$FA
	.byte	$A2
	.byte	$CF
	.byte	$E8
	.byte	$D9
	.byte	$7A
	.byte	$A3
	.byte	$FD
	.byte	$D9
	.byte	$EB
	.byte	$04
	.byte	$00
_desc_l12:
	.byte	$DE
	.byte	$AA
	.byte	$9F
	.byte	$92
	.byte	$3F
	.byte	$9B
	.byte	$00
_desc_l13:
	.byte	$DE
	.byte	$BA
	.byte	$A0
	.byte	$8D
	.byte	$57
	.byte	$EA
	.byte	$AB
	.byte	$82
	.byte	$0F
	.byte	$4D
	.byte	$CF
	.byte	$97
	.byte	$B2
	.byte	$08
	.byte	$00
_desc_l14:
	.byte	$91
	.byte	$87
	.byte	$CE
	.byte	$22
	.byte	$00
_desc_l16:
	.byte	$DE
	.byte	$A6
	.byte	$E1
	.byte	$D9
	.byte	$FD
	.byte	$33
	.byte	$99
	.byte	$E3
	.byte	$09
	.byte	$CF
	.byte	$01
_desc_l17:
	.byte	$DE
	.byte	$BE
	.byte	$6B
	.byte	$FB
	.byte	$F8
	.byte	$E5
	.byte	$51
	.byte	$FD
	.byte	$00
_desc_l18:
	.byte	$DE
	.byte	$9A
	.byte	$9E
	.byte	$15
	.byte	$22
	.byte	$D3
	.byte	$78
	.byte	$4D
	.byte	$C7
	.byte	$E9
	.byte	$EB
	.byte	$AD
	.byte	$3B
	.byte	$94
	.byte	$A7
	.byte	$F1
	.byte	$2A
	.byte	$AF
	.byte	$13
	.byte	$00
_desc_l19:
	.byte	$DE
	.byte	$BA
	.byte	$9E
	.byte	$D3
	.byte	$64
	.byte	$9E
	.byte	$9E
	.byte	$FE
	.byte	$06
	.byte	$D6
	.byte	$09
	.byte	$00
_desc_l20:
	.byte	$DE
	.byte	$BE
	.byte	$E1
	.byte	$79
	.byte	$FF
	.byte	$95
	.byte	$B2
	.byte	$E0
	.byte	$6F
	.byte	$24
	.byte	$86
	.byte	$27
	.byte	$3C
	.byte	$07
	.byte	$00
_desc_l21:
	.byte	$DE
	.byte	$BE
	.byte	$BB
	.byte	$DF
	.byte	$F7
	.byte	$FB
	.byte	$A6
	.byte	$B1
	.byte	$0A
	.byte	$4A
	.byte	$85
	.byte	$45
	.byte	$74
	.byte	$F3
	.byte	$72
	.byte	$8A
	.byte	$00
_desc_l22:
	.byte	$DE
	.byte	$A6
	.byte	$2B
	.byte	$65
	.byte	$21
	.byte	$50
	.byte	$9E
	.byte	$A6
	.byte	$31
	.byte	$85
	.byte	$E9
	.byte	$04
	.byte	$00
_desc_l23:
	.byte	$DE
	.byte	$BE
	.byte	$8A
	.byte	$F4
	.byte	$8D
	.byte	$57
	.byte	$01
	.byte	$6D
	.byte	$D3
	.byte	$CC
	.byte	$19
	.byte	$76
	.byte	$98
	.byte	$A2
	.byte	$7C
	.byte	$99
	.byte	$B3
	.byte	$D3
	.byte	$2F
	.byte	$9A
	.byte	$66
	.byte	$03
	.byte	$EB
	.byte	$37
	.byte	$7E
	.byte	$BD
	.byte	$95
	.byte	$84
	.byte	$F2
	.byte	$04
	.byte	$00
_desc_l100:
	.byte	$DE
	.byte	$BE
	.byte	$24
	.byte	$52
	.byte	$CA
	.byte	$DE
	.byte	$57
	.byte	$87
	.byte	$D3
	.byte	$7D
	.byte	$FD
	.byte	$7A
	.byte	$FD
	.byte	$00
_desc_l101:
	.byte	$11
	.byte	$22
	.byte	$68
	.byte	$66
	.byte	$74
	.byte	$1A
	.byte	$21
	.byte	$8D
	.byte	$58
	.byte	$60
	.byte	$9D
	.byte	$9E
	.byte	$E9
	.byte	$B0
	.byte	$4D
	.byte	$5F
	.byte	$E4
	.byte	$EB
	.byte	$FA
	.byte	$F8
	.byte	$F7
	.byte	$8B
	.byte	$68
	.byte	$BC
	.byte	$BA
	.byte	$78
	.byte	$33
	.byte	$9F
	.byte	$0D
	.byte	$00
_desc_l102:
	.byte	$11
	.byte	$22
	.byte	$68
	.byte	$66
	.byte	$74
	.byte	$1A
	.byte	$21
	.byte	$8D
	.byte	$58
	.byte	$60
	.byte	$9D
	.byte	$A6
	.byte	$B1
	.byte	$BE
	.byte	$34
	.byte	$C1
	.byte	$94
	.byte	$A7
	.byte	$F2
	.byte	$A5
	.byte	$F9
	.byte	$2D
	.byte	$A2
	.byte	$AE
	.byte	$8F
	.byte	$7F
	.byte	$BF
	.byte	$88
	.byte	$C6
	.byte	$AB
	.byte	$8B
	.byte	$37
	.byte	$F3
	.byte	$D9
	.byte	$00
_desc_l104:
	.byte	$DE
	.byte	$A6
	.byte	$2B
	.byte	$3D
	.byte	$3F
	.byte	$15
	.byte	$D3
	.byte	$F5
	.byte	$89
	.byte	$27
	.byte	$00
_desc_l105:
	.byte	$DE
	.byte	$4A
	.byte	$BF
	.byte	$EA
	.byte	$D4
	.byte	$C0
	.byte	$D3
	.byte	$F8
	.byte	$D2
	.byte	$0D
	.byte	$32
	.byte	$4D
	.byte	$C3
	.byte	$3A
	.byte	$01
_desc_l106:
	.byte	$DE
	.byte	$9A
	.byte	$91
	.byte	$F7
	.byte	$3A
	.byte	$8D
	.byte	$C4
	.byte	$33
	.byte	$7D
	.byte	$22
	.byte	$1F
	.byte	$00
_desc_l108:
	.byte	$DE
	.byte	$BE
	.byte	$0A
	.byte	$F9
	.byte	$A6
	.byte	$2C
	.byte	$CA
	.byte	$A7
	.byte	$FC
	.byte	$A8
	.byte	$FA
	.byte	$E9
	.byte	$F6
	.byte	$91
	.byte	$11
	.byte	$6A
	.byte	$BC
	.byte	$C6
	.byte	$DB
	.byte	$61
	.byte	$EB
	.byte	$C6
	.byte	$AE
	.byte	$58
	.byte	$4F
	.byte	$83
	.byte	$5F
	.byte	$11
	.byte	$00
_desc_l109:
	.byte	$DE
	.byte	$0A
	.byte	$1B
	.byte	$DE
	.byte	$D1
	.byte	$B5
	.byte	$21
	.byte	$A5
	.byte	$EC
	.byte	$4D
	.byte	$53
	.byte	$16
	.byte	$E5
	.byte	$4B
	.byte	$B3
	.byte	$31
	.byte	$AA
	.byte	$A3
	.byte	$2F
	.byte	$3B
	.byte	$4C
	.byte	$51
	.byte	$F9
	.byte	$6E
	.byte	$CF
	.byte	$50
	.byte	$74
	.byte	$48
	.byte	$2C
	.byte	$0D
	.byte	$00
_desc_l110:
	.byte	$19
	.byte	$FE
	.byte	$7D
	.byte	$87
	.byte	$E9
	.byte	$35
	.byte	$5E
	.byte	$BD
	.byte	$4D
	.byte	$D7
	.byte	$86
	.byte	$94
	.byte	$B2
	.byte	$37
	.byte	$E5
	.byte	$4B
	.byte	$B3
	.byte	$81
	.byte	$F5
	.byte	$1A
	.byte	$AF
	.byte	$F6
	.byte	$4B
	.byte	$79
	.byte	$02
_desc_l112:
	.byte	$DE
	.byte	$9A
	.byte	$D7
	.byte	$7F
	.byte	$E4
	.byte	$29
	.byte	$04
	.byte	$AA
	.byte	$7C
	.byte	$69
	.byte	$9A
	.byte	$C6
	.byte	$AA
	.byte	$6F
	.byte	$7A
	.byte	$3D
	.byte	$53
	.byte	$30
	.byte	$7B
	.byte	$D5
	.byte	$E1
	.byte	$0B
	.byte	$00
_obj:
	.word	$0001
	.addr	L581B
	.addr	_desc_l1
	.word	$0001
	.word	$0000
	.word	$0010
	.byte	$01
	.byte	$01
	.word	$0002
	.addr	L5824
	.addr	_desc_l2
	.word	$0001
	.word	$0000
	.word	$0000
	.byte	$01
	.byte	$01
	.word	$0003
	.addr	L582D
	.addr	_desc_l3
	.word	$0000
	.word	$0000
	.word	$0000
	.byte	$01
	.byte	$01
	.word	$0004
	.addr	L5836
	.addr	_desc_l4
	.word	$0000
	.word	$0000
	.word	$0029
	.byte	$01
	.byte	$01
	.word	$0005
	.addr	L583F
	.addr	_desc_l5
	.word	$0000
	.word	$0000
	.word	$0029
	.byte	$01
	.byte	$01
	.word	$0006
	.addr	L5848
	.addr	_desc_l6
	.word	$0001
	.word	$0000
	.word	$0000
	.byte	$01
	.byte	$01
	.word	$0007
	.addr	L5851
	.addr	_desc_l7
	.word	$0000
	.word	$0000
	.word	$0029
	.byte	$01
	.byte	$01
	.word	$0008
	.addr	L585A
	.addr	_desc_l8
	.word	$0001
	.word	$0000
	.word	$0000
	.byte	$01
	.byte	$01
	.word	$0009
	.addr	L5863
	.addr	_desc_l9
	.word	$0000
	.word	$0000
	.word	$0000
	.byte	$01
	.byte	$00
	.word	$000A
	.addr	L586C
	.addr	_desc_l10
	.word	$0000
	.word	$0000
	.word	$0000
	.byte	$00
	.byte	$01
	.word	$000C
	.addr	L5875
	.addr	_desc_l12
	.word	$0001
	.word	$0000
	.word	$0000
	.byte	$01
	.byte	$01
	.word	$000D
	.addr	L587E
	.addr	_desc_l13
	.word	$0000
	.word	$0000
	.word	$0029
	.byte	$01
	.byte	$01
	.word	$000E
	.addr	L5887
	.addr	_desc_l14
	.word	$0001
	.word	$0000
	.word	$0012
	.byte	$01
	.byte	$01
	.word	$0010
	.addr	L5890
	.addr	_desc_l16
	.word	$0001
	.word	$0000
	.word	$000F
	.byte	$00
	.byte	$01
	.word	$0011
	.addr	L5899
	.addr	_desc_l17
	.word	$0001
	.word	$0000
	.word	$0010
	.byte	$01
	.byte	$01
	.word	$0012
	.addr	L58A2
	.addr	_desc_l18
	.word	$0002
	.word	$0004
	.word	$0000
	.byte	$01
	.byte	$01
	.word	$0013
	.addr	L58AB
	.addr	_desc_l19
	.word	$0000
	.word	$0000
	.word	$0019
	.byte	$00
	.byte	$01
	.word	$0014
	.addr	L58B4
	.addr	_desc_l20
	.word	$0001
	.word	$0000
	.word	$0011
	.byte	$01
	.byte	$01
	.word	$0015
	.addr	L58BD
	.addr	_desc_l21
	.word	$0000
	.word	$0000
	.word	$0011
	.byte	$00
	.byte	$01
	.word	$0016
	.addr	L58C6
	.addr	_desc_l22
	.word	$0000
	.word	$0000
	.word	$0016
	.byte	$00
	.byte	$01
	.word	$0017
	.addr	L58CF
	.addr	_desc_l23
	.word	$0000
	.word	$0000
	.word	$0014
	.byte	$00
	.byte	$01
	.word	$0064
	.addr	L58D8
	.addr	_desc_l100
	.word	$0000
	.word	$0000
	.word	$0000
	.byte	$01
	.byte	$01
	.word	$0065
	.addr	L58E1
	.addr	_desc_l101
	.word	$0000
	.word	$0000
	.word	$0010
	.byte	$00
	.byte	$01
	.word	$0066
	.addr	L58EA
	.addr	_desc_l102
	.word	$0000
	.word	$0000
	.word	$0013
	.byte	$00
	.byte	$01
	.word	$0068
	.addr	L58F3
	.addr	_desc_l104
	.word	$0000
	.word	$0000
	.word	$0023
	.byte	$01
	.byte	$01
	.word	$0069
	.addr	L58FC
	.addr	_desc_l105
	.word	$0000
	.word	$0000
	.word	$0006
	.byte	$00
	.byte	$01
	.word	$006A
	.addr	L5905
	.addr	_desc_l106
	.word	$0001
	.word	$0000
	.word	$0006
	.byte	$01
	.byte	$01
	.word	$006C
	.addr	L590E
	.addr	_desc_l108
	.word	$0000
	.word	$0000
	.word	$0000
	.byte	$00
	.byte	$01
	.word	$006D
	.addr	L5917
	.addr	_desc_l109
	.word	$0000
	.word	$0000
	.word	$001B
	.byte	$00
	.byte	$01
	.word	$006E
	.addr	L5920
	.addr	_desc_l110
	.word	$0000
	.word	$0000
	.word	$0000
	.byte	$00
	.byte	$01
	.word	$0070
	.addr	L5929
	.addr	_desc_l112
	.word	$0000
	.word	$0000
	.word	$0029
	.byte	$00
	.byte	$01

.segment	"RODATA"

L5A49:
	.byte	$D0,$45,$52,$20,$49,$4C,$20,$33,$30,$45,$4E,$4E,$41,$4C,$45,$20
	.byte	$44,$45,$4C,$4C,$41,$20,$D0,$49,$52,$41,$4D,$49,$44,$45,$20,$44
	.byte	$49,$20,$C9,$55,$4E,$4E,$55,$48,$20,$28,$53,$45,$54,$54,$45,$4D
	.byte	$42,$52,$45,$20,$31,$39,$38,$34,$29,$00
L5A25:
	.byte	$C9,$55,$4E,$4E,$55,$48,$20,$32,$20,$CC,$41,$20,$4D,$41,$4C,$45
	.byte	$44,$49,$5A,$49,$4F,$4E,$45,$20,$43,$48,$45,$20,$56,$49,$45,$4E
	.byte	$45,$20,$44,$41,$4C,$20,$50,$41,$53,$53,$41,$54,$4F,$00
L5A31:
	.byte	$C1,$52,$49,$53,$54,$49,$44,$45,$20,$D4,$4F,$52,$52,$45,$4C,$4C
	.byte	$49,$00
L5A1F:
	.byte	$C1,$56,$56,$45,$4E,$54,$55,$52,$41,$3A,$20,$20,$20,$00
L5A37:
	.byte	$C4,$41,$54,$41,$3A,$20,$20,$20,$20,$20,$20,$20,$20,$00
L5A43:
	.byte	$C4,$45,$53,$43,$52,$49,$5A,$49,$4F,$4E,$45,$3A,$20,$00
L5A2B:
	.byte	$C1,$55,$54,$4F,$52,$45,$3A,$20,$20,$20,$20,$20,$20,$00
L5A4F:
	.byte	$C1,$D7,$D3,$20,$56,$45,$52,$53,$49,$4F,$4E,$3A,$20,$00
L0638:
	.byte	$C9,$CD,$C2,$C1,$CC,$D3,$C1,$CD,$C1,$D4,$CF,$D2,$C5,$00
L04A4:
	.byte	$C9,$CE,$D4,$C5,$D2,$D2,$D5,$D4,$D4,$CF,$D2,$C5,$00
L05A4:
	.byte	$C2,$C9,$C7,$CC,$C9,$C5,$D4,$D4,$C5,$D2,$C9,$C1,$00
L05E4:
	.byte	$D2,$C9,$D0,$D2,$CF,$C4,$D5,$DA,$C9,$CF,$CE,$C5,$00
L05E8:
	.byte	$D2,$C9,$D0,$D2,$CF,$C4,$D5,$DA,$C9,$CF,$CE,$C9,$00
L02BC:
	.byte	$C9,$CE,$D3,$C1,$CE,$C7,$D5,$C9,$CE,$C1,$D4,$CF,$00
L58EA:
	.byte	$46,$4F,$54,$4F,$50,$49,$52,$41,$4D,$49,$44,$45,$00
L04A8:
	.byte	$C9,$CE,$D4,$C5,$D2,$D2,$D5,$D4,$D4,$CF,$D2,$C9,$00
L03E0:
	.byte	$C3,$CF,$CD,$C2,$C9,$CE,$C1,$DA,$C9,$CF,$CE,$C5,$00
L0304:
	.byte	$C7,$C5,$D2,$CF,$C7,$CC,$C9,$C6,$C9,$C3,$C9,$00
L0584:
	.byte	$CD,$C1,$D2,$C3,$C9,$C1,$D0,$C9,$C5,$C4,$C5,$00
L0560:
	.byte	$C1,$D2,$D2,$C1,$CD,$D0,$C9,$C3,$C1,$D4,$C9,$00
L0308:
	.byte	$C7,$C5,$D2,$CF,$C7,$CC,$C9,$C6,$C9,$C3,$CF,$00
L0414:
	.byte	$C6,$CF,$D4,$CF,$C7,$D2,$C1,$C6,$C9,$C5,$00
L0388:
	.byte	$C9,$CE,$D6,$C5,$CE,$D4,$C1,$D2,$C9,$CF,$00
L06BC:
	.byte	$CC,$C1,$CD,$D0,$C1,$C4,$C1,$D2,$C9,$CF,$00
L0294:
	.byte	$C3,$C1,$C3,$C3,$C9,$C1,$D6,$C9,$D4,$C5,$00
L02A4:
	.byte	$C3,$C1,$CE,$C4,$C5,$CC,$C1,$C2,$D2,$CF,$00
L04C8:
	.byte	$C2,$C9,$C2,$CC,$C9,$CF,$D4,$C5,$C3,$C1,$00
L0538:
	.byte	$D6,$C1,$C6,$C6,$C1,$CE,$C3,$D5,$CC,$CF,$00
L0708:
	.byte	$D2,$C9,$C3,$CF,$CD,$C9,$CE,$C3,$C9,$C1,$00
L03F8:
	.byte	$D4,$C1,$D3,$D4,$C9,$C5,$D2,$C9,$CE,$CF,$00
L0610:
	.byte	$C1,$CC,$C3,$C8,$C9,$CD,$C9,$D3,$D4,$C1,$00
L5836:
	.byte	$43,$41,$43,$43,$49,$41,$56,$49,$54,$45,$00
L0410:
	.byte	$C6,$CF,$D4,$CF,$C7,$D2,$C1,$C6,$C9,$C1,$00
L030C:
	.byte	$C9,$D3,$C3,$D2,$C9,$DA,$C9,$CF,$CE,$C9,$00
L05C8:
	.byte	$C1,$CE,$D4,$C9,$D0,$C1,$CE,$C9,$C3,$CF,$00
L05CC:
	.byte	$CD,$C1,$CE,$C9,$C7,$CC,$C9,$CF,$CE,$C5,$00
L58FC:
	.byte	$47,$41,$54,$54,$4F,$20,$4E,$45,$52,$4F,$00
L5848:
	.byte	$43,$41,$4E,$44,$45,$4C,$41,$42,$52,$4F,$00
L02B4:
	.byte	$D0,$C1,$D2,$C1,$CD,$C5,$CE,$D4,$C9,$00
L05DC:
	.byte	$D3,$D4,$D2,$D5,$D4,$D4,$D5,$D2,$C1,$00
L0328:
	.byte	$C3,$C5,$D2,$C9,$CD,$CF,$CE,$C9,$C1,$00
L0314:
	.byte	$C3,$CF,$D2,$D2,$C9,$C4,$CF,$C9,$CF,$00
L060C:
	.byte	$D0,$C5,$CE,$D4,$C5,$CC,$C9,$C3,$CF,$00
L05B8:
	.byte	$D3,$D0,$CF,$D2,$D4,$C5,$CC,$CC,$CF,$00
L05B4:
	.byte	$D3,$D0,$CF,$D2,$D4,$C5,$CC,$CC,$C9,$00
L5920:
	.byte	$46,$52,$41,$4D,$4D,$45,$4E,$54,$49,$00
L0340:
	.byte	$C1,$D2,$D2,$C5,$CE,$C4,$C9,$D4,$C9,$00
L0634:
	.byte	$D3,$D4,$D2,$D5,$CD,$C5,$CE,$D4,$C9,$00
L057C:
	.byte	$D3,$C3,$C1,$CC,$C9,$CE,$C1,$D4,$C1,$00
L0568:
	.byte	$C5,$D4,$C9,$C3,$C8,$C5,$D4,$D4,$C5,$00
L0564:
	.byte	$C5,$D4,$C9,$C3,$C8,$C5,$D4,$D4,$C1,$00
L5863:
	.byte	$50,$41,$52,$41,$4D,$45,$4E,$54,$49,$00
L067C:
	.byte	$C2,$C9,$C7,$CC,$C9,$C5,$D4,$D4,$C9,$00
L04EC:
	.byte	$D0,$D5,$CE,$D4,$C5,$C7,$C7,$C9,$CF,$00
L0680:
	.byte	$C2,$C9,$C7,$CC,$C9,$C5,$D4,$D4,$CF,$00
L04BC:
	.byte	$D3,$C3,$D2,$C9,$D4,$D4,$CF,$C9,$CF,$00
L0368:
	.byte	$D4,$C1,$D2,$C7,$C8,$C5,$D4,$D4,$C1,$00
L036C:
	.byte	$C2,$C1,$CC,$C3,$CF,$CE,$C1,$D4,$C1,$00
L02EC:
	.byte	$D3,$C1,$D2,$C3,$CF,$C6,$C1,$C7,$CF,$00
L069C:
	.byte	$D0,$C1,$D2,$C1,$D0,$C5,$D4,$D4,$CF,$00
L04A0:
	.byte	$C6,$D2,$C1,$CD,$CD,$C5,$CE,$D4,$CF,$00
L049C:
	.byte	$C6,$D2,$C1,$CD,$CD,$C5,$CE,$D4,$C9,$00
L0480:
	.byte	$C5,$CC,$C5,$D4,$D4,$D2,$C9,$C3,$CF,$00
L043C:
	.byte	$C9,$CE,$D3,$C5,$D2,$C9,$D3,$C3,$C9,$00
L06C4:
	.byte	$C1,$C3,$C3,$C1,$D2,$C5,$DA,$DA,$C1,$00
L0418:
	.byte	$D3,$C3,$C8,$C5,$CC,$C5,$D4,$D2,$CF,$00
L06DC:
	.byte	$C3,$D2,$C9,$D3,$D4,$C1,$CC,$CC,$C9,$00
L06E0:
	.byte	$C3,$D2,$C9,$D3,$D4,$C1,$CC,$CC,$CF,$00
L581B:
	.byte	$56,$4F,$4C,$41,$4E,$54,$49,$4E,$4F,$00
L0600:
	.byte	$D0,$C1,$D6,$C9,$CD,$C5,$CE,$D4,$CF,$00
L0284:
	.byte	$D6,$CF,$CC,$C1,$CE,$D4,$C9,$CE,$CF,$00
L5917:
	.byte	$53,$50,$45,$43,$43,$48,$49,$4F,$00
L590E:
	.byte	$52,$49,$54,$52,$41,$54,$54,$4F,$00
L0290:
	.byte	$CF,$D2,$CF,$CC,$CF,$C7,$C9,$CF,$00
L02E8:
	.byte	$C3,$C1,$D2,$D4,$C5,$CC,$CC,$CF,$00
L58F3:
	.byte	$53,$43,$41,$52,$41,$42,$45,$4F,$00
L06A4:
	.byte	$D3,$D0,$CF,$D3,$D4,$C1,$D4,$C9,$00
L04DC:
	.byte	$C3,$CF,$CC,$D0,$C9,$D3,$C3,$C9,$00
L06A8:
	.byte	$C3,$CF,$CD,$D0,$D5,$D4,$C5,$D2,$00
L58A2:
	.byte	$43,$41,$52,$54,$45,$4C,$4C,$4F,$00
L0460:
	.byte	$D3,$D0,$C5,$C3,$C3,$C8,$C9,$CF,$00
L0458:
	.byte	$D2,$C9,$D4,$D2,$C1,$D4,$D4,$CF,$00
L587E:
	.byte	$42,$41,$54,$54,$45,$52,$49,$45,$00
L03D4	:=	L06A8+0
L5875:
	.byte	$54,$41,$43,$43,$55,$49,$4E,$4F,$00
L0580:
	.byte	$C9,$CE,$C7,$D2,$C5,$D3,$D3,$CF,$00
L02C4:
	.byte	$D4,$C1,$C3,$C3,$D5,$C9,$CE,$CF,$00
L05BC:
	.byte	$D0,$C9,$D2,$C1,$CD,$C9,$C4,$C5,$00
L0650:
	.byte	$C3,$C1,$D0,$D0,$C5,$CC,$CC,$C1,$00
L03EC:
	.byte	$33,$30,$30,$39,$31,$39,$38,$34,$00
L062C:
	.byte	$D4,$D2,$C1,$D0,$C1,$D3,$D3,$CF,$00
L03F4:
	.byte	$D4,$C1,$D3,$D4,$C9,$C5,$D2,$C1,$00
L02C8:
	.byte	$C2,$C1,$D4,$D4,$C5,$D2,$C9,$C1,$00
L0508:
	.byte	$CF,$CE,$C4,$C5,$C7,$C7,$C9,$C1,$00
L0448:
	.byte	$D3,$C3,$C1,$D2,$C1,$C2,$C5,$CF,$00
L02CC:
	.byte	$C2,$C1,$D4,$D4,$C5,$D2,$C9,$C5,$00
L05D4:
	.byte	$D3,$CF,$C6,$C6,$C9,$D4,$D4,$C9,$00
L582D:
	.byte	$4F,$52,$4F,$4C,$4F,$47,$49,$4F,$00
L05D8:
	.byte	$D3,$CF,$C6,$C6,$C9,$D4,$D4,$CF,$00
L0444:
	.byte	$C9,$CE,$C7,$D2,$C5,$D3,$D3,$C1,$00
L0628:
	.byte	$C9,$CD,$CD,$C1,$C7,$C9,$CE,$C9,$00
L041C:
	.byte	$D3,$CD,$C5,$D2,$C1,$CC,$C4,$CF,$00
L0318:
	.byte	$C3,$D5,$CE,$C9,$C3,$CF,$CC,$CF,$00
L0624:
	.byte	$C9,$CD,$CD,$C1,$C7,$C9,$CE,$C5,$00
L0700:
	.byte	$CE,$CF,$D3,$C3,$D2,$C9,$D0,$D4,$00
L02F0:
	.byte	$CD,$C1,$D3,$C3,$C8,$C5,$D2,$C1,$00
L0428:
	.byte	$C3,$C1,$CD,$CD,$C9,$CE,$C1,$00
L051C:
	.byte	$C1,$C3,$C3,$C5,$CE,$C4,$C9,$00
L071C:
	.byte	$D2,$C1,$CD,$D3,$C1,$D6,$C5,$00
L05E0:
	.byte	$D0,$CF,$D2,$D4,$CF,$CE,$C5,$00
L06F8:
	.byte	$C7,$D2,$C1,$C6,$C9,$C3,$C1,$00
L0720:
	.byte	$D2,$C1,$CD,$CC,$CF,$C1,$C4,$00
L0400:
	.byte	$D3,$C3,$D2,$C9,$D4,$D4,$C1,$00
L583F:
	.byte	$46,$4F,$52,$42,$49,$43,$49,$00
L05C0:
	.byte	$C6,$C1,$D2,$C1,$CF,$CE,$C5,$00
L0578:
	.byte	$C6,$C5,$D2,$CD,$C1,$D4,$C1,$00
L0298:
	.byte	$C6,$CF,$D2,$C2,$C9,$C3,$C5,$00
L02E0:
	.byte	$DA,$C1,$C6,$C6,$C9,$D2,$CF,$00
L029C:
	.byte	$C6,$CF,$D2,$C2,$C9,$C3,$C9,$00
L06B8:
	.byte	$D4,$C9,$39,$39,$2F,$34,$C1,$00
L04E4:
	.byte	$D3,$C6,$C1,$D3,$C3,$C9,$C1,$00
L0334:
	.byte	$CF,$C6,$C6,$C9,$C3,$C9,$C1,$00
L0588:
	.byte	$C2,$D2,$C9,$D4,$C9,$D3,$C8,$00
L05B0:
	.byte	$C1,$C3,$C3,$C5,$D3,$D3,$CF,$00
L04C4:
	.byte	$CC,$C1,$CD,$D0,$C1,$C4,$C1,$00
L06A0:
	.byte	$CD,$D5,$CF,$D6,$C9,$D4,$C9,$00
L0598:
	.byte	$D3,$C3,$C1,$CC,$C9,$CE,$C9,$00
L059C:
	.byte	$D3,$C3,$C1,$CC,$C9,$CE,$CF,$00
L04AC:
	.byte	$C9,$CE,$C4,$CF,$D3,$D3,$C1,$00
L048C:
	.byte	$C2,$D2,$C1,$C3,$C3,$C9,$CF,$00
L0370:
	.byte	$C2,$C1,$CC,$C3,$CF,$CE,$C5,$00
L0530:
	.byte	$D3,$D4,$D2,$CF,$CE,$DA,$CF,$00
L0374:
	.byte	$C4,$C9,$D6,$C9,$C5,$D4,$CF,$00
L037C:
	.byte	$C5,$D3,$C1,$CD,$C9,$CE,$C1,$00
L0378:
	.byte	$D3,$C5,$C7,$CE,$C1,$CC,$C5,$00
L05AC:
	.byte	$C1,$C3,$C3,$C5,$D3,$D3,$C9,$00
L0698:
	.byte	$CC,$CF,$C3,$C1,$CC,$C5,$00
L0488:
	.byte	$C2,$D2,$C1,$C3,$C3,$C9,$00
L0674:
	.byte	$C9,$C1,$CE,$CB,$C8,$CF,$00
L04B4:
	.byte	$D3,$D6,$C5,$D3,$D4,$C9,$00
L0484:
	.byte	$D1,$D5,$C1,$C4,$D2,$CF,$00
L0670:
	.byte	$CD,$CF,$C7,$C1,$CE,$CF,$00
L0668:
	.byte	$C1,$D2,$D2,$C5,$C4,$CF,$00
L0478:
	.byte	$D3,$D4,$C1,$C3,$C3,$C1,$00
L0360:
	.byte	$CC,$C1,$D3,$C3,$C9,$C1,$00
L0664:
	.byte	$C1,$D2,$D2,$C5,$C4,$C9,$00
L04D0:
	.byte	$D3,$C3,$C5,$CE,$C4,$C9,$00
L065C:
	.byte	$D3,$D4,$D5,$C4,$C9,$CF,$00
L04D8:
	.byte	$C3,$C8,$C9,$D5,$C4,$C9,$00
L0470:
	.byte	$C5,$D3,$D4,$D2,$C1,$C9,$00
L0658:
	.byte	$D4,$D5,$CE,$CE,$C5,$CC,$00
L0468:
	.byte	$C7,$D5,$C1,$D2,$C4,$C1,$00
L04E8:
	.byte	$D3,$C6,$CF,$CE,$C4,$C1,$00
L0454:
	.byte	$C6,$CC,$C1,$D5,$D4,$CF,$00
L0648:
	.byte	$D4,$D2,$C1,$C3,$C3,$C5,$00
L04F4:
	.byte	$D3,$D0,$CF,$D3,$D4,$C1,$00
L0644:
	.byte	$C3,$C1,$CE,$CF,$D0,$C9,$00
L02F8:
	.byte	$D3,$C1,$C2,$C2,$C9,$C1,$00
L02FC:
	.byte	$D3,$D4,$C1,$CE,$DA,$C1,$00
L06C8:
	.byte	$D4,$C1,$C7,$CC,$C9,$C1,$00
L02D8:
	.byte	$C4,$D2,$CF,$C7,$C8,$C5,$00
L06FC	:=	L0700+2
L0510:
	.byte	$C9,$CE,$C7,$CF,$C9,$C1,$00
L0514:
	.byte	$CD,$C1,$CE,$C7,$C9,$C1,$00
L0438:
	.byte	$D3,$C3,$D2,$C9,$D6,$C9,$00
L0434:
	.byte	$C4,$C9,$C7,$C9,$D4,$C1,$00
L0520:
	.byte	$D3,$D0,$C5,$C7,$CE,$C9,$00
L0614:
	.byte	$C8,$C1,$CE,$D9,$CB,$C5,$00
L0300:
	.byte	$D3,$D4,$C1,$CE,$DA,$C5,$00
L0604:
	.byte	$C9,$CD,$C5,$D4,$D4,$CF,$00
L0710:
	.byte	$C3,$C1,$D2,$C9,$C3,$C1,$00
L0420:
	.byte	$D4,$C1,$D6,$CF,$CC,$C1,$00
L05F4:
	.byte	$C2,$C9,$C1,$CE,$C3,$CF,$00
L053C:
	.byte	$C3,$C1,$CD,$C2,$C9,$C1,$00
L05F0:
	.byte	$D0,$C1,$D2,$C5,$D4,$C9,$00
L05EC:
	.byte	$D0,$C1,$D2,$C5,$D4,$C5,$00
L0320:
	.byte	$D4,$CF,$D2,$C3,$C9,$C1,$00
L038C:
	.byte	$CD,$CF,$D3,$D4,$D2,$C1,$00
L0728:
	.byte	$D1,$D5,$C9,$CE,$C4,$C9,$00
L0408:
	.byte	$CE,$C1,$D3,$D4,$D2,$C1,$00
L05D0:
	.byte	$D3,$C1,$CC,$CF,$CE,$C5,$00
L0330:
	.byte	$C5,$D3,$C5,$C7,$D5,$C9,$00
L05C4:
	.byte	$C9,$D5,$CE,$CE,$D5,$C8,$00
L0350:
	.byte	$D0,$D2,$C5,$CE,$C4,$C9,$00
L034C:
	.byte	$D0,$C9,$C7,$CC,$C9,$C1,$00
L056C:
	.byte	$C1,$DA,$C9,$CF,$CE,$C1,$00
L0570:
	.byte	$D3,$D0,$C9,$CE,$C7,$C9,$00
L5851:
	.byte	$4E,$41,$53,$54,$52,$4F,$00
L03E8:
	.byte	$CE,$D5,$CD,$C5,$D2,$CF,$00
L03E4:
	.byte	$CE,$D5,$CD,$C5,$D2,$C9,$00
L03DC:
	.byte	$C3,$CF,$C4,$C9,$C3,$C5,$00
L02A8:
	.byte	$CE,$C1,$D3,$D4,$D2,$CF,$00
L02AC:
	.byte	$D2,$CF,$D4,$CF,$CC,$CF,$00
L0338:
	.byte	$D3,$D6,$CF,$CC,$C7,$C9,$00
L0590:
	.byte	$CD,$D5,$D3,$C5,$D5,$CD,$00
L58D8:
	.byte	$54,$4F,$52,$43,$49,$41,$00
L02B8:
	.byte	$C1,$CC,$D4,$C1,$D2,$C5,$00
L5905:
	.byte	$46,$4C,$41,$55,$54,$4F,$00
L02F4:
	.byte	$CD,$D5,$CD,$CD,$C9,$C1,$00
L033C:
	.byte	$D2,$C5,$C3,$C9,$D4,$C1,$00
L5929:
	.byte	$51,$55,$41,$44,$52,$4F,$00
L05A0:
	.byte	$C1,$D4,$D2,$C9,$CF,$00
L0594:
	.byte	$D3,$C5,$D2,$C9,$C5,$00
L058C:
	.byte	$CD,$D5,$D3,$C5,$CF,$00
L0344:
	.byte	$C2,$C1,$D3,$D4,$C1,$00
L0348:
	.byte	$C3,$C1,$DA,$DA,$CF,$00
L02B0:
	.byte	$C3,$CF,$D2,$C4,$C1,$00
L0354:
	.byte	$C2,$D5,$D4,$D4,$C1,$00
L03B4:
	.byte	$CF,$D6,$C5,$D3,$D4,$00
L02C0:
	.byte	$C2,$C5,$CE,$C4,$C5,$00
L03BC:
	.byte	$D3,$CF,$D0,$D2,$C1,$00
L02A0:
	.byte	$D0,$CF,$D2,$D4,$C1,$00
L0550:
	.byte	$D3,$CC,$C5,$C7,$C1,$00
L0324:
	.byte	$C5,$CE,$D4,$D2,$C1,$00
L03C4:
	.byte	$C2,$C1,$D3,$D3,$CF,$00
L0548:
	.byte	$CE,$C5,$CC,$CC,$CF,$00
L031C:
	.byte	$D3,$C3,$C1,$CC,$C1,$00
L0544:
	.byte	$CE,$C5,$CC,$CC,$C1,$00
L03D0:
	.byte	$D3,$CF,$D4,$D4,$CF,$00
L585A:
	.byte	$43,$4F,$52,$44,$41,$00
L05F8:
	.byte	$D2,$CF,$D3,$D3,$CF,$00
L05FC:
	.byte	$D6,$C5,$D2,$C4,$C5,$00
L0534:
	.byte	$D6,$C1,$C6,$C6,$C1,$00
L052C:
	.byte	$CD,$C5,$D2,$C4,$C1,$00
L0608:
	.byte	$CD,$C1,$D2,$CD,$CF,$00
L03F0:
	.byte	$D4,$C1,$D3,$D4,$C9,$00
L0528:
	.byte	$C3,$D2,$C5,$D0,$C1,$00
L0524:
	.byte	$D3,$C1,$CC,$D4,$C1,$00
L0618:
	.byte	$D3,$D0,$CF,$D3,$C1,$00
L061C:
	.byte	$D3,$C3,$C5,$CE,$C1,$00
L0620:
	.byte	$D3,$C3,$C5,$CE,$C5,$00
L03FC:
	.byte	$D4,$C1,$D3,$D4,$CF,$00
L050C:
	.byte	$D3,$C3,$C1,$D6,$C1,$00
L0504:
	.byte	$CC,$C5,$C7,$C7,$C9,$00
L0630:
	.byte	$CD,$CF,$D2,$D4,$C9,$00
L0500:
	.byte	$D3,$D5,$CF,$CE,$C1,$00
L0404:
	.byte	$C3,$CF,$D0,$D2,$C9,$00
L5824:
	.byte	$4C,$49,$42,$52,$4F,$00
L0390:
	.byte	$D0,$C1,$D2,$CC,$C1,$00
L0424:
	.byte	$D0,$D2,$C5,$CD,$C9,$00
L04F0:
	.byte	$CD,$D5,$CF,$D6,$C9,$00
L064C:
	.byte	$CD,$D5,$C6,$C6,$C1,$00
L035C:
	.byte	$C7,$C5,$D4,$D4,$C1,$00
L0654:
	.byte	$CE,$CF,$CE,$CE,$CF,$00
L04E0:
	.byte	$D2,$CF,$CD,$D0,$C9,$00
L042C:
	.byte	$C3,$CF,$D2,$D2,$C9,$00
L0660:
	.byte	$D0,$C1,$C4,$D2,$C5,$00
L070C:
	.byte	$D3,$C1,$CC,$D6,$C1,$00
L04C0:
	.byte	$CC,$C9,$C2,$D2,$C9,$00
L066C:
	.byte	$CC,$C5,$C7,$CE,$CF,$00
L02D4:
	.byte	$C4,$D2,$CF,$C7,$C1,$00
L04B0	:=	L04B4+1
L0440:
	.byte	$CD,$C5,$D4,$D4,$C9,$00
L0498:
	.byte	$C3,$C1,$D3,$D3,$C5,$00
L0494:
	.byte	$C3,$C1,$D3,$D3,$C1,$00
L0684:
	.byte	$C1,$CE,$C9,$CD,$C1,$00
L0688:
	.byte	$C6,$CF,$D2,$CD,$C1,$00
L06F4:
	.byte	$D4,$C5,$D3,$D4,$CF,$00
L0690:
	.byte	$D3,$C5,$C7,$CE,$C9,$00
L0694:
	.byte	$D3,$C5,$C7,$CE,$CF,$00
L06F0	:=	L06F4+0
L06EC:
	.byte	$D4,$D5,$D4,$D4,$CF,$00
L047C:
	.byte	$D4,$CF,$C7,$CC,$C9,$00
L06E8:
	.byte	$D6,$C5,$D4,$D2,$CF,$00
L044C:
	.byte	$C7,$C1,$D4,$D4,$C1,$00
L06AC:
	.byte	$D4,$C5,$D8,$C1,$D3,$00
L02DC:
	.byte	$C3,$CF,$C2,$D2,$C1,$00
L06D8:
	.byte	$DA,$C1,$CD,$D0,$C5,$00
L0288:
	.byte	$CC,$C9,$C2,$D2,$CF,$00
L02E4:
	.byte	$D3,$D0,$C1,$C4,$C1,$00
L06C0:
	.byte	$D4,$CF,$C3,$C3,$C1,$00
L06D4:
	.byte	$DA,$C1,$CD,$D0,$C1,$00
L0450:
	.byte	$C7,$C1,$D4,$D4,$CF,$00
L06CC	:=	L0584+6
L06D0:
	.byte	$D0,$C9,$C5,$C4,$C9,$00
L05A8:
	.byte	$D6,$C1,$D2,$C3,$CF,$00
L06B4:
	.byte	$D4,$C9,$39,$39,$00
L0574:
	.byte	$D4,$C9,$D2,$C1,$00
L032C:
	.byte	$D2,$C9,$D4,$CF,$00
L06E4	:=	L04C8+6
L0474:
	.byte	$CC,$C5,$D6,$C1,$00
L58E1:
	.byte	$46,$4F,$54,$4F,$00
L0490:
	.byte	$CD,$D5,$D2,$CF,$00
L068C:
	.byte	$D6,$C9,$D4,$C1,$00
L0678:
	.byte	$D2,$C1,$CD,$C5,$00
L0384:
	.byte	$C9,$CE,$D6,$C5,$00
L03B8:
	.byte	$C1,$CC,$D4,$CF,$00
L0704:
	.byte	$CF,$CF,$D0,$D3,$00
L0364	:=	L0618+1
L04CC:
	.byte	$D3,$C1,$CC,$C9,$00
L04D4:
	.byte	$C2,$C5,$D6,$C9,$00
L0714:
	.byte	$D2,$CF,$CF,$CD,$00
L0718:
	.byte	$D0,$C5,$D3,$CF,$00
L58CF:
	.byte	$54,$45,$43,$41,$00
L0640:
	.byte	$D6,$C1,$D3,$CF,$00
L0558:
	.byte	$C6,$CF,$D2,$CF,$00
L0394:
	.byte	$C5,$D3,$C3,$C9,$00
L0554:
	.byte	$C2,$D5,$C3,$CF,$00
L063C:
	.byte	$D6,$C1,$D3,$C9,$00
L040C:
	.byte	$C6,$CF,$D4,$CF,$00
L04FC:
	.byte	$C1,$D0,$D2,$C9,$00
L0518	:=	L04D4+0
L5A55:
	.byte	$33,$2E,$30,$0D,$00
L0310:
	.byte	$D3,$C1,$CC,$C1,$00
L0358	:=	L031C+1
L039C:
	.byte	$CE,$CF,$D2,$C4,$00
L5A3D:
	.byte	$32,$30,$31,$34,$00
L03D8	:=	L06B4+0
L054C	:=	L0550+1
L03CC:
	.byte	$C7,$C9,$63,$B9,$00
L045C:
	.byte	$D4,$C5,$CC,$C1,$00
L03C8:
	.byte	$C7,$C9,$D5,$00
L03A4:
	.byte	$D3,$D5,$C4,$00
L02D0:
	.byte	$D3,$C5,$D4,$00
L5D61:
	.byte	$25,$44,$0D,$00
L0724:
	.byte	$D0,$CF,$C9,$00
L03AC	:=	L03B4+2
L04F8:
	.byte	$C4,$C1,$C9,$00
L0430:
	.byte	$D6,$C1,$C9,$00
L0380:
	.byte	$C9,$CE,$D6,$00
L028C:
	.byte	$CF,$D2,$C1,$00
L055C:
	.byte	$D5,$D3,$C1,$00
L5D5A	:=	L5D61+0
L6BA8:
	.byte	$1B,$58,$0E,$00
L03C0:
	.byte	$D3,$D5,$00
L0540:
	.byte	$C9,$CE,$00
L06B0	:=	L0560+9
L5D8F:
	.byte	$25,$44,$00
L5D88	:=	L5D8F+0
L6871:
	.byte	$9F,$00
L5A22:
	.byte	$1C,$00
L6A83	:=	L6871+0
L5A28	:=	L6871+0
L6AD2	:=	L6871+0
L5A2E	:=	L5A22+0
L6B7C	:=	L5A1F+12
L5A34	:=	L6871+0
L6BAD:
	.byte	$0C,$00
L5A3A	:=	L5A22+0
L6BB0	:=	L6871+0
L5A40	:=	L6871+0
L04B8	:=	L05A4+11
L5A46	:=	L5A22+0
L046C:
	.byte	$D8,$00
L5A4C	:=	L6871+0
L0464:
	.byte	$C7,$00
L5A52	:=	L5A22+0
L0398	:=	L0540+1
L5A58	:=	L6871+0
L5AAD	:=	L6871+0
L5B04	:=	L6871+0
L5BA0	:=	L6871+0
L03B0	:=	L02BC+11
L03A8	:=	L0638+12
L6816	:=	L6871+0
L03A0	:=	L06AC+4
L5D94	:=	L5A49+57
L5DBE	:=	L5A49+57
L58C6	:=	L5A49+57
L58BD	:=	L5A49+57
L58B4	:=	L5A49+57
L58AB	:=	L5A49+57
L5899	:=	L5A49+57
L6B7F	:=	L5A49+57
L5890	:=	L5A49+57
L5887	:=	L5A49+57
L586C	:=	L5A49+57
L595D	:=	L5A49+57

.segment	"BSS"

_dummy:
	.res	2,$00
_compressed:
	.res	2,$00
_bpointer:
	.res	1,$00
_cpointer:
	.res	2,$00
_currbyte:
	.res	1,$00
_current_position:
	.res	2,$00
_next_position:
	.res	2,$00
_marker:
	.res	129,$00
_counter:
	.res	258,$00
_odummy:
	.res	2,$00
_decompress_b:
	.res	1378,$00

; ---------------------------------------------------------------
; unsigned char __near__ g_b (void)
; ---------------------------------------------------------------

.segment	"CODE"

.proc	_g_b: near

.segment	"CODE"

;
; if(bpointer==0) {
;
	jsr     decsp2
	lda     _bpointer
	bne     L6BC3
;
; currbyte=compressed[cpointer];
;
	lda     _compressed
	clc
	adc     _cpointer
	sta     ptr1
	lda     _compressed+1
	adc     _cpointer+1
	sta     ptr1+1
	ldy     #$00
	lda     (ptr1),y
	sta     _currbyte
;
; if(++bpointer==8) {
;
L6BC3:	inc     _bpointer
	lda     _bpointer
	cmp     #$08
	bne     L6BC4
;
; bpointer=0;
;
	lda     #$00
	sta     _bpointer
;
; ++cpointer;
;
	inc     _cpointer
	bne     L6BC4
	inc     _cpointer+1
;
; t=currbyte&0x1;
;
L6BC4:	lda     _currbyte
	ldx     #$00
	and     #$01
	jsr     stax0sp
;
; currbyte>>=1;
;
	lda     _currbyte
	lsr     a
	sta     _currbyte
;
; return t;
;
	lda     (sp,x)
;
; }
;
	jmp     incsp2

.endproc

; ---------------------------------------------------------------
; unsigned char __near__ hufget (void)
; ---------------------------------------------------------------

.segment	"CODE"

.proc	_hufget: near

.segment	"CODE"

;
; unsigned int i=NUM_NODES-1;
;
	lda     #$BA
	jsr     pusha0
;
; if(huftree[i].c!=255)
;
L024E:	jsr     ldax0sp
	jsr     mulax3
	sta     ptr1
	txa
	clc
	adc     #>(_huftree)
	sta     ptr1+1
	ldy     #<(_huftree)
	lda     (ptr1),y
	cmp     #$FF
	beq     L0252
;
; return huftree[i].c;
;
	jsr     ldax0sp
	jsr     mulax3
	sta     ptr1
	txa
	clc
	adc     #>(_huftree)
	sta     ptr1+1
	ldy     #<(_huftree)
	ldx     #$00
	lda     (ptr1),y
	jmp     incsp2
;
; if(g_b()==0) {
;
L0252:	jsr     _g_b
	cmp     #$00
	bne     L0257
;
; i=huftree[i].son0idx;
;
	jsr     ldax0sp
	jsr     mulax3
	clc
	adc     #<(_huftree)
	sta     ptr1
	txa
	adc     #>(_huftree)
	sta     ptr1+1
	ldy     #$01
	lda     (ptr1),y
	ldx     #$00
	jsr     stax0sp
;
; } else {
;
	jmp     L024E
;
; i=huftree[i].son1idx;
;
L0257:	jsr     ldax0sp
	jsr     mulax3
	clc
	adc     #<(_huftree)
	sta     ptr1
	txa
	adc     #>(_huftree)
	sta     ptr1+1
	ldy     #$02
	lda     (ptr1),y
	ldx     #$00
	jsr     stax0sp
;
; while(1) {
;
	jmp     L024E

.endproc

; ---------------------------------------------------------------
; int __near__ decode (__near__ unsigned char *, __near__ unsigned char *, unsigned int)
; ---------------------------------------------------------------

.segment	"CODE"

.proc	_decode: near

.segment	"CODE"

;
; {
;
	jsr     pushax
;
; unsigned int k=0;
;
	jsr     decsp1
	jsr     push0
;
; cpointer=0;
;
	sta     _cpointer
	sta     _cpointer+1
;
; bpointer=0;
;
	sta     _bpointer
;
; compressed=source;
;
	ldy     #$08
	jsr     ldaxysp
	sta     _compressed
	stx     _compressed+1
;
; c=hufget();
;
L0269:	jsr     _hufget
	ldy     #$02
	sta     (sp),y
;
; SHIFTPETSCII;
;
	cmp     #$41
	bcc     L6BCC
	lda     (sp),y
	cmp     #$5B
	bcc     L6BD5
L6BCC:	lda     (sp),y
	cmp     #$61
	bcc     L026E
	cmp     #$7B
	bcs     L026E
L6BD5:	lda     (sp),y
	eor     #$20
	sta     (sp),y
;
; dest[k++]=c;
;
L026E:	ldy     #$08
	jsr     pushwysp
	ldy     #$03
	jsr     ldaxysp
	sta     regsave
	stx     regsave+1
	jsr     incax1
	ldy     #$02
	jsr     staxysp
	lda     regsave
	ldx     regsave+1
	jsr     tosaddax
	sta     ptr1
	stx     ptr1+1
	ldy     #$02
	lda     (sp),y
	ldy     #$00
	sta     (ptr1),y
;
; } while(c!='\0'&&k<maxlen);
;
	ldy     #$02
	lda     (sp),y
	beq     L6BC7
	jsr     ldax0sp
	ldy     #$03
	cmp     (sp),y
	txa
	iny
	sbc     (sp),y
	bcc     L0269
;
; if(k>=maxlen)
;
L6BC7:	jsr     ldax0sp
	ldy     #$03
	cmp     (sp),y
	txa
	iny
	sbc     (sp),y
	lda     #$00
	tax
	bcc     L0261
;
; return -1;
;
	dex
	txa
;
; }
;
L0261:	ldy     #$09
	jmp     addysp

.endproc

; ---------------------------------------------------------------
; unsigned int __near__ search_object (unsigned int)
; ---------------------------------------------------------------

.segment	"CODE"

.proc	_search_object: near

.segment	"CODE"

;
; {
;
	jsr     pushax
;
; for(i=0; i<OSIZE;++i)
;
	jsr     decsp2
	ldx     #$00
	txa
	jsr     stax0sp
L5935:	ldy     #$01
	lda     (sp),y
	cmp     #$00
	bne     L593C
	dey
	lda     (sp),y
	cmp     #$1F
L593C:	bcs     L5936
;
; if(obj[i].code==o)
;
	jsr     pushw0sp
	lda     #$0E
	jsr     tosmula0
	clc
	adc     #<(_obj)
	tay
	txa
	adc     #>(_obj)
	tax
	tya
	jsr     ldaxi
	ldy     #$02
	cmp     (sp),y
	bne     L5937
	txa
	iny
	cmp     (sp),y
	bne     L5937
;
; return i;
;
	jsr     ldax0sp
	jmp     incsp4
;
; for(i=0; i<OSIZE;++i)
;
L5937:	ldx     #$00
	lda     #$01
	jsr     addeq0sp
	jmp     L5935
;
; return 0;
;
L5936:	ldx     #$00
	txa
;
; }
;
	jmp     incsp4

.endproc

; ---------------------------------------------------------------
; unsigned int __near__ search_room (unsigned int)
; ---------------------------------------------------------------

.segment	"CODE"

.proc	_search_room: near

.segment	"CODE"

;
; {
;
	jsr     pushax
;
; for(i=0; i<RSIZE;++i)
;
	jsr     decsp2
	ldx     #$00
	txa
	jsr     stax0sp
L5944:	ldy     #$01
	lda     (sp),y
	cmp     #$00
	bne     L594B
	dey
	lda     (sp),y
	cmp     #$28
L594B:	bcs     L5945
;
; if(world[i].code==r)
;
	jsr     pushw0sp
	lda     #$14
	jsr     tosmula0
	clc
	adc     #<(_world)
	tay
	txa
	adc     #>(_world)
	tax
	tya
	jsr     ldaxi
	ldy     #$02
	cmp     (sp),y
	bne     L5946
	txa
	iny
	cmp     (sp),y
	bne     L5946
;
; return i;
;
	jsr     ldax0sp
	jmp     incsp4
;
; for(i=0; i<RSIZE;++i)
;
L5946:	ldx     #$00
	lda     #$01
	jsr     addeq0sp
	jmp     L5944
;
; return 0;
;
L5945:	ldx     #$00
	txa
;
; }
;
	jmp     incsp4

.endproc

; ---------------------------------------------------------------
; void __near__ show_messagenlf (__near__ unsigned char *)
; ---------------------------------------------------------------

.segment	"CODE"

.proc	_show_messagenlf: near

.segment	"CODE"

;
; {
;
	jsr     pushax
;
; decode(m,decompress_b,B_SIZE);
;
	jsr     pushw0sp
	lda     #<(_decompress_b)
	ldx     #>(_decompress_b)
	jsr     pushax
	ldx     #$05
	lda     #$62
	jsr     _decode
;
; writesameln(decompress_b);
;
	lda     #<(_decompress_b)
	ldx     #>(_decompress_b)
	jsr     _writesameln
;
; }
;
	jmp     incsp2

.endproc

; ---------------------------------------------------------------
; void __near__ show_message (__near__ unsigned char *)
; ---------------------------------------------------------------

.segment	"CODE"

.proc	_show_message: near

.segment	"CODE"

;
; {
;
	jsr     pushax
;
; show_messagenlf(m);
;
	jsr     ldax0sp
	jsr     _show_messagenlf
;
; writeln("");
;
	lda     #<(L595D)
	ldx     #>(L595D)
	jsr     _writeln
;
; }
;
	jmp     incsp2

.endproc

; ---------------------------------------------------------------
; void __near__ inventory (void)
; ---------------------------------------------------------------

.segment	"CODE"

.proc	_inventory: near

.segment	"CODE"

;
; unsigned int i, gs=0;
;
	jsr     decsp2
	jsr     push0
;
; show_message(message1032);
;
	lda     #<(_message1032)
	ldx     #>(_message1032)
	jsr     _show_message
;
; for(i = 0; i<OSIZE; ++i) {
;
	ldx     #$00
	txa
	ldy     #$02
	jsr     staxysp
L5963:	ldy     #$03
	lda     (sp),y
	cmp     #$00
	bne     L596A
	dey
	lda     (sp),y
	cmp     #$1F
L596A:	bcs     L5964
;
; if(obj[i].position==CARRIED) {
;
	ldy     #$05
	jsr     pushwysp
	lda     #$0E
	jsr     tosmula0
	clc
	adc     #<(_obj)
	tay
	txa
	adc     #>(_obj)
	tax
	tya
	ldy     #$0B
	jsr     ldaxidx
	cpx     #$05
	bne     L5965
	cmp     #$DC
	bne     L5965
;
; ++gs;
;
	ldx     #$00
	lda     #$01
	jsr     addeq0sp
;
; decode(obj[i].desc,decompress_b,B_SIZE);
;
	ldy     #$05
	jsr     pushwysp
	lda     #$0E
	jsr     tosmula0
	clc
	adc     #<(_obj)
	tay
	txa
	adc     #>(_obj)
	tax
	tya
	ldy     #$05
	jsr     pushwidx
	lda     #<(_decompress_b)
	ldx     #>(_decompress_b)
	jsr     pushax
	ldx     #$05
	lda     #$62
	jsr     _decode
;
; writeln(decompress_b);
;
	lda     #<(_decompress_b)
	ldx     #>(_decompress_b)
	jsr     _writeln
;
; for(i = 0; i<OSIZE; ++i) {
;
L5965:	ldy     #$02
	ldx     #$00
	lda     #$01
	jsr     addeqysp
	jmp     L5963
;
; if(gs==0) show_message(message1033);
;
L5964:	ldy     #$00
	lda     (sp),y
	iny
	ora     (sp),y
	bne     L5978
	lda     #<(_message1033)
	ldx     #>(_message1033)
	jsr     _show_message
;
; }
;
L5978:	jmp     incsp4

.endproc

; ---------------------------------------------------------------
; unsigned int __near__ move (unsigned int)
; ---------------------------------------------------------------

.segment	"CODE"

.proc	_move: near

.segment	"CODE"

;
; {
;
	jsr     pushax
;
; if(world[search_room(current_position)].directions[dir]!=0) {
;
	lda     _current_position
	ldx     _current_position+1
	jsr     _search_room
	jsr     pushax
	lda     #$14
	jsr     tosmula0
	clc
	adc     #<(_world)
	tay
	txa
	adc     #>(_world)
	tax
	tya
	jsr     incax8
	sta     ptr1
	stx     ptr1+1
	jsr     ldax0sp
	jsr     aslax1
	clc
	adc     ptr1
	pha
	txa
	adc     ptr1+1
	tax
	pla
	jsr     ldaxi
	cpx     #$00
	bne     L6BDB
	cmp     #$00
	beq     L597E
;
; next_position=world[search_room(current_position)].directions[dir];
;
L6BDB:	lda     _current_position
	ldx     _current_position+1
	jsr     _search_room
	jsr     pushax
	lda     #$14
	jsr     tosmula0
	clc
	adc     #<(_world)
	tay
	txa
	adc     #>(_world)
	tax
	tya
	jsr     incax8
	sta     ptr1
	stx     ptr1+1
	jsr     ldax0sp
	jsr     aslax1
	clc
	adc     ptr1
	pha
	txa
	adc     ptr1+1
	tax
	pla
	jsr     ldaxi
	sta     _next_position
	stx     _next_position+1
;
; marker[120]=false;
;
	lda     #$00
	sta     _marker+120
;
; return 1;
;
	tax
	lda     #$01
	jmp     incsp2
;
; show_message(message1008);
;
L597E:	lda     #<(_message1008)
	ldx     #>(_message1008)
	jsr     _show_message
;
; return 0;
;
	ldx     #$00
	txa
;
; }
;
	jmp     incsp2

.endproc

; ---------------------------------------------------------------
; unsigned int __near__ get (unsigned int)
; ---------------------------------------------------------------

.segment	"CODE"

.proc	_get: near

.segment	"CODE"

;
; {
;
	jsr     pushax
;
; dummy=search_object(o);
;
	jsr     ldax0sp
	jsr     _search_object
	sta     _dummy
	stx     _dummy+1
;
; odummy=&obj[dummy];
;
	jsr     pushax
	lda     #$0E
	jsr     tosmula0
	clc
	adc     #<(_obj)
	tay
	txa
	adc     #>(_obj)
	tax
	tya
	sta     _odummy
	stx     _odummy+1
;
; if(odummy->position!=current_position) {
;
	ldy     #$0B
	jsr     ldaxidx
	cpx     _current_position+1
	bne     L6BDD
	cmp     _current_position
	beq     L5998
;
; show_message(message1006);
;
L6BDD:	lda     #<(_message1006)
	ldx     #>(_message1006)
	jsr     _show_message
;
; return 1;
;
	ldx     #$00
	lda     #$01
	jmp     incsp2
;
; } else if(odummy->isnotmovable==false) {
;
L5998:	lda     _odummy
	sta     ptr1
	lda     _odummy+1
	sta     ptr1+1
	ldy     #$0C
	lda     (ptr1),y
	bne     L599E
;
; show_message(message1005);
;
	lda     #<(_message1005)
	ldx     #>(_message1005)
	jsr     _show_message
;
; return 1;
;
	ldx     #$00
	lda     #$01
	jmp     incsp2
;
; } else if(counter[120]+odummy->weight>counter[122]){ 
;
L599E:	lda     _odummy
	ldx     _odummy+1
	ldy     #$07
	jsr     ldaxidx
	clc
	adc     _counter+240
	pha
	txa
	adc     _counter+240+1
	tax
	pla
	sec
	sbc     _counter+244
	sta     tmp1
	txa
	sbc     _counter+244+1
	ora     tmp1
	bcc     L59A4
	beq     L59A4
;
; show_message(message1003);
;
	lda     #<(_message1003)
	ldx     #>(_message1003)
	jsr     _show_message
;
; return 1;
;
	ldx     #$00
	lda     #$01
	jmp     incsp2
;
; } else if(counter[124]+odummy->size>counter[121]) {
;
L59A4:	lda     _odummy
	ldx     _odummy+1
	ldy     #$09
	jsr     ldaxidx
	clc
	adc     _counter+248
	pha
	txa
	adc     _counter+248+1
	tax
	pla
	sec
	sbc     _counter+242
	sta     tmp1
	txa
	sbc     _counter+242+1
	ora     tmp1
	bcc     L59AC
	beq     L59AC
;
; show_message(message1004);
;
	lda     #<(_message1004)
	ldx     #>(_message1004)
	jsr     _show_message
;
; return 1;
;
	ldx     #$00
	lda     #$01
	jmp     incsp2
;
; odummy->position=CARRIED;
;
L59AC:	lda     _odummy
	sta     ptr1
	lda     _odummy+1
	sta     ptr1+1
	lda     #$DC
	ldy     #$0A
	sta     (ptr1),y
	iny
	lda     #$05
	sta     (ptr1),y
;
; ++counter[119];
;
	inc     _counter+238
	bne     L59B8
	inc     _counter+238+1
;
; counter[120]+=odummy->weight;
;
L59B8:	lda     _odummy
	ldx     _odummy+1
	ldy     #$07
	jsr     ldaxidx
	clc
	adc     _counter+240
	sta     _counter+240
	txa
	adc     _counter+240+1
	sta     _counter+240+1
;
; counter[124]+=odummy->size;
;
	lda     _odummy
	ldx     _odummy+1
	ldy     #$09
	jsr     ldaxidx
	clc
	adc     _counter+248
	sta     _counter+248
	txa
	adc     _counter+248+1
	sta     _counter+248+1
;
; return 0;
;
	ldx     #$00
	txa
;
; }
;
	jmp     incsp2

.endproc

; ---------------------------------------------------------------
; unsigned int __near__ cvn (unsigned int, unsigned int)
; ---------------------------------------------------------------

.segment	"CODE"

.proc	_cvn: near

.segment	"CODE"

;
; {
;
	jsr     pushax
;
; return verb==v&&noun1==n;
;
	ldy     #$03
	jsr     ldaxysp
	cpx     _verb+1
	bne     L59C2
	cmp     _verb
	bne     L59C2
	jsr     ldax0sp
	cpx     _noun1+1
	bne     L59C2
	cmp     _noun1
	beq     L59C1
L59C2:	ldx     #$00
	txa
	jmp     incsp4
L59C1:	ldx     #$00
	lda     #$01
;
; }
;
	jmp     incsp4

.endproc

; ---------------------------------------------------------------
; unsigned int __near__ get_object_position (unsigned int)
; ---------------------------------------------------------------

.segment	"CODE"

.proc	_get_object_position: near

.segment	"CODE"

;
; {
;
	jsr     pushax
;
; return obj[search_object(c)].position;
;
	jsr     ldax0sp
	jsr     _search_object
	jsr     pushax
	lda     #$0E
	jsr     tosmula0
	clc
	adc     #<(_obj)
	tay
	txa
	adc     #>(_obj)
	tax
	tya
	ldy     #$0B
	jsr     ldaxidx
;
; }
;
	jmp     incsp2

.endproc

; ---------------------------------------------------------------
; unsigned char __near__ object_is_here (unsigned int)
; ---------------------------------------------------------------

.segment	"CODE"

.proc	_object_is_here: near

.segment	"CODE"

;
; {
;
	jsr     pushax
;
; return obj[search_object(c)].position==current_position;
;
	jsr     ldax0sp
	jsr     _search_object
	jsr     pushax
	lda     #$0E
	jsr     tosmula0
	clc
	adc     #<(_obj)
	tay
	txa
	adc     #>(_obj)
	tax
	tya
	ldy     #$0B
	jsr     ldaxidx
	cpx     _current_position+1
	bne     L6BE0
	cmp     _current_position
L6BE0:	jsr     booleq
;
; }
;
	jmp     incsp2

.endproc

; ---------------------------------------------------------------
; unsigned char __near__ object_is_carried (unsigned int)
; ---------------------------------------------------------------

.segment	"CODE"

.proc	_object_is_carried: near

.segment	"CODE"

;
; {
;
	jsr     pushax
;
; return obj[search_object(c)].position==CARRIED;
;
	jsr     ldax0sp
	jsr     _search_object
	jsr     pushax
	lda     #$0E
	jsr     tosmula0
	clc
	adc     #<(_obj)
	tay
	txa
	adc     #>(_obj)
	tax
	tya
	ldy     #$0B
	jsr     ldaxidx
	cpx     #$05
	bne     L59D0
	cmp     #$DC
L59D0:	jsr     booleq
;
; }
;
	jmp     incsp2

.endproc

; ---------------------------------------------------------------
; unsigned char __near__ object_is_available (unsigned int)
; ---------------------------------------------------------------

.segment	"CODE"

.proc	_object_is_available: near

.segment	"CODE"

;
; {
;
	jsr     pushax
;
; return object_is_here(c)||object_is_carried(c);
;
	jsr     ldax0sp
	jsr     _object_is_here
	tax
	bne     L59D2
	jsr     ldax0sp
	jsr     _object_is_carried
	tax
	jeq     incsp2
L59D2:	ldx     #$00
	lda     #$01
;
; }
;
	jmp     incsp2

.endproc

; ---------------------------------------------------------------
; void __near__ set_object_position (unsigned int, int)
; ---------------------------------------------------------------

.segment	"CODE"

.proc	_set_object_position: near

.segment	"CODE"

;
; {
;
	jsr     pushax
;
; obj[search_object(c)].position=pos;
;
	ldy     #$03
	jsr     ldaxysp
	jsr     _search_object
	jsr     pushax
	lda     #$0E
	jsr     tosmula0
	clc
	adc     #<(_obj)
	sta     ptr1
	txa
	adc     #>(_obj)
	sta     ptr1+1
	jsr     ldax0sp
	ldy     #$0A
	sta     (ptr1),y
	iny
	txa
	sta     (ptr1),y
;
; }
;
	jmp     incsp4

.endproc

; ---------------------------------------------------------------
; void __near__ amsm (unsigned int, unsigned char, unsigned char, __near__ unsigned char *)
; ---------------------------------------------------------------

.segment	"CODE"

.proc	_amsm: near

.segment	"CODE"

;
; {
;
	jsr     pushax
;
; if(current_position==p&&marker[c]==v) show_message(m);
;
	ldy     #$05
	jsr     ldaxysp
	cpx     _current_position+1
	bne     L59DE
	cmp     _current_position
	bne     L59DC
	ldy     #$03
	lda     (sp),y
	tay
	lda     _marker,y
	ldy     #$02
	cmp     (sp),y
	beq     L6BE3
L59DE:	jmp     incsp6
L6BE3:	jsr     ldax0sp
	jsr     _show_message
;
; }
;
L59DC:	jmp     incsp6

.endproc

; ---------------------------------------------------------------
; unsigned int __near__ cvna (unsigned int, unsigned int, unsigned int)
; ---------------------------------------------------------------

.segment	"CODE"

.proc	_cvna: near

.segment	"CODE"

;
; {
;
	jsr     pushax
;
; dummy=get_object_position(o);
;
	jsr     ldax0sp
	jsr     _get_object_position
	sta     _dummy
	stx     _dummy+1
;
; return verb==v&&noun1==n&&(dummy==current_position||dummy==CARRIED);
;
	ldy     #$05
	jsr     ldaxysp
	cpx     _verb+1
	bne     L59E9
	cmp     _verb
	bne     L59E9
	ldy     #$03
	jsr     ldaxysp
	cpx     _noun1+1
	bne     L59E9
	cmp     _noun1
	bne     L59E9
	lda     _current_position
	ldx     _current_position+1
	cpx     _dummy+1
	bne     L6BEA
	cmp     _dummy
	beq     L59EA
L6BEA:	lda     _dummy+1
	cmp     #$05
	bne     L6BEB
	lda     _dummy
	cmp     #$DC
	beq     L59EA
L6BEB:	ldx     #$00
	txa
	jmp     incsp6
L59EA:	ldx     #$00
	lda     #$01
	jmp     incsp6
L59E9:	ldx     #$00
	txa
	jmp     incsp6

.endproc

; ---------------------------------------------------------------
; void __near__ drop (unsigned int)
; ---------------------------------------------------------------

.segment	"CODE"

.proc	_drop: near

.segment	"CODE"

;
; {
;
	jsr     pushax
;
; dummy=search_object(o);
;
	jsr     ldax0sp
	jsr     _search_object
	sta     _dummy
	stx     _dummy+1
;
; odummy=&obj[dummy];
;
	jsr     pushax
	lda     #$0E
	jsr     tosmula0
	clc
	adc     #<(_obj)
	tay
	txa
	adc     #>(_obj)
	tax
	tya
	sta     _odummy
	stx     _odummy+1
;
; if(odummy->position==CARRIED){
;
	ldy     #$0B
	jsr     ldaxidx
	cpx     #$05
	bne     L59F5
	cmp     #$DC
	bne     L59F5
;
; odummy->position=current_position;
;
	lda     _odummy
	sta     ptr1
	lda     _odummy+1
	sta     ptr1+1
	lda     _current_position
	ldy     #$0A
	sta     (ptr1),y
	iny
	lda     _current_position+1
	sta     (ptr1),y
;
; --counter[119];
;
	lda     _counter+238
	sec
	sbc     #$01
	sta     _counter+238
	bcs     L59FC
	dec     _counter+238+1
;
; counter[120]-=odummy->weight;
;
L59FC:	lda     _odummy
	ldx     _odummy+1
	ldy     #$07
	jsr     ldaxidx
	eor     #$FF
	sec
	adc     _counter+240
	sta     _counter+240
	txa
	eor     #$FF
	adc     _counter+240+1
	sta     _counter+240+1
;
; counter[124]-=odummy->size;
;
	lda     _odummy
	ldx     _odummy+1
	ldy     #$09
	jsr     ldaxidx
	eor     #$FF
	sec
	adc     _counter+248
	sta     _counter+248
	txa
	eor     #$FF
	adc     _counter+248+1
	sta     _counter+248+1
;
; } else
;
	jmp     incsp2
;
; show_message(message1007);
;
L59F5:	lda     #<(_message1007)
	ldx     #>(_message1007)
	jsr     _show_message
;
; }
;
	jmp     incsp2

.endproc

; ---------------------------------------------------------------
; void __near__ jump (unsigned int)
; ---------------------------------------------------------------

.segment	"CODE"

.proc	_jump: near

.segment	"CODE"

;
; {
;
	jsr     pushax
;
; next_position=p;
;
	jsr     ldax0sp
	sta     _next_position
	stx     _next_position+1
;
; marker[120]=false;
;
	lda     #$00
	sta     _marker+120
;
; }
;
	jmp     incsp2

.endproc

; ---------------------------------------------------------------
; void __near__ hold (unsigned int)
; ---------------------------------------------------------------

.segment	"CODE"

.proc	_hold: near

.segment	"CODE"

;
; {
;
	jsr     pushax
;
; for(dummy=0; dummy<p; ++dummy) {wait1s();}
;
	lda     #$00
	sta     _dummy
	sta     _dummy+1
L5A0D:	lda     _dummy
	ldy     #$00
	cmp     (sp),y
	lda     _dummy+1
	iny
	sbc     (sp),y
	bcs     L5A0E
	ldx     #$00
	txa
	jsr     _time
	ldy     #$01
	jsr     inceaxy
	jsr     pushax
L5A18:	ldx     #$00
	txa
	jsr     _time
	jsr     pusheax
	ldy     #$05
	jsr     ldaxysp
	jsr     axulong
	jsr     tosulteax
	bne     L5A18
	jsr     incsp2
	inc     _dummy
	bne     L5A0D
	inc     _dummy+1
	jmp     L5A0D
;
; }
;
L5A0E:	jmp     incsp2

.endproc

; ---------------------------------------------------------------
; void __near__ greetings (void)
; ---------------------------------------------------------------

.segment	"CODE"

.proc	_greetings: near

.segment	"CODE"

;
; writesameln("Avventura:   ");
;
	lda     #<(L5A1F)
	ldx     #>(L5A1F)
	jsr     _writesameln
;
; evidence1();
;
	lda     #<(L5A22)
	ldx     #>(L5A22)
	jsr     pushax
	ldy     #$02
	jsr     _printf
;
; writeln("Iunnuh 2 La maledizione che viene dal passato");
;
	lda     #<(L5A25)
	ldx     #>(L5A25)
	jsr     _writeln
;
; normaltxt();
;
	lda     #<(L5A28)
	ldx     #>(L5A28)
	jsr     pushax
	ldy     #$02
	jsr     _printf
;
; writesameln("Autore:      ");
;
	lda     #<(L5A2B)
	ldx     #>(L5A2B)
	jsr     _writesameln
;
; evidence1();
;
	lda     #<(L5A2E)
	ldx     #>(L5A2E)
	jsr     pushax
	ldy     #$02
	jsr     _printf
;
; writeln("Aristide Torrelli");
;
	lda     #<(L5A31)
	ldx     #>(L5A31)
	jsr     _writeln
;
; normaltxt();
;
	lda     #<(L5A34)
	ldx     #>(L5A34)
	jsr     pushax
	ldy     #$02
	jsr     _printf
;
; writesameln("Data:        ");
;
	lda     #<(L5A37)
	ldx     #>(L5A37)
	jsr     _writesameln
;
; evidence1();
;
	lda     #<(L5A3A)
	ldx     #>(L5A3A)
	jsr     pushax
	ldy     #$02
	jsr     _printf
;
; writeln("2014");
;
	lda     #<(L5A3D)
	ldx     #>(L5A3D)
	jsr     _writeln
;
; normaltxt();
;
	lda     #<(L5A40)
	ldx     #>(L5A40)
	jsr     pushax
	ldy     #$02
	jsr     _printf
;
; writesameln("Descrizione: ");
;
	lda     #<(L5A43)
	ldx     #>(L5A43)
	jsr     _writesameln
;
; evidence1();
;
	lda     #<(L5A46)
	ldx     #>(L5A46)
	jsr     pushax
	ldy     #$02
	jsr     _printf
;
; writeln("Per il 30ennale della Piramide di Iunnuh (settembre 1984)");
;
	lda     #<(L5A49)
	ldx     #>(L5A49)
	jsr     _writeln
;
; normaltxt();
;
	lda     #<(L5A4C)
	ldx     #>(L5A4C)
	jsr     pushax
	ldy     #$02
	jsr     _printf
;
; writesameln("AWS version: ");
;
	lda     #<(L5A4F)
	ldx     #>(L5A4F)
	jsr     _writesameln
;
; evidence1();
;
	lda     #<(L5A52)
	ldx     #>(L5A52)
	jsr     pushax
	ldy     #$02
	jsr     _printf
;
; writeln("3.0\n");
;
	lda     #<(L5A55)
	ldx     #>(L5A55)
	jsr     _writeln
;
; normaltxt();
;
	lda     #<(L5A58)
	ldx     #>(L5A58)
	jsr     pushax
	ldy     #$02
	jmp     _printf

.endproc

; ---------------------------------------------------------------
; unsigned int __near__ hi_cond (void)
; ---------------------------------------------------------------

.segment	"CODE"

.proc	_hi_cond: near

.segment	"CODE"

;
; if(current_position==101) {
;
	lda     _current_position+1
	bne     L5A5B
	lda     _current_position
	cmp     #$65
	bne     L5A5B
;
; show_message(message600);
;
	lda     #<(_message600)
	ldx     #>(_message600)
	jsr     _show_message
;
; waitkey();
;
	jsr     _cgetc
;
; jump(100);
;
	ldx     #$00
	lda     #$64
	jsr     _jump
;
; goto return1;
;
	jmp     L5A63
;
; if(current_position==100) {
;
L5A5B:	lda     _current_position+1
	bne     L5A64
	lda     _current_position
	cmp     #$64
	bne     L5A64
;
; marker[125]=true;
;
	lda     #$01
	sta     _marker+125
;
; marker[126]=true;
;
	sta     _marker+126
;
; counter[111]=22;
;
	ldx     #$00
	lda     #$16
	sta     _counter+222
	stx     _counter+222+1
;
; counter[13]=3;
;
	lda     #$03
	sta     _counter+26
	stx     _counter+26+1
;
; set_object_position(3,1500);
;
	jsr     pusha0
	ldx     #$05
	lda     #$DC
	jsr     _set_object_position
;
; show_message(message600);
;
	lda     #<(_message600)
	ldx     #>(_message600)
	jsr     _show_message
;
; waitkey();
;
	jsr     _cgetc
;
; jump(1);
;
	ldx     #$00
	lda     #$01
	jsr     _jump
;
; goto return1;
;
	jmp     L5A63
;
; if(object_is_carried(100)) if(marker[23]==true) {
;
L5A64:	ldx     #$00
	lda     #$64
	jsr     _object_is_carried
	tax
	beq     L6BEC
	ldx     #$00
	lda     _marker+23
	cmp     #$01
	bne     L6BEC
;
; marker[122]=true;
;
	sta     _marker+122
;
; if(object_is_carried(100)) if(marker[23]==false) {
;
L6BEC:	lda     #$64
	jsr     _object_is_carried
	tax
	beq     L6BED
	lda     _marker+23
	bne     L6BED
;
; marker[122]=false;
;
	sta     _marker+122
;
; if(marker[121]==false) if(marker[122]==false) {
;
L6BED:	lda     _marker+121
	bne     L5A8D
	lda     _marker+122
	bne     L5A8D
;
; if(counter[13]>0) --counter[13];
;
	lda     _counter+26
	cmp     #$01
	lda     _counter+26+1
	sbc     #$00
	bvs     L5A96
	eor     #$80
L5A96:	bpl     L5A8D
	lda     _counter+26
	sec
	sbc     #$01
	sta     _counter+26
	bcs     L5A8D
	dec     _counter+26+1
;
; if(counter[13]>0) if(marker[121]==false) if(marker[122]==false) {
;
L5A8D:	lda     _counter+26
	cmp     #$01
	lda     _counter+26+1
	sbc     #$00
	bvs     L5A9D
	eor     #$80
L5A9D:	bpl     L5A9A
	lda     _marker+121
	bne     L5A9A
	lda     _marker+122
	bne     L5A9A
;
; show_message(message138);
;
	lda     #<(_message138)
	ldx     #>(_message138)
	jsr     _show_message
;
; if(counter[13]==0) {
;
L5A9A:	lda     _counter+26
	ora     _counter+26+1
	bne     L5AA6
;
; show_message(message132);
;
	lda     #<(_message132)
	ldx     #>(_message132)
	jsr     _show_message
;
; leave(); exit(0);
;
	lda     #<(L5AAD)
	ldx     #>(L5AAD)
	jsr     pushax
	ldy     #$02
	jsr     _printf
	ldx     #$00
	txa
	jsr     _exit
;
; if(get_object_position(104)==35) {
;
L5AA6:	ldx     #$00
	lda     #$68
	jsr     _get_object_position
	cpx     #$00
	bne     L5AB1
	cmp     #$23
	bne     L6BF3
;
; counter[10]=1;
;
	lda     #$01
	sta     _counter+20
	stx     _counter+20+1
;
; if(get_object_position(104)==29) {
;
L5AB1:	ldx     #$00
L6BF3:	lda     #$68
	jsr     _get_object_position
	cpx     #$00
	bne     L5AB8
	cmp     #$1D
	bne     L5AB8
;
; counter[10]=2;
;
	lda     #$02
	sta     _counter+20
	stx     _counter+20+1
;
; if(counter[10]==1) {
;
L5AB8:	lda     _counter+20+1
	bne     L5ABF
	lda     _counter+20
	cmp     #$01
	bne     L5ABF
;
; counter[11]=get_object_position(104);
;
	ldx     #$00
	lda     #$68
	jsr     _get_object_position
	sta     _counter+22
	stx     _counter+22+1
;
; set_object_position(104,counter[11]);
;
	lda     #$68
	jsr     pusha0
	lda     _counter+22
	ldx     _counter+22+1
	jsr     _set_object_position
;
; if(counter[10]==2) {
;
L5ABF:	lda     _counter+20+1
	bne     L5ACB
	lda     _counter+20
	cmp     #$02
	bne     L5ACB
;
; counter[11]=get_object_position(104);
;
	ldx     #$00
	lda     #$68
	jsr     _get_object_position
	sta     _counter+22
	stx     _counter+22+1
;
; counter[11]+=3;
;
	lda     #$03
	clc
	adc     _counter+22
	sta     _counter+22
	bcc     L5AD6
	inc     _counter+22+1
;
; set_object_position(104,counter[11]);
;
L5AD6:	lda     #$68
	jsr     pusha0
	lda     _counter+22
	ldx     _counter+22+1
	jsr     _set_object_position
;
; if(object_is_here(105)) if((rand()%100)<35) {
;
L5ACB:	ldx     #$00
	lda     #$69
	jsr     _object_is_here
	tax
	beq     L5ADB
	jsr     _rand
	jsr     pushax
	ldx     #$00
	lda     #$64
	jsr     tosmoda0
	cmp     #$23
	txa
	sbc     #$00
	bvc     L5AE1
	eor     #$80
L5AE1:	bpl     L5ADB
;
; show_message(message503);
;
	lda     #<(_message503)
	ldx     #>(_message503)
	jsr     _show_message
;
; ++counter[110];
;
L5ADB:	inc     _counter+220
	bne     L5AE8
	inc     _counter+220+1
;
; if(counter[110]==60) {
;
L5AE8:	lda     _counter+220+1
	bne     L5AE9
	lda     _counter+220
	cmp     #$3C
	bne     L5AE9
;
; ++counter[111];
;
	inc     _counter+222
	bne     L5AEF
	inc     _counter+222+1
;
; counter[110]=0;
;
L5AEF:	lda     #$00
	sta     _counter+220
	sta     _counter+220+1
;
; if(counter[111]==24) {
;
L5AE9:	lda     _counter+222+1
	bne     L5AF3
	lda     _counter+222
	cmp     #$18
	bne     L5AF3
;
; ++counter[112];
;
	inc     _counter+224
	bne     L5AF9
	inc     _counter+224+1
;
; counter[111]=0;
;
L5AF9:	lda     #$00
	sta     _counter+222
	sta     _counter+222+1
;
; if(counter[111]==8) {
;
L5AF3:	lda     _counter+222+1
	bne     L5AFD
	lda     _counter+222
	cmp     #$08
	bne     L5AFD
;
; show_message(message509);
;
	lda     #<(_message509)
	ldx     #>(_message509)
	jsr     _show_message
;
; leave(); exit(0);
;
	lda     #<(L5B04)
	ldx     #>(L5B04)
	jsr     pushax
	ldy     #$02
	jsr     _printf
	ldx     #$00
	txa
	jsr     _exit
;
; if(object_is_here(105)) {
;
L5AFD:	ldx     #$00
	lda     #$69
	jsr     _object_is_here
	tax
	beq     L6BEE
;
; marker[25]=true;
;
	lda     #$01
	sta     _marker+25
;
; if(marker[25]==true) {
;
L6BEE:	lda     _marker+25
	cmp     #$01
	bne     L5B0E
;
; set_object_position(105,current_position);
;
	lda     #$69
	jsr     pusha0
	lda     _current_position
	ldx     _current_position+1
	jsr     _set_object_position
;
; show_message(message506);
;
	lda     #<(_message506)
	ldx     #>(_message506)
	jsr     _show_message
;
; if(counter[5]>0) --counter[5];
;
L5B0E:	lda     _counter+10
	cmp     #$01
	lda     _counter+10+1
	sbc     #$00
	bvs     L5B1B
	eor     #$80
L5B1B:	asl     a
	bcc     L6BEF
	lda     _counter+10
	sec
	sbc     #$01
	sta     _counter+10
	bcs     L6BEF
	dec     _counter+10+1
;
; if(marker[5]==true) if(counter[5]==0) {
;
L6BEF:	lda     _marker+5
	cmp     #$01
	bne     L6BF0
	lda     _counter+10
	ora     _counter+10+1
	bne     L6BF0
;
; marker[5]=false;
;
	sta     _marker+5
;
; show_message(message521);
;
	lda     #<(_message521)
	ldx     #>(_message521)
	jsr     _show_message
;
; if(1) amsm(10,7,0,message170);    // IF here 105 AND here 104 THEN mess 173 to 104 0 to 105 0 ENDIF  GATTO  mangia SCARABEO  
;
L6BF0:	lda     #$0A
	jsr     pusha0
	lda     #$07
	jsr     pusha
	lda     #$00
	jsr     pusha
	lda     #<(_message170)
	ldx     #>(_message170)
	jsr     _amsm
;
; if(object_is_here(105)) if(object_is_here(104)) {
;
	ldx     #$00
	lda     #$69
	jsr     _object_is_here
	tax
	beq     L6BF1
	ldx     #$00
	lda     #$68
	jsr     _object_is_here
	tax
	beq     L6BF1
;
; show_message(message173);
;
	lda     #<(_message173)
	ldx     #>(_message173)
	jsr     _show_message
;
; set_object_position(104,0);
;
	lda     #$68
	jsr     pusha0
	lda     #$00
	jsr     _set_object_position
;
; set_object_position(105,0);
;
	lda     #$69
	jsr     pusha0
	lda     #$00
	jsr     _set_object_position
;
; if(1) amsm(25,9,1,message174);    // IF at 25 AND set? 16 THEN mess 212 ENDIF  
;
L6BF1:	lda     #$19
	jsr     pusha0
	lda     #$09
	jsr     pusha
	lda     #$01
	jsr     pusha
	lda     #<(_message174)
	ldx     #>(_message174)
	jsr     _amsm
;
; if(1) amsm(25,16,1,message212);    // IF at 25 AND set? 16 AND res? 18 THEN mess 213 ENDIF  
;
	lda     #$19
	jsr     pusha0
	lda     #$10
	jsr     pusha
	lda     #$01
	jsr     pusha
	lda     #<(_message212)
	ldx     #>(_message212)
	jsr     _amsm
;
; if(current_position==25) if(marker[16]==true) if(marker[18]==false) {
;
	lda     _current_position+1
	bne     L5B54
	lda     _current_position
	cmp     #$19
	bne     L5B54
	lda     _marker+16
	cmp     #$01
	bne     L5B54
	lda     _marker+18
	bne     L5B54
;
; show_message(message213);
;
	lda     #<(_message213)
	ldx     #>(_message213)
	jsr     _show_message
;
; if(current_position==25) if(marker[16]==true) if(marker[18]==true) {
;
L5B54:	lda     _current_position+1
	bne     L6BF2
	lda     _current_position
	cmp     #$19
	bne     L6BF2
	lda     _marker+16
	cmp     #$01
	bne     L6BF2
	lda     _marker+18
	cmp     #$01
	bne     L6BF2
;
; show_message(message214);
;
	lda     #<(_message214)
	ldx     #>(_message214)
	jsr     _show_message
;
; if(1) amsm(28,20,1,message529);    // IF at 33 AND set? 55 THEN mess 254 ENDIF  
;
L6BF2:	lda     #$1C
	jsr     pusha0
	lda     #$14
	jsr     pusha
	lda     #$01
	jsr     pusha
	lda     #<(_message529)
	ldx     #>(_message529)
	jsr     _amsm
;
; if(1) amsm(33,55,1,message254);    // IF at 33 AND res? 55 THEN mess 255 ENDIF
;
	lda     #$21
	jsr     pusha0
	lda     #$37
	jsr     pusha
	lda     #$01
	jsr     pusha
	lda     #<(_message254)
	ldx     #>(_message254)
	jsr     _amsm
;
; if(1) amsm(33,55,0,message255);    // IF at 27 AND set? 51 THEN mess 264 ENDIF  c' passaggio
;
	lda     #$21
	jsr     pusha0
	lda     #$37
	jsr     pusha
	lda     #$00
	jsr     pusha
	lda     #<(_message255)
	ldx     #>(_message255)
	jsr     _amsm
;
; if(1) amsm(27,51,1,message264);    // IF at 34 AND set? 53 THEN mess 270 ENDIF  
;
	lda     #$1B
	jsr     pusha0
	lda     #$33
	jsr     pusha
	lda     #$01
	jsr     pusha
	lda     #<(_message264)
	ldx     #>(_message264)
	jsr     _amsm
;
; if(1) amsm(34,53,1,message270);    // IF at 34 AND res? 53 THEN mess 269 ENDIF
;
	lda     #$22
	jsr     pusha0
	lda     #$35
	jsr     pusha
	lda     #$01
	jsr     pusha
	lda     #<(_message270)
	ldx     #>(_message270)
	jsr     _amsm
;
; if(1) amsm(34,53,0,message269);    // IF THEN ENDIF CSET 81 RAND 4 ADDC 81 899 MESS CTR 81 ENDIF deve essere l'ultima linea delle condizioni hi
;
	lda     #$22
	jsr     pusha0
	lda     #$35
	jsr     pusha
	lda     #$00
	jsr     pusha
	lda     #<(_message269)
	ldx     #>(_message269)
	jsr     _amsm
;
; return 0;
;
	ldx     #$00
	txa
	rts
;
; return1: return 1;
;
L5A63:	ldx     #$00
	lda     #$01
;
; }
;
	rts

.endproc

; ---------------------------------------------------------------
; unsigned int __near__ low_cond (void)
; ---------------------------------------------------------------

.segment	"CODE"

.proc	_low_cond: near

.segment	"CODE"

;
; if(verb==501) {
;
	lda     _verb+1
	cmp     #$01
	bne     L6C2B
	lda     _verb
	cmp     #$F5
;
; goto return1;
;
	jeq     L5B96
;
; if(verb==500) {
;
L6C2B:	lda     _verb+1
	cmp     #$01
	bne     L6C2C
	lda     _verb
	cmp     #$F4
;
; goto return1;
;
	jeq     L5B96
;
; if(verb==40) {
;
L6C2C:	lda     _verb+1
	bne     L5B9A
	lda     _verb
	cmp     #$28
	bne     L5B9A
;
; show_message(message500);
;
	lda     #<(_message500)
	ldx     #>(_message500)
	jsr     _show_message
;
; leave(); exit(0);
;
	lda     #<(L5BA0)
	ldx     #>(L5BA0)
	jsr     pushax
	ldy     #$02
	jsr     _printf
	ldx     #$00
	txa
	jsr     _exit
;
; if(cvn(74,72)) {
;
L5B9A:	lda     #$4A
	jsr     pusha0
	lda     #$48
	jsr     _cvn
	stx     tmp1
	ora     tmp1
	beq     L5BA4
;
; inventory();
;
	jsr     _inventory
;
; goto return1;
;
	jmp     L5B96
;
; if(cvn(0,72)) {
;
L5BA4:	jsr     push0
	lda     #$48
	jsr     _cvn
	stx     tmp1
	ora     tmp1
	beq     L5BA9
;
; inventory();
;
	jsr     _inventory
;
; goto return1;
;
	jmp     L5B96
;
; if(verb==987) {
;
L5BA9:	lda     _verb
	ldx     _verb+1
	cpx     #$03
	bne     L5BB0
	cmp     #$DB
L5BB0:	jsr     booleq
;
; if(verb==988) {
;
	lda     _verb+1
	cmp     #$03
	bne     L6C2D
	lda     _verb
	cmp     #$DC
;
; goto return1;
;
	jeq     L6C29
;
; if(verb==989) {
;
L6C2D:	lda     _verb+1
	cmp     #$03
	bne     L6C2E
	lda     _verb
	cmp     #$DD
;
; goto return1;
;
	jeq     L6C29
;
; if(verb==100||verb==204||verb==303||verb==0) if(noun1==80) {
;
L6C2E:	lda     _verb+1
	bne     L6C2F
	lda     _verb
	cmp     #$64
	beq     L6BF5
L6C2F:	lda     _verb+1
	bne     L6C30
	lda     _verb
	cmp     #$CC
	beq     L6BF5
L6C30:	lda     _verb+1
	cmp     #$01
	bne     L6C31
	lda     _verb
	cmp     #$2F
	beq     L6BF5
L6C31:	lda     _verb
	ora     _verb+1
	bne     L5BBE
L6BF5:	lda     _noun1+1
	bne     L5BBE
	lda     _noun1
	cmp     #$50
	bne     L5BBE
;
; move(0);
;
	txa
	jsr     _move
;
; goto return1;
;
	jmp     L5B96
;
; if(verb==100||verb==204||verb==303||verb==0) if(noun1==81) {
;
L5BBE:	lda     _verb+1
	bne     L6C32
	lda     _verb
	cmp     #$64
	beq     L6BF6
L6C32:	lda     _verb+1
	bne     L6C33
	lda     _verb
	cmp     #$CC
	beq     L6BF6
L6C33:	lda     _verb+1
	cmp     #$01
	bne     L6C34
	lda     _verb
	cmp     #$2F
	beq     L6BF6
L6C34:	lda     _verb
	ora     _verb+1
	bne     L5BCA
L6BF6:	lda     _noun1+1
	bne     L5BCA
	lda     _noun1
	cmp     #$51
	bne     L5BCA
;
; move(1);
;
	lda     #$01
	jsr     _move
;
; goto return1;
;
	jmp     L5B96
;
; if(verb==100||verb==204||verb==303||verb==0) if(noun1==82) {
;
L5BCA:	lda     _verb+1
	bne     L6C35
	lda     _verb
	cmp     #$64
	beq     L6BF7
L6C35:	lda     _verb+1
	bne     L6C36
	lda     _verb
	cmp     #$CC
	beq     L6BF7
L6C36:	lda     _verb+1
	cmp     #$01
	bne     L6C37
	lda     _verb
	cmp     #$2F
	beq     L6BF7
L6C37:	lda     _verb
	ora     _verb+1
	bne     L5BD6
L6BF7:	lda     _noun1+1
	bne     L5BD6
	lda     _noun1
	cmp     #$52
	bne     L5BD6
;
; move(2);
;
	lda     #$02
	jsr     _move
;
; goto return1;
;
	jmp     L5B96
;
; if(verb==100||verb==204||verb==303||verb==0) if(noun1==83) {
;
L5BD6:	lda     _verb+1
	bne     L6C38
	lda     _verb
	cmp     #$64
	beq     L6BF8
L6C38:	lda     _verb+1
	bne     L6C39
	lda     _verb
	cmp     #$CC
	beq     L6BF8
L6C39:	lda     _verb+1
	cmp     #$01
	bne     L6C3A
	lda     _verb
	cmp     #$2F
	beq     L6BF8
L6C3A:	lda     _verb
	ora     _verb+1
	bne     L5BE2
L6BF8:	lda     _noun1+1
	bne     L5BE2
	lda     _noun1
	cmp     #$53
	bne     L5BE2
;
; move(3);
;
	lda     #$03
	jsr     _move
;
; goto return1;
;
	jmp     L5B96
;
; if(verb==100||verb==204||verb==303||verb==0) if(noun1==84) {
;
L5BE2:	lda     _verb+1
	bne     L6C3B
	lda     _verb
	cmp     #$64
	beq     L6BF9
L6C3B:	lda     _verb+1
	bne     L6C3C
	lda     _verb
	cmp     #$CC
	beq     L6BF9
L6C3C:	lda     _verb+1
	cmp     #$01
	bne     L6C3D
	lda     _verb
	cmp     #$2F
	beq     L6BF9
L6C3D:	lda     _verb
	ora     _verb+1
	bne     L5BEE
L6BF9:	lda     _noun1+1
	bne     L5BEE
	lda     _noun1
	cmp     #$54
	bne     L5BEE
;
; move(4);
;
	lda     #$04
	jsr     _move
;
; goto return1;
;
	jmp     L5B96
;
; if(noun1==84||noun1==0) if(verb==184) {
;
L5BEE:	lda     _noun1+1
	bne     L6C3E
	lda     _noun1
	cmp     #$54
	beq     L6BFA
L6C3E:	lda     _noun1
	ora     _noun1+1
	bne     L5BF8
L6BFA:	lda     _verb+1
	bne     L5BF8
	lda     _verb
	cmp     #$B8
	bne     L5BF8
;
; move(4);
;
	lda     #$04
	jsr     _move
;
; goto return1;
;
	jmp     L5B96
;
; if(verb==100||verb==204||verb==303||verb==0) if(noun1==85) {
;
L5BF8:	lda     _verb+1
	bne     L6C3F
	lda     _verb
	cmp     #$64
	beq     L6BFB
L6C3F:	lda     _verb+1
	bne     L6C40
	lda     _verb
	cmp     #$CC
	beq     L6BFB
L6C40:	lda     _verb+1
	cmp     #$01
	bne     L6C41
	lda     _verb
	cmp     #$2F
	beq     L6BFB
L6C41:	lda     _verb
	ora     _verb+1
	bne     L5C04
L6BFB:	lda     _noun1+1
	bne     L5C04
	lda     _noun1
	cmp     #$55
	bne     L5C04
;
; move(5);
;
	lda     #$05
	jsr     _move
;
; goto return1;
;
	jmp     L5B96
;
; if(noun1==85||noun1==0) if(verb==185) {
;
L5C04:	lda     _noun1+1
	bne     L6C42
	lda     _noun1
	cmp     #$55
	beq     L6BFC
L6C42:	lda     _noun1
	ora     _noun1+1
	bne     L6BFD
L6BFC:	lda     _verb+1
	bne     L6BFD
	lda     _verb
	cmp     #$B9
	bne     L6BFD
;
; move(5);
;
	lda     #$05
	jsr     _move
;
; goto return1;
;
	jmp     L5B96
;
; if(cvn(50,6)) {
;
L6BFD:	lda     #$32
	jsr     pusha0
	lda     #$06
	jsr     _cvn
	stx     tmp1
	ora     tmp1
	beq     L5C13
;
; if(get(6)!=00) goto return1;
;
	ldx     #$00
	lda     #$06
	jsr     _get
	cpx     #$00
	jne     L5B96
	cmp     #$00
	jne     L6C29
;
; marker[20]=false;
;
	sta     _marker+20
;
; show_message(message1000);
;
	lda     #<(_message1000)
	ldx     #>(_message1000)
	jsr     _show_message
;
; goto return1;
;
	jmp     L5B96
;
; if(verb==50) if((noun1>0&&noun1<22)) if(obj[search_object(noun1)].isnotmovable==false) {
;
L5C13:	lda     _verb+1
	bne     L5C2A
	lda     _verb
	cmp     #$32
	bne     L5C2A
	lda     _noun1
	ora     _noun1+1
	beq     L5C2A
	lda     _noun1+1
	cmp     #$00
	bne     L5C28
	lda     _noun1
	cmp     #$16
L5C28:	bcs     L5C2A
	lda     _noun1
	ldx     _noun1+1
	jsr     _search_object
	jsr     pushax
	lda     #$0E
	jsr     tosmula0
	clc
	adc     #<(_obj)
	sta     ptr1
	txa
	adc     #>(_obj)
	sta     ptr1+1
	ldy     #$0C
	lda     (ptr1),y
	bne     L5C2A
;
; if(get(noun1)!=00) goto return1;
;
	lda     _noun1
	ldx     _noun1+1
	jsr     _get
	cpx     #$00
	jne     L5B96
	cmp     #$00
	jne     L6C29
;
; show_message(message1000);
;
	lda     #<(_message1000)
	ldx     #>(_message1000)
	jsr     _show_message
;
; goto return1;
;
	jmp     L5B96
;
; if(verb==50) if((noun1>0&&noun1<22)) if(obj[search_object(noun1)].isnotmovable==true) {
;
L5C2A:	lda     _verb+1
	bne     L6BFE
	lda     _verb
	cmp     #$32
	bne     L6BFE
	lda     _noun1
	ora     _noun1+1
	beq     L6BFE
	lda     _noun1+1
	cmp     #$00
	bne     L5C3C
	lda     _noun1
	cmp     #$16
L5C3C:	bcs     L6BFE
	lda     _noun1
	ldx     _noun1+1
	jsr     _search_object
	jsr     pushax
	lda     #$0E
	jsr     tosmula0
	clc
	adc     #<(_obj)
	sta     ptr1
	txa
	adc     #>(_obj)
	sta     ptr1+1
	ldy     #$0C
	lda     (ptr1),y
	cmp     #$01
	bne     L6BFE
;
; if(get(noun1)!=00) goto return1;
;
	lda     _noun1
	ldx     _noun1+1
	jsr     _get
	cpx     #$00
	jne     L5B96
	cmp     #$00
	jeq     L6C29
	jmp     L6C29
;
; if(cvn(50,105)) if(object_is_here(105)) {
;
L6BFE:	lda     #$32
	jsr     pusha0
	lda     #$69
	jsr     _cvn
	stx     tmp1
	ora     tmp1
	beq     L6BFF
	ldx     #$00
	lda     #$69
	jsr     _object_is_here
	tax
	beq     L6BFF
;
; show_message(message251);
;
	lda     #<(_message251)
	ldx     #>(_message251)
	jsr     _show_message
;
; goto return1;
;
	jmp     L5B96
;
; if(cvn(50,105)) {
;
L6BFF:	lda     #$32
	jsr     pusha0
	lda     #$69
	jsr     _cvn
	stx     tmp1
	ora     tmp1
	beq     L5C4F
;
; show_message(message505);
;
	lda     #<(_message505)
	ldx     #>(_message505)
	jsr     _show_message
;
; goto return1;
;
	jmp     L5B96
;
; if(cvn(50,106)) if(object_is_here(106)) {
;
L5C4F:	lda     #$32
	jsr     pusha0
	lda     #$6A
	jsr     _cvn
	stx     tmp1
	ora     tmp1
	beq     L6C00
	ldx     #$00
	lda     #$6A
	jsr     _object_is_here
	tax
	beq     L6C00
;
; show_message(message179);
;
	lda     #<(_message179)
	ldx     #>(_message179)
	jsr     _show_message
;
; goto return1;
;
	jmp     L5B96
;
; if(cvn(50,106)) {
;
L6C00:	lda     #$32
	jsr     pusha0
	lda     #$6A
	jsr     _cvn
	stx     tmp1
	ora     tmp1
	beq     L5C5E
;
; show_message(message180);
;
	lda     #<(_message180)
	ldx     #>(_message180)
	jsr     _show_message
;
; goto return1;
;
	jmp     L5B96
;
; if(verb==50||verb==111||verb==204) if(noun1==108) {
;
L5C5E:	lda     _verb+1
	bne     L6C44
	lda     _verb
	cmp     #$32
	beq     L5C65
L6C44:	lda     _verb+1
	bne     L6C45
	lda     _verb
	cmp     #$6F
	beq     L5C65
L6C45:	lda     _verb+1
	bne     L6C46
	lda     _verb
	cmp     #$CC
	beq     L5C65
L6C46:	jmp     L6C01
L5C65:	lda     _noun1+1
	bne     L6C01
	lda     _noun1
	cmp     #$6C
	bne     L6C01
;
; show_message(message106);
;
	lda     #<(_message106)
	ldx     #>(_message106)
	jsr     _show_message
;
; goto return1;
;
	jmp     L5B96
;
; if(cvn(50,96)) if(object_is_here(101)) {
;
L6C01:	lda     #$32
	jsr     pusha0
	lda     #$60
	jsr     _cvn
	stx     tmp1
	ora     tmp1
	beq     L6C02
	ldx     #$00
	lda     #$65
	jsr     _object_is_here
	tax
	beq     L6C02
;
; show_message(message183);
;
	lda     #<(_message183)
	ldx     #>(_message183)
	jsr     _show_message
;
; goto return1;
;
	jmp     L5B96
;
; if(cvn(50,96)) if(object_is_here(102)) {
;
L6C02:	lda     #$32
	jsr     pusha0
	lda     #$60
	jsr     _cvn
	stx     tmp1
	ora     tmp1
	beq     L6C03
	ldx     #$00
	lda     #$66
	jsr     _object_is_here
	tax
	beq     L6C03
;
; show_message(message183);
;
	lda     #<(_message183)
	ldx     #>(_message183)
	jsr     _show_message
;
; goto return1;
;
	jmp     L5B96
;
; if(cvn(50,97)) if(object_is_here(22)) {
;
L6C03:	lda     #$32
	jsr     pusha0
	lda     #$61
	jsr     _cvn
	stx     tmp1
	ora     tmp1
	beq     L5C85
	ldx     #$00
	lda     #$16
	jsr     _object_is_here
	tax
	beq     L5C85
;
; show_message(message184);
;
	lda     #<(_message184)
	ldx     #>(_message184)
	jsr     _show_message
;
; goto return1;
;
	jmp     L5B96
;
; if(noun1==285||noun1==286) if(verb==50) {
;
L5C85:	lda     _noun1+1
	cmp     #$01
	bne     L6C47
	lda     _noun1
	cmp     #$1D
	beq     L5C8B
L6C47:	lda     _noun1+1
	cmp     #$01
	bne     L6C48
	lda     _noun1
	cmp     #$1E
	beq     L5C8B
L6C48:	jmp     L5C8F
L5C8B:	lda     _verb+1
	bne     L5C8F
	lda     _verb
	cmp     #$32
	bne     L5C8F
;
; show_message(message278);
;
	lda     #<(_message278)
	ldx     #>(_message278)
	jsr     _show_message
;
; goto return1;
;
	jmp     L5B96
;
; if(noun1==283||noun1==284) if(verb==50) {
;
L5C8F:	lda     _noun1+1
	cmp     #$01
	bne     L6C49
	lda     _noun1
	cmp     #$1B
	beq     L6C04
L6C49:	lda     _noun1+1
	cmp     #$01
	bne     L6C05
	lda     _noun1
	cmp     #$1C
	bne     L6C05
L6C04:	lda     _verb+1
	bne     L6C05
	lda     _verb
	cmp     #$32
	bne     L6C05
;
; show_message(message278);
;
	lda     #<(_message278)
	ldx     #>(_message278)
	jsr     _show_message
;
; goto return1;
;
	jmp     L5B96
;
; if(cvn(50,412)) {
;
L6C05:	lda     #$32
	jsr     pusha0
	ldx     #$01
	lda     #$9C
	jsr     _cvn
	stx     tmp1
	ora     tmp1
	jeq     L5C9E
;
; for(dummy=0; dummy<OSIZE;++dummy)
;
	lda     #$00
	sta     _dummy
	sta     _dummy+1
L5CA2:	lda     _dummy+1
	cmp     #$00
	bne     L5CA9
	lda     _dummy
	cmp     #$1F
L5CA9:	bcs     L5CA3
;
; odummy=&obj[dummy];
;
	lda     _dummy
	ldx     _dummy+1
	jsr     pushax
	lda     #$0E
	jsr     tosmula0
	clc
	adc     #<(_obj)
	sta     _odummy
	txa
	adc     #>(_obj)
	sta     _odummy+1
;
; for(dummy=0; dummy<OSIZE;++dummy)
;
	inc     _dummy
	bne     L5CA2
	inc     _dummy+1
	jmp     L5CA2
;
; if(odummy->position==current_position&&counter[124]+odummy->size>counter[121]&&counter[120]+odummy->weight>counter[122]) {
;
L5CA3:	lda     _odummy
	ldx     _odummy+1
	ldy     #$0B
	jsr     ldaxidx
	cpx     _current_position+1
	jne     L5B96
	cmp     _current_position
	jne     L5B96
	lda     _odummy
	ldx     _odummy+1
	ldy     #$09
	jsr     ldaxidx
	clc
	adc     _counter+248
	pha
	txa
	adc     _counter+248+1
	tax
	pla
	sec
	sbc     _counter+242
	sta     tmp1
	txa
	sbc     _counter+242+1
	ora     tmp1
	jcc     L5B96
	jeq     L5B96
	lda     _odummy
	ldx     _odummy+1
	ldy     #$07
	jsr     ldaxidx
	clc
	adc     _counter+240
	pha
	txa
	adc     _counter+240+1
	tax
	pla
	sec
	sbc     _counter+244
	sta     tmp1
	txa
	sbc     _counter+244+1
	ora     tmp1
	jeq     L5B96
	jcc     L5B96
;
; odummy->position=CARRIED;
;
	lda     _odummy
	sta     ptr1
	lda     _odummy+1
	sta     ptr1+1
	lda     #$DC
	ldy     #$0A
	sta     (ptr1),y
	iny
	lda     #$05
	sta     (ptr1),y
;
; ++counter[119];
;
	inc     _counter+238
	bne     L5CBB
	inc     _counter+238+1
;
; counter[120]+=odummy->weight;
;
L5CBB:	lda     _odummy
	ldx     _odummy+1
	ldy     #$07
	jsr     ldaxidx
	clc
	adc     _counter+240
	sta     _counter+240
	txa
	adc     _counter+240+1
	sta     _counter+240+1
;
; counter[124]+=odummy->size;
;
	lda     _odummy
	ldx     _odummy+1
	ldy     #$09
	jsr     ldaxidx
	clc
	adc     _counter+248
	sta     _counter+248
	txa
	adc     _counter+248+1
	sta     _counter+248+1
;
; goto return1;
;
	jmp     L5B96
;
; if(verb==50) {
;
L5C9E:	lda     _verb+1
	bne     L5CC2
	lda     _verb
	cmp     #$32
	bne     L5CC2
;
; show_message(message235);
;
	lda     #<(_message235)
	ldx     #>(_message235)
	jsr     _show_message
;
; goto return1;
;
	jmp     L5B96
;
; if(cvn(55,8)) if(noun2==221) {
;
L5CC2:	lda     #$37
	jsr     pusha0
	lda     #$08
	jsr     _cvn
	stx     tmp1
	ora     tmp1
	beq     L5CCB
	lda     _noun2+1
	bne     L5CCB
	lda     _noun2
	cmp     #$DD
	bne     L5CCB
;
; show_message(message216);
;
	lda     #<(_message216)
	ldx     #>(_message216)
	jsr     _show_message
;
; goto return1;
;
	jmp     L5B96
;
; if(verb==55||verb==102) if(noun1==6) if(noun2==10) if(object_is_carried(6)) {
;
L5CCB:	lda     _verb+1
	bne     L6C4B
	lda     _verb
	cmp     #$37
	beq     L5CD1
L6C4B:	lda     _verb+1
	bne     L6C4C
	lda     _verb
	cmp     #$66
	beq     L5CD1
L6C4C:	jmp     L5CDB
L5CD1:	ldx     #$00
	lda     _noun1+1
	bne     L5CDB
	lda     _noun1
	cmp     #$06
	bne     L5CDB
	lda     _noun2+1
	bne     L5CDB
	lda     _noun2
	cmp     #$0A
	bne     L5CDB
	lda     #$06
	jsr     _object_is_carried
	tax
	beq     L5CDB
;
; show_message(message530);
;
	lda     #<(_message530)
	ldx     #>(_message530)
	jsr     _show_message
;
; goto return1;
;
	jmp     L5B96
;
; if(verb==55||verb==102) if(noun1==6) if(noun2==10) {
;
L5CDB:	lda     _verb+1
	bne     L6C4D
	lda     _verb
	cmp     #$37
	beq     L6C06
L6C4D:	lda     _verb+1
	bne     L6C07
	lda     _verb
	cmp     #$66
	bne     L6C07
L6C06:	lda     _noun1+1
	bne     L6C07
	lda     _noun1
	cmp     #$06
	bne     L6C07
	lda     _noun2+1
	bne     L6C07
	lda     _noun2
	cmp     #$0A
	bne     L6C07
;
; show_message(message527);
;
	lda     #<(_message527)
	ldx     #>(_message527)
	jsr     _show_message
;
; goto return1;
;
	jmp     L5B96
;
; if(cvna(102,6,6)) {
;
L6C07:	lda     #$66
	jsr     pusha0
	lda     #$06
	jsr     pusha0
	jsr     _cvna
	stx     tmp1
	ora     tmp1
	beq     L5CED
;
; show_message(message528);
;
	lda     #<(_message528)
	ldx     #>(_message528)
	jsr     _show_message
;
; goto return1;
;
	jmp     L5B96
;
; if(cvn(55,6)) if(object_is_carried(6)) {
;
L5CED:	lda     #$37
	jsr     pusha0
	lda     #$06
	jsr     _cvn
	stx     tmp1
	ora     tmp1
	beq     L6C08
	ldx     #$00
	lda     #$06
	jsr     _object_is_carried
	tax
	beq     L6C08
;
; drop(6);
;
	ldx     #$00
	lda     #$06
	jsr     _drop
;
; show_message(message1000);
;
	lda     #<(_message1000)
	ldx     #>(_message1000)
	jsr     _show_message
;
; goto return1;
;
	jmp     L5B96
;
; if(cvn(55,6)) {
;
L6C08:	lda     #$37
	jsr     pusha0
	lda     #$06
	jsr     _cvn
	stx     tmp1
	ora     tmp1
;
; goto return1;
;
	jne     L5B96
;
; if(verb==55) if((noun1>0&&noun1<22)) {
;
	lda     _verb+1
	bne     L5D06
	lda     _verb
	cmp     #$37
	bne     L5D06
	lda     _noun1
	ora     _noun1+1
	beq     L5D06
	lda     _noun1+1
	cmp     #$00
	bne     L5D0B
	lda     _noun1
	cmp     #$16
L5D0B:	bcs     L5D06
;
; drop(noun1);
;
	lda     _noun1
	ldx     _noun1+1
	jsr     _drop
;
; show_message(message1000);
;
	lda     #<(_message1000)
	ldx     #>(_message1000)
	jsr     _show_message
;
; goto return1;
;
	jmp     L5B96
;
; if(cvn(55,412)) {
;
L5D06:	lda     #$37
	jsr     pusha0
	ldx     #$01
	lda     #$9C
	jsr     _cvn
	stx     tmp1
	ora     tmp1
	jeq     L5D11
;
; for(dummy=0; dummy<OSIZE;++dummy)
;
	lda     #$00
	sta     _dummy
	sta     _dummy+1
L5D15:	lda     _dummy+1
	cmp     #$00
	bne     L5D1C
	lda     _dummy
	cmp     #$1F
L5D1C:	bcs     L5D16
;
; odummy=&obj[dummy];
;
	lda     _dummy
	ldx     _dummy+1
	jsr     pushax
	lda     #$0E
	jsr     tosmula0
	clc
	adc     #<(_obj)
	sta     _odummy
	txa
	adc     #>(_obj)
	sta     _odummy+1
;
; for(dummy=0; dummy<OSIZE;++dummy)
;
	inc     _dummy
	bne     L5D15
	inc     _dummy+1
	jmp     L5D15
;
; if(odummy->position==CARRIED) {
;
L5D16:	lda     _odummy
	ldx     _odummy+1
	ldy     #$0B
	jsr     ldaxidx
	cpx     #$05
	jne     L5B96
	cmp     #$DC
	jne     L5B96
;
; odummy->position=current_position;
;
	lda     _odummy
	sta     ptr1
	lda     _odummy+1
	sta     ptr1+1
	lda     _current_position
	ldy     #$0A
	sta     (ptr1),y
	iny
	lda     _current_position+1
	sta     (ptr1),y
;
; --counter[119];
;
	lda     _counter+238
	sec
	sbc     #$01
	sta     _counter+238
	bcs     L5D29
	dec     _counter+238+1
;
; counter[120]-=odummy->weight;
;
L5D29:	lda     _odummy
	ldx     _odummy+1
	ldy     #$07
	jsr     ldaxidx
	eor     #$FF
	sec
	adc     _counter+240
	sta     _counter+240
	txa
	eor     #$FF
	adc     _counter+240+1
	sta     _counter+240+1
;
; counter[124]-=odummy->size;
;
	lda     _odummy
	ldx     _odummy+1
	ldy     #$09
	jsr     ldaxidx
	eor     #$FF
	sec
	adc     _counter+248
	sta     _counter+248
	txa
	eor     #$FF
	adc     _counter+248+1
	sta     _counter+248+1
;
; goto return1;
;
	jmp     L5B96
;
; if(verb==55) {
;
L5D11:	lda     _verb+1
	bne     L5D30
	lda     _verb
	cmp     #$37
	bne     L5D30
;
; show_message(message234);
;
	lda     #<(_message234)
	ldx     #>(_message234)
	jsr     _show_message
;
; goto return1;
;
	jmp     L5B96
;
; if(verb==216) if(current_position<6) {
;
L5D30:	lda     _verb+1
	bne     L5D38
	lda     _verb
	cmp     #$D8
	bne     L5D38
	lda     _current_position+1
	cmp     #$00
	bne     L5D3A
	lda     _current_position
	cmp     #$06
L5D3A:	bcs     L5D38
;
; show_message(message128);
;
	lda     #<(_message128)
	ldx     #>(_message128)
	jsr     _show_message
;
; goto return1;
;
	jmp     L5B96
;
; if(verb==216) if(current_position>6) if(current_position<11) {
;
L5D38:	lda     _verb+1
	bne     L5D42
	lda     _verb
	cmp     #$D8
	bne     L5D42
	lda     _current_position
	cmp     #$07
	lda     _current_position+1
	sbc     #$00
	bcc     L5D42
	lda     _current_position+1
	cmp     #$00
	bne     L5D44
	lda     _current_position
	cmp     #$0B
L5D44:	bcs     L5D42
;
; show_message(message129);
;
	lda     #<(_message129)
	ldx     #>(_message129)
	jsr     _show_message
;
; goto return1;
;
	jmp     L5B96
;
; if(verb==216) if(current_position>20) if(object_is_carried(3)) {
;
L5D42:	lda     _verb+1
	bne     L5D4C
	lda     _verb
	cmp     #$D8
	bne     L5D4C
	lda     _current_position
	cmp     #$15
	lda     _current_position+1
	sbc     #$00
	bcc     L5D4C
	ldx     #$00
	lda     #$03
	jsr     _object_is_carried
	tax
	beq     L5D4C
;
; show_message(message130);
;
	lda     #<(_message130)
	ldx     #>(_message130)
	jsr     _show_message
;
; goto return1;
;
	jmp     L5B96
;
; if(verb==216) {
;
L5D4C:	lda     _verb+1
	bne     L5D51
	lda     _verb
	cmp     #$D8
	bne     L5D51
;
; show_message(message131);
;
	lda     #<(_message131)
	ldx     #>(_message131)
	jsr     _show_message
;
; goto return1;
;
	jmp     L5B96
;
; if(verb==1100) {
;
L5D51:	lda     _verb+1
	cmp     #$04
	bne     L5D56
	lda     _verb
	cmp     #$4C
	bne     L5D56
;
; printf("%d\n",current_position);
;
	lda     #<(L5D5A)
	ldx     #>(L5D5A)
	jsr     pushax
	lda     _current_position
	ldx     _current_position+1
	jsr     pushax
	ldy     #$04
	jsr     _printf
;
; goto return1;
;
	jmp     L5B96
;
; if(verb==1200) {
;
L5D56:	lda     _verb+1
	cmp     #$04
	bne     L5D5D
	lda     _verb
	cmp     #$B0
	bne     L5D5D
;
; printf("%d\n",counter[120]);
;
	lda     #<(L5D61)
	ldx     #>(L5D61)
	jsr     pushax
	lda     _counter+240
	ldx     _counter+240+1
	jsr     pushax
	ldy     #$04
	jsr     _printf
;
; goto return1;
;
	jmp     L5B96
;
; if(verb==1300) {
;
L5D5D:	lda     _verb+1
	cmp     #$05
	bne     L6C4F
	lda     _verb
	cmp     #$14
;
; goto return1;
;
	jeq     L5B96
;
; if(verb==1301) {
;
L6C4F:	lda     _verb+1
	cmp     #$05
	bne     L6C50
	lda     _verb
	cmp     #$15
;
; goto return1;
;
	jeq     L5B96
;
; if(cvn(70,104)) if(object_is_here(104)) {
;
L6C50:	lda     #$46
	jsr     pusha0
	lda     #$68
	jsr     _cvn
	stx     tmp1
	ora     tmp1
	beq     L6C0A
	ldx     #$00
	lda     #$68
	jsr     _object_is_here
	tax
	beq     L6C0A
;
; show_message(message165);
;
	lda     #<(_message165)
	ldx     #>(_message165)
	jsr     _show_message
;
; goto return1;
;
	jmp     L5B96
;
; if(cvn(70,104)) {
;
L6C0A:	lda     #$46
	jsr     pusha0
	lda     #$68
	jsr     _cvn
	stx     tmp1
	ora     tmp1
	beq     L5D74
;
; show_message(message166);
;
	lda     #<(_message166)
	ldx     #>(_message166)
	jsr     _show_message
;
; goto return1;
;
	jmp     L5B96
;
; if(verb==208||verb==110) if(noun1==3) if(object_is_available(3)) {
;
L5D74:	lda     _verb+1
	bne     L6C51
	lda     _verb
	cmp     #$D0
	beq     L5D7B
L6C51:	lda     _verb+1
	bne     L6C52
	lda     _verb
	cmp     #$6E
	beq     L5D7B
L6C52:	ldx     #$00
	jmp     L5D82
L5D7B:	ldx     #$00
	lda     _noun1+1
	bne     L5D82
	lda     _noun1
	cmp     #$03
	bne     L5D82
	jsr     _object_is_available
	tax
	beq     L5D82
;
; show_message(message507);
;
	lda     #<(_message507)
	ldx     #>(_message507)
	jsr     _show_message
;
; printf("%d",counter[111]);
;
	lda     #<(L5D88)
	ldx     #>(L5D88)
	jsr     pushax
	lda     _counter+222
	ldx     _counter+222+1
	jsr     pushax
	ldy     #$04
	jsr     _printf
;
; show_messagenlf(message508);
;
	lda     #<(_message508)
	ldx     #>(_message508)
	jsr     _show_messagenlf
;
; printf("%d",counter[110]);
;
	lda     #<(L5D8F)
	ldx     #>(L5D8F)
	jsr     pushax
	lda     _counter+220
	ldx     _counter+220+1
	jsr     pushax
	ldy     #$04
	jsr     _printf
;
; writeln("");
;
	lda     #<(L5D94)
	ldx     #>(L5D94)
	jsr     _writeln
;
; goto return1;
;
	jmp     L5B96
;
; if(verb==110) {
;
L5D82:	lda     _verb+1
	bne     L6C0B
	lda     _verb
	cmp     #$6E
	bne     L6C0B
;
; marker[120]=false;
;
	stx     _marker+120
;
; goto return1;
;
	jmp     L6C29
;
; if(cvna(70,3,3)) {
;
L6C0B:	lda     #$46
	jsr     pusha0
	lda     #$03
	jsr     pusha0
	jsr     _cvna
	stx     tmp1
	ora     tmp1
	beq     L5D9C
;
; show_message(message510);
;
	lda     #<(_message510)
	ldx     #>(_message510)
	jsr     _show_message
;
; goto return1;
;
	jmp     L5B96
;
; if(cvna(75,105,105)) {
;
L5D9C:	lda     #$4B
	jsr     pusha0
	lda     #$69
	jsr     pusha0
	jsr     _cvna
	stx     tmp1
	ora     tmp1
	beq     L5DA3
;
; show_message(message511);
;
	lda     #<(_message511)
	ldx     #>(_message511)
	jsr     _show_message
;
; goto return1;
;
	jmp     L5B96
;
; if(cvn(75,105)) {
;
L5DA3:	lda     #$4B
	jsr     pusha0
	lda     #$69
	jsr     _cvn
	stx     tmp1
	ora     tmp1
	beq     L5DAA
;
; show_message(message505);
;
	lda     #<(_message505)
	ldx     #>(_message505)
	jsr     _show_message
;
; goto return1;
;
	jmp     L5B96
;
; if(cvn(70,90)) {
;
L5DAA:	lda     #$46
	jsr     pusha0
	lda     #$5A
	jsr     _cvn
	stx     tmp1
	ora     tmp1
	beq     L5DB0
;
; show_message(message1006);
;
	lda     #<(_message1006)
	ldx     #>(_message1006)
	jsr     _show_message
;
; goto return1;
;
	jmp     L5B96
;
; if(cvna(208,1,1)) {
;
L5DB0:	lda     #$D0
	jsr     pusha0
	lda     #$01
	jsr     pusha0
	jsr     _cvna
	stx     tmp1
	ora     tmp1
	beq     L5DB6
;
; show_message(message201);
;
	lda     #<(_message201)
	ldx     #>(_message201)
	jsr     _show_message
;
; writeln("");
;
	lda     #<(L5DBE)
	ldx     #>(L5DBE)
	jsr     _writeln
;
; show_message(message200);
;
	lda     #<(_message200)
	ldx     #>(_message200)
	jsr     _show_message
;
; goto return1;
;
	jmp     L5B96
;
; if(cvn(208,1)) {
;
L5DB6:	lda     #$D0
	jsr     pusha0
	lda     #$01
	jsr     _cvn
	stx     tmp1
	ora     tmp1
	beq     L5DC2
;
; show_message(message166);
;
	lda     #<(_message166)
	ldx     #>(_message166)
	jsr     _show_message
;
; goto return1;
;
	jmp     L5B96
;
; if(cvna(70,1,1)) {
;
L5DC2:	lda     #$46
	jsr     pusha0
	lda     #$01
	jsr     pusha0
	jsr     _cvna
	stx     tmp1
	ora     tmp1
	beq     L5DC8
;
; show_message(message501);
;
	lda     #<(_message501)
	ldx     #>(_message501)
	jsr     _show_message
;
; goto return1;
;
	jmp     L5B96
;
; if(cvn(70,1)) {
;
L5DC8:	lda     #$46
	jsr     pusha0
	lda     #$01
	jsr     _cvn
	stx     tmp1
	ora     tmp1
	beq     L5DCF
;
; show_message(message166);
;
	lda     #<(_message166)
	ldx     #>(_message166)
	jsr     _show_message
;
; goto return1;
;
	jmp     L5B96
;
; if(cvna(70,105,105)) {
;
L5DCF:	lda     #$46
	jsr     pusha0
	lda     #$69
	jsr     pusha0
	jsr     _cvna
	stx     tmp1
	ora     tmp1
	beq     L5DD5
;
; show_message(message512);
;
	lda     #<(_message512)
	ldx     #>(_message512)
	jsr     _show_message
;
; goto return1;
;
	jmp     L5B96
;
; if(cvn(70,105)) {
;
L5DD5:	lda     #$46
	jsr     pusha0
	lda     #$69
	jsr     _cvn
	stx     tmp1
	ora     tmp1
	beq     L5DDC
;
; show_message(message505);
;
	lda     #<(_message505)
	ldx     #>(_message505)
	jsr     _show_message
;
; goto return1;
;
	jmp     L5B96
;
; if(cvna(70,60,105)) {
;
L5DDC:	lda     #$46
	jsr     pusha0
	lda     #$3C
	jsr     pusha0
	lda     #$69
	jsr     _cvna
	stx     tmp1
	ora     tmp1
	beq     L5DE2
;
; show_message(message501);
;
	lda     #<(_message501)
	ldx     #>(_message501)
	jsr     _show_message
;
; goto return1;
;
	jmp     L5B96
;
; if(cvn(70,60)) {
;
L5DE2:	lda     #$46
	jsr     pusha0
	lda     #$3C
	jsr     _cvn
	stx     tmp1
	ora     tmp1
	beq     L5DE9
;
; show_message(message166);
;
	lda     #<(_message166)
	ldx     #>(_message166)
	jsr     _show_message
;
; goto return1;
;
	jmp     L5B96
;
; if(cvna(208,60,105)) {
;
L5DE9:	lda     #$D0
	jsr     pusha0
	lda     #$3C
	jsr     pusha0
	lda     #$69
	jsr     _cvna
	stx     tmp1
	ora     tmp1
	beq     L5DEF
;
; show_message(message513);
;
	lda     #<(_message513)
	ldx     #>(_message513)
	jsr     _show_message
;
; goto return1;
;
	jmp     L5B96
;
; if(cvn(208,60)) {
;
L5DEF:	lda     #$D0
	jsr     pusha0
	lda     #$3C
	jsr     _cvn
	stx     tmp1
	ora     tmp1
	beq     L5DF6
;
; show_message(message166);
;
	lda     #<(_message166)
	ldx     #>(_message166)
	jsr     _show_message
;
; goto return1;
;
	jmp     L5B96
;
; if(cvn(70,5)) {
;
L5DF6:	lda     #$46
	jsr     pusha0
	lda     #$05
	jsr     _cvn
	stx     tmp1
	ora     tmp1
	beq     L5DFC
;
; show_message(message515);
;
	lda     #<(_message515)
	ldx     #>(_message515)
	jsr     _show_message
;
; goto return1;
;
	jmp     L5B96
;
; if(cvna(208,18,18)) {
;
L5DFC:	lda     #$D0
	jsr     pusha0
	lda     #$12
	jsr     pusha0
	jsr     _cvna
	stx     tmp1
	ora     tmp1
	beq     L5E02
;
; show_message(message171);
;
	lda     #<(_message171)
	ldx     #>(_message171)
	jsr     _show_message
;
; goto return1;
;
	jmp     L5B96
;
; if(cvn(208,18)) {
;
L5E02:	lda     #$D0
	jsr     pusha0
	lda     #$12
	jsr     _cvn
	stx     tmp1
	ora     tmp1
	beq     L5E09
;
; show_message(message172);
;
	lda     #<(_message172)
	ldx     #>(_message172)
	jsr     _show_message
;
; goto return1;
;
	jmp     L5B96
;
; if(cvn(219,18)) {
;
L5E09:	lda     #$DB
	jsr     pusha0
	lda     #$12
	jsr     _cvn
	stx     tmp1
	ora     tmp1
	beq     L5E0F
;
; show_message(message177);
;
	lda     #<(_message177)
	ldx     #>(_message177)
	jsr     _show_message
;
; goto return1;
;
	jmp     L5B96
;
; if(cvn(219,8)) if(noun2==19) {
;
L5E0F:	lda     #$DB
	jsr     pusha0
	lda     #$08
	jsr     _cvn
	stx     tmp1
	ora     tmp1
	beq     L5E19
	lda     _noun2+1
	bne     L5E19
	lda     _noun2
	cmp     #$13
	bne     L5E19
;
; show_message(message215);
;
	lda     #<(_message215)
	ldx     #>(_message215)
	jsr     _show_message
;
; goto return1;
;
	jmp     L5B96
;
; if(cvn(219,8)) {
;
L5E19:	lda     #$DB
	jsr     pusha0
	lda     #$08
	jsr     _cvn
	stx     tmp1
	ora     tmp1
	beq     L5E1E
;
; show_message(message177);
;
	lda     #<(_message177)
	ldx     #>(_message177)
	jsr     _show_message
;
; goto return1;
;
	jmp     L5B96
;
; if(verb==502) {
;
L5E1E:	lda     _verb+1
	cmp     #$01
	bne     L5E24
	lda     _verb
	cmp     #$F6
	bne     L5E24
;
; show_message(message523);
;
	lda     #<(_message523)
	ldx     #>(_message523)
	jsr     _show_message
;
; goto return1;
;
	jmp     L5B96
;
; if(verb==503) {
;
L5E24:	lda     _verb+1
	cmp     #$01
	bne     L5E29
	lda     _verb
	cmp     #$F7
	bne     L5E29
;
; show_message(message524);
;
	lda     #<(_message524)
	ldx     #>(_message524)
	jsr     _show_message
;
; goto return1;
;
	jmp     L5B96
;
; if(verb==85||verb==215) if(noun1==221) {
;
L5E29:	lda     _verb+1
	bne     L6C53
	lda     _verb
	cmp     #$55
	beq     L5E2F
L6C53:	lda     _verb+1
	bne     L6C54
	lda     _verb
	cmp     #$D7
	beq     L5E2F
L6C54:	jmp     L6C0C
L5E2F:	lda     _noun1+1
	bne     L6C0C
	lda     _noun1
	cmp     #$DD
	bne     L6C0C
;
; show_message(message216);
;
	lda     #<(_message216)
	ldx     #>(_message216)
	jsr     _show_message
;
; goto return1;
;
	jmp     L5B96
;
; if(cvn(85,8)) {
;
L6C0C:	lda     #$55
	jsr     pusha0
	lda     #$08
	jsr     _cvn
	stx     tmp1
	ora     tmp1
	beq     L5E38
;
; show_message(message177);
;
	lda     #<(_message177)
	ldx     #>(_message177)
	jsr     _show_message
;
; goto return1;
;
	jmp     L5B96
;
; if(cvn(230,8)) {
;
L5E38:	lda     #$E6
	jsr     pusha0
	lda     #$08
	jsr     _cvn
	stx     tmp1
	ora     tmp1
	beq     L5E3E
;
; show_message(message225);
;
	lda     #<(_message225)
	ldx     #>(_message225)
	jsr     _show_message
;
; goto return1;
;
	jmp     L5B96
;
; if(verb==215) {
;
L5E3E:	lda     _verb+1
	bne     L5E44
	lda     _verb
	cmp     #$D7
	bne     L5E44
;
; show_message(message134);
;
	lda     #<(_message134)
	ldx     #>(_message134)
	jsr     _show_message
;
; goto return1;
;
	jmp     L5B96
;
; if(verb==405||verb==406) if(noun1==105) if(object_is_available(105)) {
;
L5E44:	lda     _verb+1
	cmp     #$01
	bne     L6C55
	lda     _verb
	cmp     #$95
	beq     L5E4A
L6C55:	lda     _verb+1
	cmp     #$01
	bne     L5E51
	lda     _verb
	cmp     #$96
	bne     L5E51
L5E4A:	lda     _noun1+1
	bne     L5E51
	lda     _noun1
	cmp     #$69
	bne     L5E51
	ldx     #$00
	jsr     _object_is_available
	tax
	beq     L5E51
;
; show_message(message232);
;
	lda     #<(_message232)
	ldx     #>(_message232)
	jsr     _show_message
;
; goto return1;
;
	jmp     L5B96
;
; if(verb==405||verb==406) if(noun1==105) {
;
L5E51:	lda     _verb+1
	cmp     #$01
	bne     L6C57
	lda     _verb
	cmp     #$95
	beq     L6C0D
L6C57:	lda     _verb+1
	cmp     #$01
	bne     L5E5B
	lda     _verb
	cmp     #$96
	bne     L5E5B
L6C0D:	lda     _noun1+1
	bne     L5E5B
	lda     _noun1
	cmp     #$69
	bne     L5E5B
;
; show_message(message505);
;
	lda     #<(_message505)
	ldx     #>(_message505)
	jsr     _show_message
;
; goto return1;
;
	jmp     L5B96
;
; if(cvn(407,8)) {
;
L5E5B:	ldx     #$01
	lda     #$97
	jsr     pushax
	dex
	lda     #$08
	jsr     _cvn
	stx     tmp1
	ora     tmp1
	beq     L5E60
;
; show_message(message233);
;
	lda     #<(_message233)
	ldx     #>(_message233)
	jsr     _show_message
;
; goto return1;
;
	jmp     L5B96
;
; if(cvn(50,29)) if(object_is_here(100)) {
;
L5E60:	lda     #$32
	jsr     pusha0
	lda     #$1D
	jsr     _cvn
	stx     tmp1
	ora     tmp1
	beq     L5E6A
	ldx     #$00
	lda     #$64
	jsr     _object_is_here
	tax
	beq     L5E6A
;
; if(get(100)!=00) goto return1;
;
	ldx     #$00
	lda     #$64
	jsr     _get
	cpx     #$00
	jne     L5B96
	cmp     #$00
	jne     L6C29
;
; show_message(message1000);
;
	lda     #<(_message1000)
	ldx     #>(_message1000)
	jsr     _show_message
;
; goto return1;
;
	jmp     L5B96
;
; if(noun1==411||noun1==410) if(verb==202) {
;
L5E6A:	lda     _noun1+1
	cmp     #$01
	bne     L6C59
	lda     _noun1
	cmp     #$9B
	beq     L5E74
L6C59:	lda     _noun1+1
	cmp     #$01
	bne     L6C5A
	lda     _noun1
	cmp     #$9A
	beq     L5E74
L6C5A:	jmp     L6C0E
L5E74:	lda     _verb+1
	bne     L6C0E
	lda     _verb
	cmp     #$CA
	bne     L6C0E
;
; show_message(message515);
;
	lda     #<(_message515)
	ldx     #>(_message515)
	jsr     _show_message
;
; goto return1;
;
	jmp     L5B96
;
; if(cvn(55,29)) if(object_is_carried(100)) {
;
L6C0E:	lda     #$37
	jsr     pusha0
	lda     #$1D
	jsr     _cvn
	stx     tmp1
	ora     tmp1
	beq     L6C0F
	ldx     #$00
	lda     #$64
	jsr     _object_is_carried
	tax
	beq     L6C0F
;
; drop(100);
;
	ldx     #$00
	lda     #$64
	jsr     _drop
;
; show_message(message1000);
;
	lda     #<(_message1000)
	ldx     #>(_message1000)
	jsr     _show_message
;
; goto return1;
;
	jmp     L5B96
;
; if(cvna(213,29,100)) {
;
L6C0F:	lda     #$D5
	jsr     pusha0
	lda     #$1D
	jsr     pusha0
	lda     #$64
	jsr     _cvna
	stx     tmp1
	ora     tmp1
	beq     L5E88
;
; show_message(message395);
;
	lda     #<(_message395)
	ldx     #>(_message395)
	jsr     _show_message
;
; goto return1;
;
	jmp     L5B96
;
; if(cvn(213,29)) {
;
L5E88:	lda     #$D5
	jsr     pusha0
	lda     #$1D
	jsr     _cvn
	stx     tmp1
	ora     tmp1
	beq     L5E8F
;
; show_message(message396);
;
	lda     #<(_message396)
	ldx     #>(_message396)
	jsr     _show_message
;
; goto return1;
;
	jmp     L5B96
;
; if(cvn(102,13)) if(noun2==29) if(object_is_available(100)) if(object_is_available(13)) if(marker[23]==false) {
;
L5E8F:	lda     #$66
	jsr     pusha0
	lda     #$0D
	jsr     _cvn
	stx     tmp1
	ora     tmp1
	beq     L6C10
	lda     _noun2+1
	bne     L6C10
	lda     _noun2
	cmp     #$1D
	bne     L6C10
	ldx     #$00
	lda     #$64
	jsr     _object_is_available
	tax
	beq     L6C10
	ldx     #$00
	lda     #$0D
	jsr     _object_is_available
	tax
	beq     L6C10
	lda     _marker+23
	bne     L6C10
;
; marker[23]=true;
;
	lda     #$01
	sta     _marker+23
;
; set_object_position(13,0);
;
	lda     #$0D
	jsr     pusha0
	lda     #$00
	jsr     _set_object_position
;
; show_message(message244);
;
	lda     #<(_message244)
	ldx     #>(_message244)
	jsr     _show_message
;
; goto return1;
;
	jmp     L5B96
;
; if(cvna(102,13,13)) {
;
L6C10:	lda     #$66
	jsr     pusha0
	lda     #$0D
	jsr     pusha0
	jsr     _cvna
	stx     tmp1
	ora     tmp1
	beq     L5EAD
;
; show_message(message245);
;
	lda     #<(_message245)
	ldx     #>(_message245)
	jsr     _show_message
;
; goto return1;
;
	jmp     L5B96
;
; if(cvna(111,13,100)) if(marker[23]==true) {
;
L5EAD:	lda     #$6F
	jsr     pusha0
	lda     #$0D
	jsr     pusha0
	lda     #$64
	jsr     _cvna
	stx     tmp1
	ora     tmp1
	beq     L6C11
	lda     _marker+23
	cmp     #$01
	bne     L6C11
;
; show_message(message246);
;
	lda     #<(_message246)
	ldx     #>(_message246)
	jsr     _show_message
;
; goto return1;
;
	jmp     L5B96
;
; if(cvna(70,29,100)) if(marker[23]==true) {
;
L6C11:	lda     #$46
	jsr     pusha0
	lda     #$1D
	jsr     pusha0
	lda     #$64
	jsr     _cvna
	stx     tmp1
	ora     tmp1
	beq     L6C12
	ldx     #$00
	lda     _marker+23
	cmp     #$01
	bne     L6C12
;
; show_message(obj[search_object(100)].desc);
;
	lda     #$64
	jsr     _search_object
	jsr     pushax
	lda     #$0E
	jsr     tosmula0
	clc
	adc     #<(_obj)
	tay
	txa
	adc     #>(_obj)
	tax
	tya
	ldy     #$05
	jsr     ldaxidx
	jsr     _show_message
;
; show_message(message163);
;
	lda     #<(_message163)
	ldx     #>(_message163)
	jsr     _show_message
;
; goto return1;
;
	jmp     L5B96
;
; if(cvna(70,29,100)) if(marker[23]==false) {
;
L6C12:	lda     #$46
	jsr     pusha0
	lda     #$1D
	jsr     pusha0
	lda     #$64
	jsr     _cvna
	stx     tmp1
	ora     tmp1
	beq     L5ED1
	lda     _marker+23
	bne     L5ED1
;
; show_message(obj[search_object(100)].desc);
;
	tax
	lda     #$64
	jsr     _search_object
	jsr     pushax
	lda     #$0E
	jsr     tosmula0
	clc
	adc     #<(_obj)
	tay
	txa
	adc     #>(_obj)
	tax
	tya
	ldy     #$05
	jsr     ldaxidx
	jsr     _show_message
;
; show_message(message164);
;
	lda     #<(_message164)
	ldx     #>(_message164)
	jsr     _show_message
;
; goto return1;
;
	jmp     L5B96
;
; if(verb==70||verb==208) if(noun1==24) {
;
L5ED1:	lda     _verb+1
	bne     L6C5B
	lda     _verb
	cmp     #$46
	beq     L5EDB
L6C5B:	lda     _verb+1
	bne     L6C5C
	lda     _verb
	cmp     #$D0
	beq     L5EDB
L6C5C:	jmp     L5EDF
L5EDB:	lda     _noun1+1
	bne     L5EDF
	lda     _noun1
	cmp     #$18
	bne     L5EDF
;
; show_message(message250);
;
	lda     #<(_message250)
	ldx     #>(_message250)
	jsr     _show_message
;
; goto return1;
;
	jmp     L5B96
;
; if(noun1==113||noun1==409) if(verb==70) {
;
L5EDF:	lda     _noun1+1
	bne     L6C5D
	lda     _noun1
	cmp     #$71
	beq     L6C13
L6C5D:	lda     _noun1+1
	cmp     #$01
	bne     L6C14
	lda     _noun1
	cmp     #$99
	bne     L6C14
L6C13:	lda     _verb+1
	bne     L6C14
	lda     _verb
	cmp     #$46
	bne     L6C14
;
; show_message(message1009);
;
	lda     #<(_message1009)
	ldx     #>(_message1009)
	jsr     _show_message
;
; goto return1;
;
	jmp     L5B96
;
; if(cvn(95,109)) {
;
L6C14:	lda     #$5F
	jsr     pusha0
	lda     #$6D
	jsr     _cvn
	stx     tmp1
	ora     tmp1
	beq     L5EEE
;
; show_message(message106);
;
	lda     #<(_message106)
	ldx     #>(_message106)
	jsr     _show_message
;
; goto return1;
;
	jmp     L5B96
;
; if(cvn(95,109)) {
;
L5EEE:	lda     #$5F
	jsr     pusha0
	lda     #$6D
	jsr     _cvn
	stx     tmp1
	ora     tmp1
	beq     L5EF4
;
; show_message(message258);
;
	lda     #<(_message258)
	ldx     #>(_message258)
	jsr     _show_message
;
; goto return1;
;
	jmp     L5B96
;
; if(cvn(202,109)) {
;
L5EF4:	lda     #$CA
	jsr     pusha0
	lda     #$6D
	jsr     _cvn
	stx     tmp1
	ora     tmp1
	beq     L5EFA
;
; show_message(message106);
;
	lda     #<(_message106)
	ldx     #>(_message106)
	jsr     _show_message
;
; goto return1;
;
	jmp     L5B96
;
; if(cvn(206,115)) {
;
L5EFA:	lda     #$CE
	jsr     pusha0
	lda     #$73
	jsr     _cvn
	stx     tmp1
	ora     tmp1
	beq     L5F00
;
; show_message(message106);
;
	lda     #<(_message106)
	ldx     #>(_message106)
	jsr     _show_message
;
; goto return1;
;
	jmp     L5B96
;
; if(noun1==160||noun1==162||noun1==161||noun1==163) if(verb==70) {
;
L5F00:	lda     _noun1+1
	bne     L6C5F
	lda     _noun1
	cmp     #$A0
	beq     L5F07
L6C5F:	lda     _noun1+1
	bne     L6C60
	lda     _noun1
	cmp     #$A2
	beq     L5F07
L6C60:	lda     _noun1+1
	bne     L6C61
	lda     _noun1
	cmp     #$A1
	beq     L5F07
L6C61:	lda     _noun1+1
	bne     L6C62
	lda     _noun1
	cmp     #$A3
	beq     L5F07
L6C62:	jmp     L6C15
L5F07:	lda     _verb+1
	bne     L6C15
	lda     _verb
	cmp     #$46
	bne     L6C15
;
; show_message(message278);
;
	lda     #<(_message278)
	ldx     #>(_message278)
	jsr     _show_message
;
; goto return1;
;
	jmp     L5B96
;
; if(cvna(70,12,12)) {
;
L6C15:	lda     #$46
	jsr     pusha0
	lda     #$0C
	jsr     pusha0
	jsr     _cvna
	stx     tmp1
	ora     tmp1
	beq     L5F12
;
; show_message(message277);
;
	lda     #<(_message277)
	ldx     #>(_message277)
	jsr     _show_message
;
; goto return1;
;
	jmp     L5B96
;
; if(cvn(70,12)) {
;
L5F12:	lda     #$46
	jsr     pusha0
	lda     #$0C
	jsr     _cvn
	stx     tmp1
	ora     tmp1
	beq     L5F19
;
; show_message(message279);
;
	lda     #<(_message279)
	ldx     #>(_message279)
	jsr     _show_message
;
; goto return1;
;
	jmp     L5B96
;
; if(cvna(208,12,12)) {
;
L5F19:	lda     #$D0
	jsr     pusha0
	lda     #$0C
	jsr     pusha0
	jsr     _cvna
	stx     tmp1
	ora     tmp1
	beq     L5F1F
;
; show_message(message276);
;
	lda     #<(_message276)
	ldx     #>(_message276)
	jsr     _show_message
;
; marker[60]=true;
;
	ldx     #$00
	lda     #$01
	sta     _marker+60
;
; goto return1;
;
	rts
;
; if(cvn(208,12)) {
;
L5F1F:	lda     #$D0
	jsr     pusha0
	lda     #$0C
	jsr     _cvn
	stx     tmp1
	ora     tmp1
	beq     L5F29
;
; show_message(message279);
;
	lda     #<(_message279)
	ldx     #>(_message279)
	jsr     _show_message
;
; goto return1;
;
	jmp     L5B96
;
; if(verb==120||verb==102) if(noun1==9) if(object_is_available(9)) {
;
L5F29:	lda     _verb+1
	bne     L6C63
	lda     _verb
	cmp     #$78
	beq     L5F30
L6C63:	lda     _verb+1
	jne     L5F37
	lda     _verb
	cmp     #$66
	jne     L5F37
L5F30:	lda     _noun1+1
	jne     L5F37
	lda     _noun1
	cmp     #$09
	jne     L5F37
	ldx     #$00
	jsr     _object_is_available
	tax
	jeq     L5F37
;
; dummy=search_object(9);
;
	ldx     #$00
	lda     #$09
	jsr     _search_object
	sta     _dummy
	stx     _dummy+1
;
; odummy=&obj[dummy];
;
	jsr     pushax
	lda     #$0E
	jsr     tosmula0
	clc
	adc     #<(_obj)
	tay
	txa
	adc     #>(_obj)
	tax
	tya
	sta     _odummy
	stx     _odummy+1
;
; if(odummy->isnotwereable==false&&odummy->position==CARRIED){
;
	sta     ptr1
	stx     ptr1+1
	ldy     #$0D
	lda     (ptr1),y
	bne     L5F40
	lda     _odummy
	ldx     _odummy+1
	ldy     #$0B
	jsr     ldaxidx
	cpx     #$05
	bne     L5F40
	cmp     #$DC
	bne     L5F40
;
; odummy->position=WEARED;
;
	lda     _odummy
	sta     ptr1
	lda     _odummy+1
	sta     ptr1+1
	lda     #$40
	ldy     #$0A
	sta     (ptr1),y
	iny
	lda     #$06
	sta     (ptr1),y
;
; ++counter[118];
;
	inc     _counter+236
	bne     L5F50
	inc     _counter+236+1
;
; } else if(odummy->position==WEARED) {
;
	jmp     L5F50
L5F40:	lda     _odummy
	ldx     _odummy+1
	ldy     #$0B
	jsr     ldaxidx
	cpx     #$06
	bne     L5F4B
	cmp     #$40
	bne     L5F4B
;
; show_message(message1019);
;
	lda     #<(_message1019)
	ldx     #>(_message1019)
	jsr     _show_message
;
; goto return1;
;
	jmp     L5B96
;
; show_message(message1010);
;
L5F4B:	lda     #<(_message1010)
	ldx     #>(_message1010)
	jsr     _show_message
;
; goto return1;
;
	jmp     L5B96
;
; show_message(message280);
;
L5F50:	lda     #<(_message280)
	ldx     #>(_message280)
	jsr     _show_message
;
; goto return1;
;
	jmp     L5B96
;
; if(verb==120||verb==102) if(noun1==9) if(get_object_position(9)==WEARED) {
;
L5F37:	lda     _verb+1
	bne     L6C66
	lda     _verb
	cmp     #$78
	beq     L6C17
L6C66:	lda     _verb+1
	bne     L5F5D
	lda     _verb
	cmp     #$66
	bne     L5F5D
L6C17:	lda     _noun1+1
	bne     L5F5D
	lda     _noun1
	cmp     #$09
	bne     L5F5D
	ldx     #$00
	jsr     _get_object_position
	cpx     #$06
	bne     L5F5D
	cmp     #$40
	bne     L5F5D
;
; show_message(message391);
;
	lda     #<(_message391)
	ldx     #>(_message391)
	jsr     _show_message
;
; goto return1;
;
	jmp     L5B96
;
; if(verb==120||verb==102) if(noun1==9) {
;
L5F5D:	lda     _verb+1
	bne     L6C68
	lda     _verb
	cmp     #$78
	beq     L5F64
L6C68:	lda     _verb+1
	bne     L5F68
	lda     _verb
	cmp     #$66
	bne     L5F68
L5F64:	lda     _noun1+1
	bne     L5F68
	lda     _noun1
	cmp     #$09
	bne     L5F68
;
; show_message(message281);
;
	lda     #<(_message281)
	ldx     #>(_message281)
	jsr     _show_message
;
; goto return1;
;
	jmp     L5B96
;
; if(verb==111||verb==121) if(noun1==9) if(get_object_position(9)==WEARED) {
;
L5F68:	lda     _verb+1
	bne     L6C6A
	lda     _verb
	cmp     #$6F
	beq     L6C18
L6C6A:	lda     _verb+1
	bne     L5F75
	lda     _verb
	cmp     #$79
	bne     L5F75
L6C18:	lda     _noun1+1
	bne     L5F75
	lda     _noun1
	cmp     #$09
	bne     L5F75
	ldx     #$00
	jsr     _get_object_position
	cpx     #$06
	bne     L5F75
	cmp     #$40
	bne     L5F75
;
; show_message(message282);
;
	lda     #<(_message282)
	ldx     #>(_message282)
	jsr     _show_message
;
; goto return1;
;
	jmp     L5B96
;
; if(verb==111||verb==121) if(noun1==9) {
;
L5F75:	lda     _verb+1
	bne     L6C6C
	lda     _verb
	cmp     #$6F
	beq     L5F7C
L6C6C:	lda     _verb+1
	bne     L6C6D
	lda     _verb
	cmp     #$79
	beq     L5F7C
L6C6D:	jmp     L6C19
L5F7C:	lda     _noun1+1
	bne     L6C19
	lda     _noun1
	cmp     #$09
	bne     L6C19
;
; show_message(message281);
;
	lda     #<(_message281)
	ldx     #>(_message281)
	jsr     _show_message
;
; goto return1;
;
	jmp     L5B96
;
; if(cvna(208,2,2)) {
;
L6C19:	lda     #$D0
	jsr     pusha0
	lda     #$02
	jsr     pusha0
	jsr     _cvna
	stx     tmp1
	ora     tmp1
	beq     L5F85
;
; show_message(message283);
;
	lda     #<(_message283)
	ldx     #>(_message283)
	jsr     _show_message
;
; goto return1;
;
	jmp     L5B96
;
; if(cvn(208,2)) {
;
L5F85:	lda     #$D0
	jsr     pusha0
	lda     #$02
	jsr     _cvn
	stx     tmp1
	ora     tmp1
	beq     L5F8C
;
; show_message(message284);
;
	lda     #<(_message284)
	ldx     #>(_message284)
	jsr     _show_message
;
; goto return1;
;
	jmp     L5B96
;
; if(cvn(70,10)) {
;
L5F8C:	lda     #$46
	jsr     pusha0
	lda     #$0A
	jsr     _cvn
	stx     tmp1
	ora     tmp1
	beq     L5F92
;
; show_message(message286);
;
	lda     #<(_message286)
	ldx     #>(_message286)
	jsr     _show_message
;
; goto return1;
;
	jmp     L5B96
;
; if(verb==34||verb==33) if(noun1==32) {
;
L5F92:	lda     _verb+1
	bne     L6C6E
	lda     _verb
	cmp     #$22
	beq     L5F99
L6C6E:	lda     _verb+1
	bne     L6C6F
	lda     _verb
	cmp     #$21
	beq     L5F99
L6C6F:	jmp     L5F9D
L5F99:	lda     _noun1+1
	bne     L5F9D
	lda     _noun1
	cmp     #$20
	bne     L5F9D
;
; show_message(message515);
;
	lda     #<(_message515)
	ldx     #>(_message515)
	jsr     _show_message
;
; goto return1;
;
	jmp     L5B96
;
; if(verb==45) {
;
L5F9D:	lda     _verb+1
	bne     L6C1A
	lda     _verb
	cmp     #$2D
	bne     L6C1A
;
; show_message(message523);
;
	lda     #<(_message523)
	ldx     #>(_message523)
	jsr     _show_message
;
; goto return1;
;
	jmp     L5B96
;
; if(cvna(70,106,106)) {
;
L6C1A:	lda     #$46
	jsr     pusha0
	lda     #$6A
	jsr     pusha0
	jsr     _cvna
	stx     tmp1
	ora     tmp1
	beq     L5FA7
;
; show_message(message178);
;
	lda     #<(_message178)
	ldx     #>(_message178)
	jsr     _show_message
;
; goto return1;
;
	jmp     L5B96
;
; if(cvn(70,106)) {
;
L5FA7:	lda     #$46
	jsr     pusha0
	lda     #$6A
	jsr     _cvn
	stx     tmp1
	ora     tmp1
	beq     L5FAE
;
; show_message(message180);
;
	lda     #<(_message180)
	ldx     #>(_message180)
	jsr     _show_message
;
; goto return1;
;
	jmp     L5B96
;
; if(verb==70||verb==208) if(noun1==98) {
;
L5FAE:	lda     _verb+1
	bne     L6C70
	lda     _verb
	cmp     #$46
	beq     L5FB5
L6C70:	lda     _verb+1
	bne     L6C71
	lda     _verb
	cmp     #$D0
	beq     L5FB5
L6C71:	jmp     L6C1B
L5FB5:	lda     _noun1+1
	bne     L6C1B
	lda     _noun1
	cmp     #$62
	bne     L6C1B
;
; show_message(message299);
;
	lda     #<(_message299)
	ldx     #>(_message299)
	jsr     _show_message
;
; goto return1;
;
	jmp     L5B96
;
; if(cvna(70,4,4)) {
;
L6C1B:	lda     #$46
	jsr     pusha0
	lda     #$04
	jsr     pusha0
	jsr     _cvna
	stx     tmp1
	ora     tmp1
	beq     L5FBE
;
; show_message(message50);
;
	lda     #<(_message50)
	ldx     #>(_message50)
	jsr     _show_message
;
; goto return1;
;
	jmp     L5B96
;
; if(cvn(70,4)) {
;
L5FBE:	lda     #$46
	jsr     pusha0
	lda     #$04
	jsr     _cvn
	stx     tmp1
	ora     tmp1
	beq     L5FC5
;
; show_message(message69);
;
	lda     #<(_message69)
	ldx     #>(_message69)
	jsr     _show_message
;
; goto return1;
;
	jmp     L5B96
;
; if(cvna(70,5,5)) {
;
L5FC5:	lda     #$46
	jsr     pusha0
	lda     #$05
	jsr     pusha0
	jsr     _cvna
	stx     tmp1
	ora     tmp1
	beq     L5FCB
;
; show_message(message51);
;
	lda     #<(_message51)
	ldx     #>(_message51)
	jsr     _show_message
;
; goto return1;
;
	jmp     L5B96
;
; if(cvn(70,5)) {
;
L5FCB:	lda     #$46
	jsr     pusha0
	lda     #$05
	jsr     _cvn
	stx     tmp1
	ora     tmp1
	beq     L5FD2
;
; show_message(message70);
;
	lda     #<(_message70)
	ldx     #>(_message70)
	jsr     _show_message
;
; goto return1;
;
	jmp     L5B96
;
; if(cvna(70,7,7)) {
;
L5FD2:	lda     #$46
	jsr     pusha0
	lda     #$07
	jsr     pusha0
	jsr     _cvna
	stx     tmp1
	ora     tmp1
	beq     L5FD8
;
; show_message(message52);
;
	lda     #<(_message52)
	ldx     #>(_message52)
	jsr     _show_message
;
; goto return1;
;
	jmp     L5B96
;
; if(cvn(70,7)) {
;
L5FD8:	lda     #$46
	jsr     pusha0
	lda     #$07
	jsr     _cvn
	stx     tmp1
	ora     tmp1
	beq     L5FDF
;
; show_message(message278);
;
	lda     #<(_message278)
	ldx     #>(_message278)
	jsr     _show_message
;
; goto return1;
;
	jmp     L5B96
;
; if(cvna(70,8,8)) {
;
L5FDF:	lda     #$46
	jsr     pusha0
	lda     #$08
	jsr     pusha0
	jsr     _cvna
	stx     tmp1
	ora     tmp1
	beq     L5FE5
;
; show_message(message53);
;
	lda     #<(_message53)
	ldx     #>(_message53)
	jsr     _show_message
;
; goto return1;
;
	jmp     L5B96
;
; if(cvn(70,8)) {
;
L5FE5:	lda     #$46
	jsr     pusha0
	lda     #$08
	jsr     _cvn
	stx     tmp1
	ora     tmp1
	beq     L5FEC
;
; show_message(message278);
;
	lda     #<(_message278)
	ldx     #>(_message278)
	jsr     _show_message
;
; goto return1;
;
	jmp     L5B96
;
; if(cvna(70,13,13)) {
;
L5FEC:	lda     #$46
	jsr     pusha0
	lda     #$0D
	jsr     pusha0
	jsr     _cvna
	stx     tmp1
	ora     tmp1
	beq     L5FF2
;
; show_message(message54);
;
	lda     #<(_message54)
	ldx     #>(_message54)
	jsr     _show_message
;
; goto return1;
;
	jmp     L5B96
;
; if(cvn(70,13)) {
;
L5FF2:	lda     #$46
	jsr     pusha0
	lda     #$0D
	jsr     _cvn
	stx     tmp1
	ora     tmp1
	beq     L5FF9
;
; show_message(message278);
;
	lda     #<(_message278)
	ldx     #>(_message278)
	jsr     _show_message
;
; goto return1;
;
	jmp     L5B96
;
; if(cvna(70,14,14)) {
;
L5FF9:	lda     #$46
	jsr     pusha0
	lda     #$0E
	jsr     pusha0
	jsr     _cvna
	stx     tmp1
	ora     tmp1
	beq     L5FFF
;
; show_message(message55);
;
	lda     #<(_message55)
	ldx     #>(_message55)
	jsr     _show_message
;
; goto return1;
;
	jmp     L5B96
;
; if(cvn(70,14)) {
;
L5FFF:	lda     #$46
	jsr     pusha0
	lda     #$0E
	jsr     _cvn
	stx     tmp1
	ora     tmp1
	beq     L6006
;
; show_message(message278);
;
	lda     #<(_message278)
	ldx     #>(_message278)
	jsr     _show_message
;
; goto return1;
;
	jmp     L5B96
;
; if(cvna(70,16,16)) {
;
L6006:	lda     #$46
	jsr     pusha0
	lda     #$10
	jsr     pusha0
	jsr     _cvna
	stx     tmp1
	ora     tmp1
	beq     L600C
;
; show_message(message56);
;
	lda     #<(_message56)
	ldx     #>(_message56)
	jsr     _show_message
;
; goto return1;
;
	jmp     L5B96
;
; if(cvn(70,16)) {
;
L600C:	lda     #$46
	jsr     pusha0
	lda     #$10
	jsr     _cvn
	stx     tmp1
	ora     tmp1
	beq     L6013
;
; show_message(message166);
;
	lda     #<(_message166)
	ldx     #>(_message166)
	jsr     _show_message
;
; goto return1;
;
	jmp     L5B96
;
; if(cvna(70,17,17)) {
;
L6013:	lda     #$46
	jsr     pusha0
	lda     #$11
	jsr     pusha0
	jsr     _cvna
	stx     tmp1
	ora     tmp1
	beq     L6019
;
; show_message(message57);
;
	lda     #<(_message57)
	ldx     #>(_message57)
	jsr     _show_message
;
; goto return1;
;
	jmp     L5B96
;
; if(cvn(70,17)) {
;
L6019:	lda     #$46
	jsr     pusha0
	lda     #$11
	jsr     _cvn
	stx     tmp1
	ora     tmp1
	beq     L6020
;
; show_message(message278);
;
	lda     #<(_message278)
	ldx     #>(_message278)
	jsr     _show_message
;
; goto return1;
;
	jmp     L5B96
;
; if(cvna(70,19,19)) {
;
L6020:	lda     #$46
	jsr     pusha0
	lda     #$13
	jsr     pusha0
	jsr     _cvna
	stx     tmp1
	ora     tmp1
	beq     L6026
;
; show_message(message58);
;
	lda     #<(_message58)
	ldx     #>(_message58)
	jsr     _show_message
;
; goto return1;
;
	jmp     L5B96
;
; if(cvn(70,19)) {
;
L6026:	lda     #$46
	jsr     pusha0
	lda     #$13
	jsr     _cvn
	stx     tmp1
	ora     tmp1
	beq     L602D
;
; show_message(message215);
;
	lda     #<(_message215)
	ldx     #>(_message215)
	jsr     _show_message
;
; goto return1;
;
	jmp     L5B96
;
; if(cvna(70,20,20)) {
;
L602D:	lda     #$46
	jsr     pusha0
	lda     #$14
	jsr     pusha0
	jsr     _cvna
	stx     tmp1
	ora     tmp1
	beq     L6033
;
; show_message(message59);
;
	lda     #<(_message59)
	ldx     #>(_message59)
	jsr     _show_message
;
; goto return1;
;
	jmp     L5B96
;
; if(cvn(70,20)) {
;
L6033:	lda     #$46
	jsr     pusha0
	lda     #$14
	jsr     _cvn
	stx     tmp1
	ora     tmp1
	beq     L603A
;
; show_message(message278);
;
	lda     #<(_message278)
	ldx     #>(_message278)
	jsr     _show_message
;
; goto return1;
;
	jmp     L5B96
;
; if(cvna(70,21,21)) {
;
L603A:	lda     #$46
	jsr     pusha0
	lda     #$15
	jsr     pusha0
	jsr     _cvna
	stx     tmp1
	ora     tmp1
	beq     L6040
;
; show_message(message60);
;
	lda     #<(_message60)
	ldx     #>(_message60)
	jsr     _show_message
;
; goto return1;
;
	jmp     L5B96
;
; if(cvn(70,21)) {
;
L6040:	lda     #$46
	jsr     pusha0
	lda     #$15
	jsr     _cvn
	stx     tmp1
	ora     tmp1
	beq     L6047
;
; show_message(message71);
;
	lda     #<(_message71)
	ldx     #>(_message71)
	jsr     _show_message
;
; goto return1;
;
	jmp     L5B96
;
; if(cvna(70,97,22)) {
;
L6047:	lda     #$46
	jsr     pusha0
	lda     #$61
	jsr     pusha0
	lda     #$16
	jsr     _cvna
	stx     tmp1
	ora     tmp1
	beq     L604D
;
; show_message(message61);
;
	lda     #<(_message61)
	ldx     #>(_message61)
	jsr     _show_message
;
; goto return1;
;
	jmp     L5B96
;
; if(cvn(70,97)) {
;
L604D:	lda     #$46
	jsr     pusha0
	lda     #$61
	jsr     _cvn
	stx     tmp1
	ora     tmp1
	beq     L6054
;
; show_message(message278);
;
	lda     #<(_message278)
	ldx     #>(_message278)
	jsr     _show_message
;
; goto return1;
;
	jmp     L5B96
;
; if(cvna(70,108,108)) {
;
L6054:	lda     #$46
	jsr     pusha0
	lda     #$6C
	jsr     pusha0
	jsr     _cvna
	stx     tmp1
	ora     tmp1
	beq     L605A
;
; show_message(message64);
;
	lda     #<(_message64)
	ldx     #>(_message64)
	jsr     _show_message
;
; goto return1;
;
	jmp     L5B96
;
; if(cvn(70,108)) {
;
L605A:	lda     #$46
	jsr     pusha0
	lda     #$6C
	jsr     _cvn
	stx     tmp1
	ora     tmp1
	beq     L6061
;
; show_message(message72);
;
	lda     #<(_message72)
	ldx     #>(_message72)
	jsr     _show_message
;
; goto return1;
;
	jmp     L5B96
;
; if(cvna(70,109,109)) {
;
L6061:	lda     #$46
	jsr     pusha0
	lda     #$6D
	jsr     pusha0
	jsr     _cvna
	stx     tmp1
	ora     tmp1
	beq     L6067
;
; show_message(message65);
;
	lda     #<(_message65)
	ldx     #>(_message65)
	jsr     _show_message
;
; goto return1;
;
	jmp     L5B96
;
; if(cvn(70,109)) {
;
L6067:	lda     #$46
	jsr     pusha0
	lda     #$6D
	jsr     _cvn
	stx     tmp1
	ora     tmp1
	beq     L606E
;
; show_message(message73);
;
	lda     #<(_message73)
	ldx     #>(_message73)
	jsr     _show_message
;
; goto return1;
;
	jmp     L5B96
;
; if(cvna(70,116,110)) {
;
L606E:	lda     #$46
	jsr     pusha0
	lda     #$74
	jsr     pusha0
	lda     #$6E
	jsr     _cvna
	stx     tmp1
	ora     tmp1
	beq     L6074
;
; show_message(message67);
;
	lda     #<(_message67)
	ldx     #>(_message67)
	jsr     _show_message
;
; goto return1;
;
	jmp     L5B96
;
; if(cvn(70,116)) {
;
L6074:	lda     #$46
	jsr     pusha0
	lda     #$74
	jsr     _cvn
	stx     tmp1
	ora     tmp1
	beq     L607B
;
; show_message(message278);
;
	lda     #<(_message278)
	ldx     #>(_message278)
	jsr     _show_message
;
; goto return1;
;
	jmp     L5B96
;
; if(cvna(70,117,112)) {
;
L607B:	lda     #$46
	jsr     pusha0
	lda     #$75
	jsr     pusha0
	lda     #$70
	jsr     _cvna
	stx     tmp1
	ora     tmp1
	beq     L6081
;
; show_message(message68);
;
	lda     #<(_message68)
	ldx     #>(_message68)
	jsr     _show_message
;
; goto return1;
;
	jmp     L5B96
;
; if(cvn(70,117)) {
;
L6081:	lda     #$46
	jsr     pusha0
	lda     #$75
	jsr     _cvn
	stx     tmp1
	ora     tmp1
	beq     L6088
;
; show_message(message278);
;
	lda     #<(_message278)
	ldx     #>(_message278)
	jsr     _show_message
;
; goto return1;
;
	jmp     L5B96
;
; if(cvna(70,6,6)) {
;
L6088:	lda     #$46
	jsr     pusha0
	lda     #$06
	jsr     pusha0
	jsr     _cvna
	stx     tmp1
	ora     tmp1
	beq     L608E
;
; show_message(message74);
;
	lda     #<(_message74)
	ldx     #>(_message74)
	jsr     _show_message
;
; goto return1;
;
	jmp     L5B96
;
; if(cvn(70,6)) {
;
L608E:	lda     #$46
	jsr     pusha0
	lda     #$06
	jsr     _cvn
	stx     tmp1
	ora     tmp1
	beq     L6095
;
; show_message(message278);
;
	lda     #<(_message278)
	ldx     #>(_message278)
	jsr     _show_message
;
; goto return1;
;
	jmp     L5B96
;
; if(cvna(70,9,9)) {
;
L6095:	lda     #$46
	jsr     pusha0
	lda     #$09
	jsr     pusha0
	jsr     _cvna
	stx     tmp1
	ora     tmp1
	beq     L609B
;
; show_message(message75);
;
	lda     #<(_message75)
	ldx     #>(_message75)
	jsr     _show_message
;
; goto return1;
;
	jmp     L5B96
;
; if(cvn(70,9)) {
;
L609B:	lda     #$46
	jsr     pusha0
	lda     #$09
	jsr     _cvn
	stx     tmp1
	ora     tmp1
	beq     L60A2
;
; show_message(message278);
;
	lda     #<(_message278)
	ldx     #>(_message278)
	jsr     _show_message
;
; goto return1;
;
	jmp     L5B96
;
; if(verb==31||verb==201) if(noun1==19) {
;
L60A2:	lda     _verb+1
	bne     L6C72
	lda     _verb
	cmp     #$1F
	beq     L60A9
L6C72:	lda     _verb+1
	bne     L6C73
	lda     _verb
	cmp     #$C9
	beq     L60A9
L6C73:	jmp     L60AD
L60A9:	lda     _noun1+1
	bne     L60AD
	lda     _noun1
	cmp     #$13
	bne     L60AD
;
; show_message(message215);
;
	lda     #<(_message215)
	ldx     #>(_message215)
	jsr     _show_message
;
; goto return1;
;
	jmp     L5B96
;
; if(verb==233||verb==204||verb==234||verb==235) if(noun1==117) {
;
L60AD:	lda     _verb+1
	bne     L6C74
	lda     _verb
	cmp     #$E9
	beq     L6C1C
L6C74:	lda     _verb+1
	bne     L6C75
	lda     _verb
	cmp     #$CC
	beq     L6C1C
L6C75:	lda     _verb+1
	bne     L6C76
	lda     _verb
	cmp     #$EA
	beq     L6C1C
L6C76:	lda     _verb+1
	bne     L60B9
	lda     _verb
	cmp     #$EB
	bne     L60B9
L6C1C:	lda     _noun1+1
	bne     L60B9
	lda     _noun1
	cmp     #$75
	bne     L60B9
;
; show_message(message304);
;
	lda     #<(_message304)
	ldx     #>(_message304)
	jsr     _show_message
;
; goto return1;
;
	jmp     L5B96
;
; if(verb==206||verb==201) if(noun1==112) {
;
L60B9:	lda     _verb+1
	bne     L6C78
	lda     _verb
	cmp     #$CE
	beq     L6C1D
L6C78:	lda     _verb+1
	bne     L60C3
	lda     _verb
	cmp     #$C9
	bne     L60C3
L6C1D:	lda     _noun1+1
	bne     L60C3
	lda     _noun1
	cmp     #$70
	bne     L60C3
;
; show_message(message305);
;
	lda     #<(_message305)
	ldx     #>(_message305)
	jsr     _show_message
;
; goto return1;
;
	jmp     L5B96
;
; if(verb==70||verb==208) if(noun1==232) {
;
L60C3:	lda     _verb+1
	bne     L6C7A
	lda     _verb
	cmp     #$46
	beq     L6C1E
L6C7A:	lda     _verb+1
	bne     L6C1F
	lda     _verb
	cmp     #$D0
	bne     L6C1F
L6C1E:	lda     _noun1+1
	bne     L6C1F
	lda     _noun1
	cmp     #$E8
	bne     L6C1F
;
; show_message(message306);
;
	lda     #<(_message306)
	ldx     #>(_message306)
	jsr     _show_message
;
; goto return1;
;
	jmp     L5B96
;
; if(cvn(70,250)) {
;
L6C1F:	lda     #$46
	jsr     pusha0
	lda     #$FA
	jsr     _cvn
	stx     tmp1
	ora     tmp1
	beq     L60D2
;
; show_message(message278);
;
	lda     #<(_message278)
	ldx     #>(_message278)
	jsr     _show_message
;
; goto return1;
;
	jmp     L5B96
;
; if(cvn(70,252)) {
;
L60D2:	lda     #$46
	jsr     pusha0
	lda     #$FC
	jsr     _cvn
	stx     tmp1
	ora     tmp1
	beq     L60D8
;
; show_message(message368);
;
	lda     #<(_message368)
	ldx     #>(_message368)
	jsr     _show_message
;
; goto return1;
;
	jmp     L5B96
;
; if(cvn(70,254)) {
;
L60D8:	lda     #$46
	jsr     pusha0
	lda     #$FE
	jsr     _cvn
	stx     tmp1
	ora     tmp1
	beq     L60DE
;
; show_message(message369);
;
	lda     #<(_message369)
	ldx     #>(_message369)
	jsr     _show_message
;
; goto return1;
;
	jmp     L5B96
;
; if(cvn(208,250)) {
;
L60DE:	lda     #$D0
	jsr     pusha0
	lda     #$FA
	jsr     _cvn
	stx     tmp1
	ora     tmp1
	beq     L60E4
;
; show_message(message278);
;
	lda     #<(_message278)
	ldx     #>(_message278)
	jsr     _show_message
;
; goto return1;
;
	jmp     L5B96
;
; if(cvn(70,251)) {
;
L60E4:	lda     #$46
	jsr     pusha0
	lda     #$FB
	jsr     _cvn
	stx     tmp1
	ora     tmp1
	beq     L60EA
;
; show_message(message370);
;
	lda     #<(_message370)
	ldx     #>(_message370)
	jsr     _show_message
;
; goto return1;
;
	jmp     L5B96
;
; if(cvn(70,253)) {
;
L60EA:	lda     #$46
	jsr     pusha0
	lda     #$FD
	jsr     _cvn
	stx     tmp1
	ora     tmp1
	beq     L60F0
;
; show_message(message371);
;
	lda     #<(_message371)
	ldx     #>(_message371)
	jsr     _show_message
;
; goto return1;
;
	jmp     L5B96
;
; if(noun1==255||noun1==256) if(verb==70) {
;
L60F0:	lda     _noun1+1
	bne     L6C7C
	lda     _noun1
	cmp     #$FF
	beq     L60F7
L6C7C:	lda     _noun1+1
	cmp     #$01
	bne     L6C7D
	lda     _noun1
	beq     L60F7
L6C7D:	jmp     L6C20
L60F7:	lda     _verb+1
	bne     L6C20
	lda     _verb
	cmp     #$46
	bne     L6C20
;
; show_message(message278);
;
	lda     #<(_message278)
	ldx     #>(_message278)
	jsr     _show_message
;
; goto return1;
;
	jmp     L5B96
;
; if(cvn(70,257)) {
;
L6C20:	lda     #$46
	jsr     pusha0
	ldx     #$01
	txa
	jsr     _cvn
	stx     tmp1
	ora     tmp1
	beq     L6100
;
; show_message(message372);
;
	lda     #<(_message372)
	ldx     #>(_message372)
	jsr     _show_message
;
; goto return1;
;
	jmp     L5B96
;
; if(cvn(70,258)) {
;
L6100:	lda     #$46
	jsr     pusha0
	ldx     #$01
	lda     #$02
	jsr     _cvn
	stx     tmp1
	ora     tmp1
	beq     L6106
;
; show_message(message373);
;
	lda     #<(_message373)
	ldx     #>(_message373)
	jsr     _show_message
;
; goto return1;
;
	jmp     L5B96
;
; if(noun1==259||noun1==252) if(verb==70) {
;
L6106:	lda     _noun1+1
	cmp     #$01
	bne     L6C7E
	lda     _noun1
	cmp     #$03
	beq     L610D
L6C7E:	lda     _noun1+1
	bne     L6C7F
	lda     _noun1
	cmp     #$FC
	beq     L610D
L6C7F:	jmp     L6C21
L610D:	lda     _verb+1
	bne     L6C21
	lda     _verb
	cmp     #$46
	bne     L6C21
;
; show_message(message278);
;
	lda     #<(_message278)
	ldx     #>(_message278)
	jsr     _show_message
;
; goto return1;
;
	jmp     L5B96
;
; if(cvn(70,261)) {
;
L6C21:	lda     #$46
	jsr     pusha0
	ldx     #$01
	lda     #$05
	jsr     _cvn
	stx     tmp1
	ora     tmp1
	beq     L6116
;
; show_message(message278);
;
	lda     #<(_message278)
	ldx     #>(_message278)
	jsr     _show_message
;
; goto return1;
;
	jmp     L5B96
;
; if(cvn(70,296)) {
;
L6116:	lda     #$46
	jsr     pusha0
	ldx     #$01
	lda     #$28
	jsr     _cvn
	stx     tmp1
	ora     tmp1
	beq     L611C
;
; show_message(message278);
;
	lda     #<(_message278)
	ldx     #>(_message278)
	jsr     _show_message
;
; goto return1;
;
	jmp     L5B96
;
; if(cvn(70,261)) {
;
L611C:	lda     #$46
	jsr     pusha0
	ldx     #$01
	lda     #$05
	jsr     _cvn
	stx     tmp1
	ora     tmp1
	beq     L6122
;
; show_message(message374);
;
	lda     #<(_message374)
	ldx     #>(_message374)
	jsr     _show_message
;
; goto return1;
;
	jmp     L5B96
;
; if(cvn(70,263)) {
;
L6122:	lda     #$46
	jsr     pusha0
	ldx     #$01
	lda     #$07
	jsr     _cvn
	stx     tmp1
	ora     tmp1
	beq     L6128
;
; show_message(message322);
;
	lda     #<(_message322)
	ldx     #>(_message322)
	jsr     _show_message
;
; goto return1;
;
	jmp     L5B96
;
; if(cvn(70,264)) {
;
L6128:	lda     #$46
	jsr     pusha0
	ldx     #$01
	lda     #$08
	jsr     _cvn
	stx     tmp1
	ora     tmp1
	beq     L612E
;
; show_message(message375);
;
	lda     #<(_message375)
	ldx     #>(_message375)
	jsr     _show_message
;
; goto return1;
;
	jmp     L5B96
;
; if(cvn(70,5)) {
;
L612E:	lda     #$46
	jsr     pusha0
	lda     #$05
	jsr     _cvn
	stx     tmp1
	ora     tmp1
	beq     L6134
;
; show_message(message278);
;
	lda     #<(_message278)
	ldx     #>(_message278)
	jsr     _show_message
;
; goto return1;
;
	jmp     L5B96
;
; if(cvn(70,25)) {
;
L6134:	lda     #$46
	jsr     pusha0
	lda     #$19
	jsr     _cvn
	stx     tmp1
	ora     tmp1
	beq     L613A
;
; show_message(message1009);
;
	lda     #<(_message1009)
	ldx     #>(_message1009)
	jsr     _show_message
;
; goto return1;
;
	jmp     L5B96
;
; if(cvn(70,273)) {
;
L613A:	lda     #$46
	jsr     pusha0
	ldx     #$01
	lda     #$11
	jsr     _cvn
	stx     tmp1
	ora     tmp1
	beq     L6140
;
; show_message(message106);
;
	lda     #<(_message106)
	ldx     #>(_message106)
	jsr     _show_message
;
; goto return1;
;
	jmp     L5B96
;
; if(cvn(70,265)) {
;
L6140:	lda     #$46
	jsr     pusha0
	ldx     #$01
	lda     #$09
	jsr     _cvn
	stx     tmp1
	ora     tmp1
	beq     L6146
;
; show_message(message388);
;
	lda     #<(_message388)
	ldx     #>(_message388)
	jsr     _show_message
;
; goto return1;
;
	jmp     L5B96
;
; if(cvn(70,266)) {
;
L6146:	lda     #$46
	jsr     pusha0
	ldx     #$01
	lda     #$0A
	jsr     _cvn
	stx     tmp1
	ora     tmp1
	beq     L614C
;
; show_message(message389);
;
	lda     #<(_message389)
	ldx     #>(_message389)
	jsr     _show_message
;
; goto return1;
;
	jmp     L5B96
;
; if(cvn(70,267)) {
;
L614C:	lda     #$46
	jsr     pusha0
	ldx     #$01
	lda     #$0B
	jsr     _cvn
	stx     tmp1
	ora     tmp1
	beq     L6152
;
; show_message(message390);
;
	lda     #<(_message390)
	ldx     #>(_message390)
	jsr     _show_message
;
; goto return1;
;
	jmp     L5B96
;
; if(cvn(70,268)) {
;
L6152:	lda     #$46
	jsr     pusha0
	ldx     #$01
	lda     #$0C
	jsr     _cvn
	stx     tmp1
	ora     tmp1
	beq     L6158
;
; show_message(message376);
;
	lda     #<(_message376)
	ldx     #>(_message376)
	jsr     _show_message
;
; goto return1;
;
	jmp     L5B96
;
; if(cvn(70,24)) {
;
L6158:	lda     #$46
	jsr     pusha0
	lda     #$18
	jsr     _cvn
	stx     tmp1
	ora     tmp1
	beq     L615E
;
; show_message(message278);
;
	lda     #<(_message278)
	ldx     #>(_message278)
	jsr     _show_message
;
; goto return1;
;
	jmp     L5B96
;
; if(cvn(70,269)) {
;
L615E:	lda     #$46
	jsr     pusha0
	ldx     #$01
	lda     #$0D
	jsr     _cvn
	stx     tmp1
	ora     tmp1
	beq     L6164
;
; show_message(message278);
;
	lda     #<(_message278)
	ldx     #>(_message278)
	jsr     _show_message
;
; goto return1;
;
	jmp     L5B96
;
; if(cvn(70,270)) {
;
L6164:	lda     #$46
	jsr     pusha0
	ldx     #$01
	lda     #$0E
	jsr     _cvn
	stx     tmp1
	ora     tmp1
	beq     L616A
;
; show_message(message377);
;
	lda     #<(_message377)
	ldx     #>(_message377)
	jsr     _show_message
;
; goto return1;
;
	jmp     L5B96
;
; if(cvn(70,271)) {
;
L616A:	lda     #$46
	jsr     pusha0
	ldx     #$01
	lda     #$0F
	jsr     _cvn
	stx     tmp1
	ora     tmp1
	beq     L6170
;
; show_message(message106);
;
	lda     #<(_message106)
	ldx     #>(_message106)
	jsr     _show_message
;
; goto return1;
;
	jmp     L5B96
;
; if(cvn(70,274)) {
;
L6170:	lda     #$46
	jsr     pusha0
	ldx     #$01
	lda     #$12
	jsr     _cvn
	stx     tmp1
	ora     tmp1
	beq     L6176
;
; show_message(message378);
;
	lda     #<(_message378)
	ldx     #>(_message378)
	jsr     _show_message
;
; goto return1;
;
	jmp     L5B96
;
; if(cvn(70,404)) {
;
L6176:	lda     #$46
	jsr     pusha0
	ldx     #$01
	lda     #$94
	jsr     _cvn
	stx     tmp1
	ora     tmp1
	beq     L617C
;
; show_message(message278);
;
	lda     #<(_message278)
	ldx     #>(_message278)
	jsr     _show_message
;
; goto return1;
;
	jmp     L5B96
;
; if(cvn(70,409)) {
;
L617C:	lda     #$46
	jsr     pusha0
	ldx     #$01
	lda     #$99
	jsr     _cvn
	stx     tmp1
	ora     tmp1
	beq     L6182
;
; show_message(message278);
;
	lda     #<(_message278)
	ldx     #>(_message278)
	jsr     _show_message
;
; goto return1;
;
	jmp     L5B96
;
; if(cvn(70,298)) {
;
L6182:	lda     #$46
	jsr     pusha0
	ldx     #$01
	lda     #$2A
	jsr     _cvn
	stx     tmp1
	ora     tmp1
	beq     L6188
;
; show_message(message106);
;
	lda     #<(_message106)
	ldx     #>(_message106)
	jsr     _show_message
;
; goto return1;
;
	jmp     L5B96
;
; if(cvn(70,28)) {
;
L6188:	lda     #$46
	jsr     pusha0
	lda     #$1C
	jsr     _cvn
	stx     tmp1
	ora     tmp1
	beq     L618E
;
; show_message(message278);
;
	lda     #<(_message278)
	ldx     #>(_message278)
	jsr     _show_message
;
; goto return1;
;
	jmp     L5B96
;
; if(cvn(70,62)) {
;
L618E:	lda     #$46
	jsr     pusha0
	lda     #$3E
	jsr     _cvn
	stx     tmp1
	ora     tmp1
	beq     L6194
;
; show_message(message278);
;
	lda     #<(_message278)
	ldx     #>(_message278)
	jsr     _show_message
;
; goto return1;
;
	jmp     L5B96
;
; if(noun1==25||noun1==272) if(verb==70) {
;
L6194:	lda     _noun1+1
	bne     L6C80
	lda     _noun1
	cmp     #$19
	beq     L619B
L6C80:	lda     _noun1+1
	cmp     #$01
	bne     L6C81
	lda     _noun1
	cmp     #$10
	beq     L619B
L6C81:	jmp     L6C22
L619B:	lda     _verb+1
	bne     L6C22
	lda     _verb
	cmp     #$46
	bne     L6C22
;
; show_message(message253);
;
	lda     #<(_message253)
	ldx     #>(_message253)
	jsr     _show_message
;
; goto return1;
;
	jmp     L5B96
;
; if(cvn(70,297)) {
;
L6C22:	lda     #$46
	jsr     pusha0
	ldx     #$01
	lda     #$29
	jsr     _cvn
	stx     tmp1
	ora     tmp1
	beq     L61A4
;
; show_message(message379);
;
	lda     #<(_message379)
	ldx     #>(_message379)
	jsr     _show_message
;
; goto return1;
;
	jmp     L5B96
;
; if(cvn(70,260)) {
;
L61A4:	lda     #$46
	jsr     pusha0
	ldx     #$01
	lda     #$04
	jsr     _cvn
	stx     tmp1
	ora     tmp1
	beq     L61AA
;
; show_message(message278);
;
	lda     #<(_message278)
	ldx     #>(_message278)
	jsr     _show_message
;
; goto return1;
;
	jmp     L5B96
;
; if(cvn(70,23)) {
;
L61AA:	lda     #$46
	jsr     pusha0
	lda     #$17
	jsr     _cvn
	stx     tmp1
	ora     tmp1
	beq     L61B0
;
; show_message(message1009);
;
	lda     #<(_message1009)
	ldx     #>(_message1009)
	jsr     _show_message
;
; goto return1;
;
	jmp     L5B96
;
; if(cvn(70,276)) {
;
L61B0:	lda     #$46
	jsr     pusha0
	ldx     #$01
	lda     #$14
	jsr     _cvn
	stx     tmp1
	ora     tmp1
	beq     L61B6
;
; show_message(message322);
;
	lda     #<(_message322)
	ldx     #>(_message322)
	jsr     _show_message
;
; goto return1;
;
	jmp     L5B96
;
; if(cvn(70,500)) {
;
L61B6:	lda     #$46
	jsr     pusha0
	ldx     #$01
	lda     #$F4
	jsr     _cvn
	stx     tmp1
	ora     tmp1
	beq     L61BC
;
; show_message(message278);
;
	lda     #<(_message278)
	ldx     #>(_message278)
	jsr     _show_message
;
; goto return1;
;
	jmp     L5B96
;
; if(cvn(70,277)) {
;
L61BC:	lda     #$46
	jsr     pusha0
	ldx     #$01
	lda     #$15
	jsr     _cvn
	stx     tmp1
	ora     tmp1
	beq     L61C2
;
; show_message(message323);
;
	lda     #<(_message323)
	ldx     #>(_message323)
	jsr     _show_message
;
; goto return1;
;
	jmp     L5B96
;
; if(cvn(70,278)) {
;
L61C2:	lda     #$46
	jsr     pusha0
	ldx     #$01
	lda     #$16
	jsr     _cvn
	stx     tmp1
	ora     tmp1
	beq     L61C8
;
; show_message(message278);
;
	lda     #<(_message278)
	ldx     #>(_message278)
	jsr     _show_message
;
; goto return1;
;
	jmp     L5B96
;
; if(cvn(70,299)) {
;
L61C8:	lda     #$46
	jsr     pusha0
	ldx     #$01
	lda     #$2B
	jsr     _cvn
	stx     tmp1
	ora     tmp1
	beq     L61CE
;
; show_message(message379);
;
	lda     #<(_message379)
	ldx     #>(_message379)
	jsr     _show_message
;
; goto return1;
;
	jmp     L5B96
;
; if(cvn(70,279)) {
;
L61CE:	lda     #$46
	jsr     pusha0
	ldx     #$01
	lda     #$17
	jsr     _cvn
	stx     tmp1
	ora     tmp1
	beq     L61D4
;
; show_message(message278);
;
	lda     #<(_message278)
	ldx     #>(_message278)
	jsr     _show_message
;
; goto return1;
;
	jmp     L5B96
;
; if(cvn(70,19)) {
;
L61D4:	lda     #$46
	jsr     pusha0
	lda     #$13
	jsr     _cvn
	stx     tmp1
	ora     tmp1
	beq     L61DA
;
; show_message(message278);
;
	lda     #<(_message278)
	ldx     #>(_message278)
	jsr     _show_message
;
; goto return1;
;
	jmp     L5B96
;
; if(cvn(70,408)) {
;
L61DA:	lda     #$46
	jsr     pusha0
	ldx     #$01
	lda     #$98
	jsr     _cvn
	stx     tmp1
	ora     tmp1
	beq     L61E0
;
; show_message(message278);
;
	lda     #<(_message278)
	ldx     #>(_message278)
	jsr     _show_message
;
; goto return1;
;
	jmp     L5B96
;
; if(cvn(70,300)) {
;
L61E0:	lda     #$46
	jsr     pusha0
	ldx     #$01
	lda     #$2C
	jsr     _cvn
	stx     tmp1
	ora     tmp1
	beq     L61E6
;
; show_message(message278);
;
	lda     #<(_message278)
	ldx     #>(_message278)
	jsr     _show_message
;
; goto return1;
;
	jmp     L5B96
;
; if(cvn(70,281)) {
;
L61E6:	lda     #$46
	jsr     pusha0
	ldx     #$01
	lda     #$19
	jsr     _cvn
	stx     tmp1
	ora     tmp1
	beq     L61EC
;
; show_message(message278);
;
	lda     #<(_message278)
	ldx     #>(_message278)
	jsr     _show_message
;
; goto return1;
;
	jmp     L5B96
;
; if(cvn(50,281)) {
;
L61EC:	lda     #$32
	jsr     pusha0
	ldx     #$01
	lda     #$19
	jsr     _cvn
	stx     tmp1
	ora     tmp1
	beq     L61F2
;
; show_message(message278);
;
	lda     #<(_message278)
	ldx     #>(_message278)
	jsr     _show_message
;
; goto return1;
;
	jmp     L5B96
;
; if(cvn(70,282)) {
;
L61F2:	lda     #$46
	jsr     pusha0
	ldx     #$01
	lda     #$1A
	jsr     _cvn
	stx     tmp1
	ora     tmp1
	beq     L61F8
;
; show_message(message322);
;
	lda     #<(_message322)
	ldx     #>(_message322)
	jsr     _show_message
;
; goto return1;
;
	jmp     L5B96
;
; if(noun1==283||noun1==284) if(verb==70) {
;
L61F8:	lda     _noun1+1
	cmp     #$01
	bne     L6C82
	lda     _noun1
	cmp     #$1B
	beq     L61FF
L6C82:	lda     _noun1+1
	cmp     #$01
	bne     L6C83
	lda     _noun1
	cmp     #$1C
	beq     L61FF
L6C83:	jmp     L6203
L61FF:	lda     _verb+1
	bne     L6203
	lda     _verb
	cmp     #$46
	bne     L6203
;
; show_message(message278);
;
	lda     #<(_message278)
	ldx     #>(_message278)
	jsr     _show_message
;
; goto return1;
;
	jmp     L5B96
;
; if(noun1==285||noun1==286) if(verb==70) {
;
L6203:	lda     _noun1+1
	cmp     #$01
	bne     L6C84
	lda     _noun1
	cmp     #$1D
	beq     L6C23
L6C84:	lda     _noun1+1
	cmp     #$01
	bne     L6C24
	lda     _noun1
	cmp     #$1E
	bne     L6C24
L6C23:	lda     _verb+1
	bne     L6C24
	lda     _verb
	cmp     #$46
	bne     L6C24
;
; show_message(message278);
;
	lda     #<(_message278)
	ldx     #>(_message278)
	jsr     _show_message
;
; goto return1;
;
	jmp     L5B96
;
; if(cvn(70,8)) {
;
L6C24:	lda     #$46
	jsr     pusha0
	lda     #$08
	jsr     _cvn
	stx     tmp1
	ora     tmp1
	beq     L6212
;
; show_message(message380);
;
	lda     #<(_message380)
	ldx     #>(_message380)
	jsr     _show_message
;
; goto return1;
;
	jmp     L5B96
;
; if(cvn(70,287)) {
;
L6212:	lda     #$46
	jsr     pusha0
	ldx     #$01
	lda     #$1F
	jsr     _cvn
	stx     tmp1
	ora     tmp1
	beq     L6218
;
; show_message(message381);
;
	lda     #<(_message381)
	ldx     #>(_message381)
	jsr     _show_message
;
; goto return1;
;
	jmp     L5B96
;
; if(cvn(70,10)) {
;
L6218:	lda     #$46
	jsr     pusha0
	lda     #$0A
	jsr     _cvn
	stx     tmp1
	ora     tmp1
	beq     L621E
;
; show_message(message382);
;
	lda     #<(_message382)
	ldx     #>(_message382)
	jsr     _show_message
;
; goto return1;
;
	jmp     L5B96
;
; if(cvn(70,288)) {
;
L621E:	lda     #$46
	jsr     pusha0
	ldx     #$01
	lda     #$20
	jsr     _cvn
	stx     tmp1
	ora     tmp1
	beq     L6224
;
; show_message(message322);
;
	lda     #<(_message322)
	ldx     #>(_message322)
	jsr     _show_message
;
; goto return1;
;
	jmp     L5B96
;
; if(cvn(70,289)) {
;
L6224:	lda     #$46
	jsr     pusha0
	ldx     #$01
	lda     #$21
	jsr     _cvn
	stx     tmp1
	ora     tmp1
	beq     L622A
;
; show_message(message106);
;
	lda     #<(_message106)
	ldx     #>(_message106)
	jsr     _show_message
;
; goto return1;
;
	jmp     L5B96
;
; if(cvn(70,290)) {
;
L622A:	lda     #$46
	jsr     pusha0
	ldx     #$01
	lda     #$22
	jsr     _cvn
	stx     tmp1
	ora     tmp1
	beq     L6230
;
; show_message(message383);
;
	lda     #<(_message383)
	ldx     #>(_message383)
	jsr     _show_message
;
; goto return1;
;
	jmp     L5B96
;
; if(cvn(70,291)) {
;
L6230:	lda     #$46
	jsr     pusha0
	ldx     #$01
	lda     #$23
	jsr     _cvn
	stx     tmp1
	ora     tmp1
	beq     L6236
;
; show_message(message322);
;
	lda     #<(_message322)
	ldx     #>(_message322)
	jsr     _show_message
;
; goto return1;
;
	jmp     L5B96
;
; if(cvn(70,160)) {
;
L6236:	lda     #$46
	jsr     pusha0
	lda     #$A0
	jsr     _cvn
	stx     tmp1
	ora     tmp1
	beq     L623C
;
; show_message(message278);
;
	lda     #<(_message278)
	ldx     #>(_message278)
	jsr     _show_message
;
; goto return1;
;
	jmp     L5B96
;
; if(cvn(70,162)) {
;
L623C:	lda     #$46
	jsr     pusha0
	lda     #$A2
	jsr     _cvn
	stx     tmp1
	ora     tmp1
	beq     L6242
;
; show_message(message278);
;
	lda     #<(_message278)
	ldx     #>(_message278)
	jsr     _show_message
;
; goto return1;
;
	jmp     L5B96
;
; if(cvn(70,292)) {
;
L6242:	lda     #$46
	jsr     pusha0
	ldx     #$01
	lda     #$24
	jsr     _cvn
	stx     tmp1
	ora     tmp1
	beq     L6248
;
; show_message(message384);
;
	lda     #<(_message384)
	ldx     #>(_message384)
	jsr     _show_message
;
; goto return1;
;
	jmp     L5B96
;
; if(cvn(70,293)) {
;
L6248:	lda     #$46
	jsr     pusha0
	ldx     #$01
	lda     #$25
	jsr     _cvn
	stx     tmp1
	ora     tmp1
	beq     L624E
;
; show_message(message385);
;
	lda     #<(_message385)
	ldx     #>(_message385)
	jsr     _show_message
;
; goto return1;
;
	jmp     L5B96
;
; if(cvn(70,301)) {
;
L624E:	lda     #$46
	jsr     pusha0
	ldx     #$01
	lda     #$2D
	jsr     _cvn
	stx     tmp1
	ora     tmp1
	beq     L6254
;
; show_message(message386);
;
	lda     #<(_message386)
	ldx     #>(_message386)
	jsr     _show_message
;
; goto return1;
;
	jmp     L5B96
;
; if(cvn(70,270)) {
;
L6254:	lda     #$46
	jsr     pusha0
	ldx     #$01
	lda     #$0E
	jsr     _cvn
	stx     tmp1
	ora     tmp1
	beq     L625A
;
; show_message(message387);
;
	lda     #<(_message387)
	ldx     #>(_message387)
	jsr     _show_message
;
; goto return1;
;
	jmp     L5B96
;
; if(noun1==2||noun1==161) if(verb==70) {
;
L625A:	lda     _noun1+1
	bne     L6C86
	lda     _noun1
	cmp     #$02
	beq     L6261
L6C86:	lda     _noun1+1
	bne     L6C87
	lda     _noun1
	cmp     #$A1
	beq     L6261
L6C87:	jmp     L6C25
L6261:	lda     _verb+1
	bne     L6C25
	lda     _verb
	cmp     #$46
	bne     L6C25
;
; show_message(message278);
;
	lda     #<(_message278)
	ldx     #>(_message278)
	jsr     _show_message
;
; goto return1;
;
	jmp     L5B96
;
; if(cvn(70,263)) {
;
L6C25:	lda     #$46
	jsr     pusha0
	ldx     #$01
	lda     #$07
	jsr     _cvn
	stx     tmp1
	ora     tmp1
	beq     L626A
;
; show_message(message322);
;
	lda     #<(_message322)
	ldx     #>(_message322)
	jsr     _show_message
;
; goto return1;
;
	jmp     L5B96
;
; if(cvn(70,295)) {
;
L626A:	lda     #$46
	jsr     pusha0
	ldx     #$01
	lda     #$27
	jsr     _cvn
	stx     tmp1
	ora     tmp1
	beq     L6270
;
; show_message(message278);
;
	lda     #<(_message278)
	ldx     #>(_message278)
	jsr     _show_message
;
; goto return1;
;
	jmp     L5B96
;
; if(cvn(70,61)) {
;
L6270:	lda     #$46
	jsr     pusha0
	lda     #$3D
	jsr     _cvn
	stx     tmp1
	ora     tmp1
	beq     L6276
;
; show_message(message106);
;
	lda     #<(_message106)
	ldx     #>(_message106)
	jsr     _show_message
;
; goto return1;
;
	jmp     L5B96
;
; if(cvn(70,302)) {
;
L6276:	lda     #$46
	jsr     pusha0
	ldx     #$01
	lda     #$2E
	jsr     _cvn
	stx     tmp1
	ora     tmp1
	beq     L627C
;
; show_message(message278);
;
	lda     #<(_message278)
	ldx     #>(_message278)
	jsr     _show_message
;
; goto return1;
;
	jmp     L5B96
;
; if(cvn(405,404)) {
;
L627C:	ldx     #$01
	lda     #$95
	jsr     pushax
	lda     #$94
	jsr     _cvn
	stx     tmp1
	ora     tmp1
	beq     L6282
;
; show_message(message278);
;
	lda     #<(_message278)
	ldx     #>(_message278)
	jsr     _show_message
;
; goto return1;
;
	jmp     L5B96
;
; if(cvn(405,108)) {
;
L6282:	ldx     #$01
	lda     #$95
	jsr     pushax
	dex
	lda     #$6C
	jsr     _cvn
	stx     tmp1
	ora     tmp1
	beq     L6288
;
; show_message(message394);
;
	lda     #<(_message394)
	ldx     #>(_message394)
	jsr     _show_message
;
; goto return1;
;
	jmp     L5B96
;
; if(verb==111||verb==220) if(noun1==18) if(current_position!=10) {
;
L6288:	lda     _verb+1
	bne     L6C88
	lda     _verb
	cmp     #$6F
	beq     L628F
L6C88:	lda     _verb+1
	bne     L6C89
	lda     _verb
	cmp     #$DC
	beq     L628F
L6C89:	jmp     L6296
L628F:	lda     _noun1+1
	bne     L6296
	lda     _noun1
	cmp     #$12
	bne     L6296
	lda     _current_position+1
	bne     L6C8A
	lda     _current_position
	cmp     #$0A
	beq     L6296
;
; show_message(message172);
;
L6C8A:	lda     #<(_message172)
	ldx     #>(_message172)
	jsr     _show_message
;
; goto return1;
;
	jmp     L5B96
;
; if(verb==111||verb==220) if(noun1==18) if(current_position!=12) {
;
L6296:	lda     _verb+1
	bne     L6C8B
	lda     _verb
	cmp     #$6F
	beq     L6C26
L6C8B:	lda     _verb+1
	bne     L6C27
	lda     _verb
	cmp     #$DC
	bne     L6C27
L6C26:	lda     _noun1+1
	bne     L6C27
	lda     _noun1
	cmp     #$12
	bne     L6C27
	lda     _current_position+1
	bne     L6C8D
	lda     _current_position
	cmp     #$0C
	beq     L6C27
;
; show_message(message172);
;
L6C8D:	lda     #<(_message172)
	ldx     #>(_message172)
	jsr     _show_message
;
; goto return1;
;
	jmp     L5B96
;
; if(cvna(211,14,14)) {
;
L6C27:	lda     #$D3
	jsr     pusha0
	lda     #$0E
	jsr     pusha0
	jsr     _cvna
	stx     tmp1
	ora     tmp1
	beq     L62A8
;
; show_message(message531);
;
	lda     #<(_message531)
	ldx     #>(_message531)
	jsr     _show_message
;
; hold(2);
;
	ldx     #$00
	lda     #$02
	jsr     _hold
;
; show_message(message532);
;
	lda     #<(_message532)
	ldx     #>(_message532)
	jsr     _show_message
;
; hold(2);
;
	ldx     #$00
	lda     #$02
	jsr     _hold
;
; show_message(message533);
;
	lda     #<(_message533)
	ldx     #>(_message533)
	jsr     _show_message
;
; set_object_position(14,0);
;
	lda     #$0E
	jsr     pusha0
	lda     #$00
	jsr     _set_object_position
;
; goto return1;
;
	jmp     L5B96
;
; if(cvn(211,14)) {
;
L62A8:	lda     #$D3
	jsr     pusha0
	lda     #$0E
	jsr     _cvn
	stx     tmp1
	ora     tmp1
	beq     L62BA
;
; show_message(message534);
;
	lda     #<(_message534)
	ldx     #>(_message534)
	jsr     _show_message
;
; goto return1;
;
	jmp     L5B96
;
; if(object_is_here(101)||object_is_here(102)) if(cvn(70,96)) {
;
L62BA:	tax
	lda     #$65
	jsr     _object_is_here
	tax
	bne     L62C1
	lda     #$66
	jsr     _object_is_here
	tax
	beq     L6C28
L62C1:	lda     #$46
	jsr     pusha0
	lda     #$60
	jsr     _cvn
	stx     tmp1
	ora     tmp1
	beq     L6C28
;
; show_message(message537);
;
	lda     #<(_message537)
	ldx     #>(_message537)
	jsr     _show_message
;
; goto return1;
;
	jmp     L5B96
;
; if(cvn(70,96)) {
;
L6C28:	lda     #$46
	jsr     pusha0
	lda     #$60
	jsr     _cvn
	stx     tmp1
	ora     tmp1
	beq     L62CB
;
; show_message(message536);
;
	lda     #<(_message536)
	ldx     #>(_message536)
	jsr     _show_message
;
; goto return1;
;
	jmp     L5B96
;
; return 0;
;
L62CB:	tax
	rts
;
; return1: return 1;
;
L5B96:	ldx     #$00
L6C29:	lda     #$01
;
; }
;
	rts

.endproc

; ---------------------------------------------------------------
; unsigned int __near__ local_cond (void)
; ---------------------------------------------------------------

.segment	"CODE"

.proc	_local_cond: near

.segment	"CODE"

;
; switch(current_position) {
;
	lda     _current_position
	ldx     _current_position+1
;
; }
;
	cpx     #$00
	jne     L62D6
	cmp     #$01
	jeq     L6C92
	cmp     #$02
	jeq     L6C93
	cmp     #$03
	jeq     L6C94
	cmp     #$04
	jeq     L6C95
	cmp     #$05
	jeq     L6C96
	cmp     #$06
	jeq     L6C97
	cmp     #$07
	jeq     L6C98
	cmp     #$08
	jeq     L6C99
	cmp     #$09
	jeq     L6C9A
	cmp     #$0A
	jeq     L6C9B
	cmp     #$0B
	jeq     L6C9E
	cmp     #$0C
	jeq     L6C9F
	cmp     #$0D
	jeq     L6CA0
	cmp     #$0E
	jeq     L6CA9
	cmp     #$0F
	jeq     L648D
	cmp     #$10
	jeq     L6CAD
	cmp     #$11
	jeq     L64E8
	cmp     #$12
	jeq     L6CB0
	cmp     #$13
	jeq     L6CB1
	cmp     #$14
	jeq     L6CB2
	cmp     #$15
	jeq     L65A1
	cmp     #$16
	jeq     L6CBB
	cmp     #$17
	jeq     L65D3
	cmp     #$18
	jeq     L6CBE
	cmp     #$19
	jeq     L6CBF
	cmp     #$1A
	jeq     L6CD0
	cmp     #$1B
	jeq     L678B
	cmp     #$1C
	jeq     L6CDD
	cmp     #$1D
	jeq     L6CE4
	cmp     #$1E
	jeq     L6CE5
	cmp     #$1F
	jeq     L6CE9
	cmp     #$20
	jeq     L6CEA
	cmp     #$21
	jeq     L6CEB
	cmp     #$22
	jeq     L6CF0
	cmp     #$23
	jeq     L6CF4
	cmp     #$24
	jeq     L6CF5
	cmp     #$28
	jeq     L6CF6
	cmp     #$29
	jeq     L6AA9
	jmp     L6CFF
;
; if(cvn(70,250)) {
;
L6C92:	lda     #$46
	jsr     pusha0
	lda     #$FA
	jsr     _cvn
	stx     tmp1
	ora     tmp1
	beq     L62D9
;
; show_message(message310);
;
	lda     #<(_message310)
	ldx     #>(_message310)
	jsr     _show_message
;
; goto return1;
;
	jmp     L62DF
;
; if(cvn(70,252)) {
;
L62D9:	lda     #$46
	jsr     pusha0
	lda     #$FC
	jsr     _cvn
	stx     tmp1
	ora     tmp1
	beq     L62E0
;
; show_message(message315);
;
	lda     #<(_message315)
	ldx     #>(_message315)
	jsr     _show_message
;
; goto return1;
;
	jmp     L62DF
;
; if(cvn(70,254)) {
;
L62E0:	lda     #$46
	jsr     pusha0
	lda     #$FE
	jsr     _cvn
	stx     tmp1
	ora     tmp1
	beq     L62E6
;
; show_message(message313);
;
	lda     #<(_message313)
	ldx     #>(_message313)
	jsr     _show_message
;
; goto return1;
;
	jmp     L62DF
;
; if(cvn(208,250)) {
;
L62E6:	lda     #$D0
	jsr     pusha0
	lda     #$FA
	jsr     _cvn
	stx     tmp1
	ora     tmp1
	beq     L62EC
;
; show_message(message311);
;
	lda     #<(_message311)
	ldx     #>(_message311)
	jsr     _show_message
;
; goto return1;
;
	jmp     L62DF
;
; if(cvn(70,251)) {
;
L62EC:	lda     #$46
	jsr     pusha0
	lda     #$FB
	jsr     _cvn
	stx     tmp1
	ora     tmp1
	jeq     L62D6
;
; show_message(message312);
;
	lda     #<(_message312)
	ldx     #>(_message312)
	jsr     _show_message
;
; goto return1;
;
	jmp     L62DF
;
; if(cvn(70,251)) {
;
L6C93:	lda     #$46
	jsr     pusha0
	lda     #$FB
	jsr     _cvn
	stx     tmp1
	ora     tmp1
	beq     L62FA
;
; show_message(message312);
;
	lda     #<(_message312)
	ldx     #>(_message312)
	jsr     _show_message
;
; goto return1;
;
	jmp     L62DF
;
; if(cvn(70,253)) {
;
L62FA:	lda     #$46
	jsr     pusha0
	lda     #$FD
	jsr     _cvn
	stx     tmp1
	ora     tmp1
	jeq     L62D6
;
; show_message(message314);
;
	lda     #<(_message314)
	ldx     #>(_message314)
	jsr     _show_message
;
; goto return1;
;
	jmp     L62DF
;
; if(cvn(70,251)) {
;
L6C94:	lda     #$46
	jsr     pusha0
	lda     #$FB
	jsr     _cvn
	stx     tmp1
	ora     tmp1
	beq     L6308
;
; show_message(message312);
;
	lda     #<(_message312)
	ldx     #>(_message312)
	jsr     _show_message
;
; goto return1;
;
	jmp     L62DF
;
; if(cvn(70,253)) {
;
L6308:	lda     #$46
	jsr     pusha0
	lda     #$FD
	jsr     _cvn
	stx     tmp1
	ora     tmp1
	jeq     L62D6
;
; show_message(message314);
;
	lda     #<(_message314)
	ldx     #>(_message314)
	jsr     _show_message
;
; goto return1;
;
	jmp     L62DF
;
; if(cvn(70,251)) {
;
L6C95:	lda     #$46
	jsr     pusha0
	lda     #$FB
	jsr     _cvn
	stx     tmp1
	ora     tmp1
	beq     L6316
;
; show_message(message312);
;
	lda     #<(_message312)
	ldx     #>(_message312)
	jsr     _show_message
;
; goto return1;
;
	jmp     L62DF
;
; if(noun1==255||noun1==256) if(verb==70) {
;
L6316:	lda     _noun1+1
	bne     L6D03
	lda     _noun1
	cmp     #$FF
	beq     L631D
L6D03:	lda     _noun1+1
	cmp     #$01
	jne     L62D6
	lda     _noun1
	jne     L62D6
L631D:	ldx     #$00
	lda     _verb+1
	jne     L6CFF
	lda     _verb
	cmp     #$46
	jne     L6CFF
;
; show_message(message316);
;
	lda     #<(_message316)
	ldx     #>(_message316)
	jsr     _show_message
;
; goto return1;
;
	jmp     L62DF
;
; if(cvn(70,251)) {
;
L6C96:	lda     #$46
	jsr     pusha0
	lda     #$FB
	jsr     _cvn
	stx     tmp1
	ora     tmp1
	beq     L6328
;
; show_message(message312);
;
	lda     #<(_message312)
	ldx     #>(_message312)
	jsr     _show_message
;
; goto return1;
;
	jmp     L62DF
;
; if(noun1==255||noun1==256) if(verb==70) {
;
L6328:	lda     _noun1+1
	bne     L6D05
	lda     _noun1
	cmp     #$FF
	beq     L632F
L6D05:	lda     _noun1+1
	cmp     #$01
	jne     L62D6
	lda     _noun1
	jne     L62D6
L632F:	ldx     #$00
	lda     _verb+1
	jne     L6CFF
	lda     _verb
	cmp     #$46
	jne     L6CFF
;
; show_message(message316);
;
	lda     #<(_message316)
	ldx     #>(_message316)
	jsr     _show_message
;
; goto return1;
;
	jmp     L62DF
;
; if(cvn(70,251)) {
;
L6C97:	lda     #$46
	jsr     pusha0
	lda     #$FB
	jsr     _cvn
	stx     tmp1
	ora     tmp1
	beq     L633A
;
; show_message(message312);
;
	lda     #<(_message312)
	ldx     #>(_message312)
	jsr     _show_message
;
; goto return1;
;
	jmp     L62DF
;
; if(noun1==255||noun1==256) if(verb==70) {
;
L633A:	lda     _noun1+1
	bne     L6D07
	lda     _noun1
	cmp     #$FF
	beq     L6341
L6D07:	lda     _noun1+1
	cmp     #$01
	jne     L62D6
	lda     _noun1
	jne     L62D6
L6341:	ldx     #$00
	lda     _verb+1
	jne     L6CFF
	lda     _verb
	cmp     #$46
	jne     L6CFF
;
; show_message(message316);
;
	lda     #<(_message316)
	ldx     #>(_message316)
	jsr     _show_message
;
; goto return1;
;
	jmp     L62DF
;
; if(cvn(70,251)) {
;
L6C98:	lda     #$46
	jsr     pusha0
	lda     #$FB
	jsr     _cvn
	stx     tmp1
	ora     tmp1
	beq     L634C
;
; show_message(message312);
;
	lda     #<(_message312)
	ldx     #>(_message312)
	jsr     _show_message
;
; goto return1;
;
	jmp     L62DF
;
; if(cvn(70,252)) {
;
L634C:	lda     #$46
	jsr     pusha0
	lda     #$FC
	jsr     _cvn
	stx     tmp1
	ora     tmp1
	jeq     L62D6
;
; show_message(message315);
;
	lda     #<(_message315)
	ldx     #>(_message315)
	jsr     _show_message
;
; goto return1;
;
	jmp     L62DF
;
; if(cvn(70,251)) {
;
L6C99:	lda     #$46
	jsr     pusha0
	lda     #$FB
	jsr     _cvn
	stx     tmp1
	ora     tmp1
	beq     L635A
;
; show_message(message312);
;
	lda     #<(_message312)
	ldx     #>(_message312)
	jsr     _show_message
;
; goto return1;
;
	jmp     L62DF
;
; if(cvn(70,252)) {
;
L635A:	lda     #$46
	jsr     pusha0
	lda     #$FC
	jsr     _cvn
	stx     tmp1
	ora     tmp1
	jeq     L62D6
;
; show_message(message315);
;
	lda     #<(_message315)
	ldx     #>(_message315)
	jsr     _show_message
;
; goto return1;
;
	jmp     L62DF
;
; if(cvn(70,251)) {
;
L6C9A:	lda     #$46
	jsr     pusha0
	lda     #$FB
	jsr     _cvn
	stx     tmp1
	ora     tmp1
	beq     L6368
;
; show_message(message312);
;
	lda     #<(_message312)
	ldx     #>(_message312)
	jsr     _show_message
;
; goto return1;
;
	jmp     L62DF
;
; if(cvn(70,252)) {
;
L6368:	lda     #$46
	jsr     pusha0
	lda     #$FC
	jsr     _cvn
	stx     tmp1
	ora     tmp1
	jeq     L62D6
;
; show_message(message315);
;
	lda     #<(_message315)
	ldx     #>(_message315)
	jsr     _show_message
;
; goto return1;
;
	jmp     L62DF
;
; if(cvn(208,18)) if(marker[7]==false) {
;
L6C9B:	lda     #$D0
	jsr     pusha0
	lda     #$12
	jsr     _cvn
	stx     tmp1
	ora     tmp1
	beq     L637A
	lda     _marker+7
	bne     L637A
;
; show_message(message171);
;
	lda     #<(_message171)
	ldx     #>(_message171)
	jsr     _show_message
;
; goto return1;
;
	jmp     L62DF
;
; if(noun1==8||noun1==18) if(verb==220) if(marker[7]==false) {
;
L637A:	lda     _noun1+1
	bne     L6D09
	lda     _noun1
	cmp     #$08
	beq     L6380
L6D09:	lda     _noun1+1
	bne     L6D0A
	lda     _noun1
	cmp     #$12
	beq     L6380
L6D0A:	jmp     L6387
L6380:	lda     _verb+1
	bne     L6387
	lda     _verb
	cmp     #$DC
	bne     L6387
	lda     _marker+7
	bne     L6387
;
; marker[7]=true;
;
	lda     #$01
	sta     _marker+7
;
; set_object_position(18,current_position);
;
	lda     #$12
	jsr     pusha0
	lda     _current_position
	ldx     _current_position+1
	jsr     _set_object_position
;
; set_object_position(8,current_position);
;
	lda     #$08
	jsr     pusha0
	lda     _current_position
	ldx     _current_position+1
	jsr     _set_object_position
;
; show_message(message1000);
;
	lda     #<(_message1000)
	ldx     #>(_message1000)
	jsr     _show_message
;
; goto return1;
;
	jmp     L62DF
;
; if(noun1==8||noun1==18) if(verb==111) if(marker[7]==false) {
;
L6387:	lda     _noun1+1
	bne     L6D0B
	lda     _noun1
	cmp     #$08
	beq     L6C9C
L6D0B:	lda     _noun1+1
	bne     L6C9D
	lda     _noun1
	cmp     #$12
	bne     L6C9D
L6C9C:	lda     _verb+1
	bne     L6C9D
	lda     _verb
	cmp     #$6F
	bne     L6C9D
	lda     _marker+7
	bne     L6C9D
;
; marker[7]=true;
;
	lda     #$01
	sta     _marker+7
;
; set_object_position(18,current_position);
;
	lda     #$12
	jsr     pusha0
	lda     _current_position
	ldx     _current_position+1
	jsr     _set_object_position
;
; set_object_position(8,current_position);
;
	lda     #$08
	jsr     pusha0
	lda     _current_position
	ldx     _current_position+1
	jsr     _set_object_position
;
; show_message(message1000);
;
	lda     #<(_message1000)
	ldx     #>(_message1000)
	jsr     _show_message
;
; goto return1;
;
	jmp     L62DF
;
; if(cvn(70,257)) {
;
L6C9D:	lda     #$46
	jsr     pusha0
	ldx     #$01
	txa
	jsr     _cvn
	stx     tmp1
	ora     tmp1
	beq     L63AB
;
; show_message(message317);
;
	lda     #<(_message317)
	ldx     #>(_message317)
	jsr     _show_message
;
; goto return1;
;
	jmp     L62DF
;
; if(cvn(70,254)) {
;
L63AB:	lda     #$46
	jsr     pusha0
	lda     #$FE
	jsr     _cvn
	stx     tmp1
	ora     tmp1
	beq     L63B1
;
; show_message(message313);
;
	lda     #<(_message313)
	ldx     #>(_message313)
	jsr     _show_message
;
; goto return1;
;
	jmp     L62DF
;
; if(cvn(70,252)) {
;
L63B1:	lda     #$46
	jsr     pusha0
	lda     #$FC
	jsr     _cvn
	stx     tmp1
	ora     tmp1
	jeq     L62D6
;
; show_message(message315);
;
	lda     #<(_message315)
	ldx     #>(_message315)
	jsr     _show_message
;
; goto return1;
;
	jmp     L62DF
;
; if(cvn(70,257)) {
;
L6C9E:	lda     #$46
	jsr     pusha0
	ldx     #$01
	txa
	jsr     _cvn
	stx     tmp1
	ora     tmp1
	beq     L63BF
;
; show_message(message317);
;
	lda     #<(_message317)
	ldx     #>(_message317)
	jsr     _show_message
;
; goto return1;
;
	jmp     L62DF
;
; if(cvn(70,254)) {
;
L63BF:	lda     #$46
	jsr     pusha0
	lda     #$FE
	jsr     _cvn
	stx     tmp1
	ora     tmp1
	beq     L63C5
;
; show_message(message313);
;
	lda     #<(_message313)
	ldx     #>(_message313)
	jsr     _show_message
;
; goto return1;
;
	jmp     L62DF
;
; if(cvn(70,252)) {
;
L63C5:	lda     #$46
	jsr     pusha0
	lda     #$FC
	jsr     _cvn
	stx     tmp1
	ora     tmp1
	jeq     L62D6
;
; show_message(message315);
;
	lda     #<(_message315)
	ldx     #>(_message315)
	jsr     _show_message
;
; goto return1;
;
	jmp     L62DF
;
; if(cvn(208,18)) {
;
L6C9F:	lda     #$D0
	jsr     pusha0
	lda     #$12
	jsr     _cvn
	stx     tmp1
	ora     tmp1
	beq     L63D3
;
; show_message(message182);
;
	lda     #<(_message182)
	ldx     #>(_message182)
	jsr     _show_message
;
; goto return1;
;
	jmp     L62DF
;
; if(cvn(70,257)) {
;
L63D3:	lda     #$46
	jsr     pusha0
	ldx     #$01
	txa
	jsr     _cvn
	stx     tmp1
	ora     tmp1
	beq     L63D9
;
; show_message(message317);
;
	lda     #<(_message317)
	ldx     #>(_message317)
	jsr     _show_message
;
; goto return1;
;
	jmp     L62DF
;
; if(cvn(70,254)) {
;
L63D9:	lda     #$46
	jsr     pusha0
	lda     #$FE
	jsr     _cvn
	stx     tmp1
	ora     tmp1
	beq     L63DF
;
; show_message(message313);
;
	lda     #<(_message313)
	ldx     #>(_message313)
	jsr     _show_message
;
; goto return1;
;
	jmp     L62DF
;
; if(cvn(70,252)) {
;
L63DF:	lda     #$46
	jsr     pusha0
	lda     #$FC
	jsr     _cvn
	stx     tmp1
	ora     tmp1
	jeq     L62D6
;
; show_message(message315);
;
	lda     #<(_message315)
	ldx     #>(_message315)
	jsr     _show_message
;
; goto return1;
;
	jmp     L62DF
;
; if(cvn(70,5)) {
;
L6CA0:	lda     #$46
	jsr     pusha0
	lda     #$05
	jsr     _cvn
	stx     tmp1
	ora     tmp1
	beq     L63ED
;
; show_message(message514);
;
	lda     #<(_message514)
	ldx     #>(_message514)
	jsr     _show_message
;
; goto return1;
;
	jmp     L62DF
;
; if(verb==70||verb==110) if(noun1==93) {
;
L63ED:	lda     _verb+1
	bne     L6D0D
	lda     _verb
	cmp     #$46
	beq     L63F4
L6D0D:	lda     _verb+1
	bne     L6D0E
	lda     _verb
	cmp     #$6E
	beq     L63F4
L6D0E:	ldx     #$00
	jmp     L63F8
L63F4:	ldx     #$00
	lda     _noun1+1
	bne     L63F8
	lda     _noun1
	cmp     #$5D
	bne     L63F8
;
; show_message(message518);
;
	lda     #<(_message518)
	ldx     #>(_message518)
	jsr     _show_message
;
; goto return1;
;
	jmp     L62DF
;
; if(verb==101||verb==102||verb==103) if(noun1==92) {
;
L63F8:	lda     _verb+1
	bne     L6D0F
	lda     _verb
	cmp     #$65
	beq     L6CA1
L6D0F:	lda     _verb+1
	bne     L6D10
	lda     _verb
	cmp     #$66
	beq     L6CA1
L6D10:	lda     _verb+1
	bne     L6403
	lda     _verb
	cmp     #$67
	bne     L6403
L6CA1:	lda     _noun1+1
	bne     L6403
	lda     _noun1
	cmp     #$5C
	bne     L6403
;
; show_message(message516);
;
	lda     #<(_message516)
	ldx     #>(_message516)
	jsr     _show_message
;
; hold(2);
;
	ldx     #$00
	lda     #$02
	jsr     _hold
;
; show_message(message517);
;
	lda     #<(_message517)
	ldx     #>(_message517)
	jsr     _show_message
;
; marker[5]=true;
;
	lda     #$01
	sta     _marker+5
;
; counter[5]=3;
;
	ldx     #$00
	lda     #$03
	sta     _counter+10
	stx     _counter+10+1
;
; goto return1;
;
	jmp     L6D01
;
; if(verb==101||verb==102||verb==103) if(noun1==91) {
;
L6403:	lda     _verb+1
	bne     L6D12
	lda     _verb
	cmp     #$65
	beq     L6CA2
L6D12:	lda     _verb+1
	bne     L6D13
	lda     _verb
	cmp     #$66
	beq     L6CA2
L6D13:	lda     _verb+1
	bne     L6418
	lda     _verb
	cmp     #$67
	bne     L6418
L6CA2:	lda     _noun1+1
	bne     L6418
	lda     _noun1
	cmp     #$5B
	bne     L6418
;
; show_message(message519);
;
	lda     #<(_message519)
	ldx     #>(_message519)
	jsr     _show_message
;
; goto return1;
;
	jmp     L62DF
;
; if(verb==31) if(marker[5]==true) {
;
L6418:	lda     _verb+1
	bne     L6420
	lda     _verb
	cmp     #$1F
	bne     L6420
	lda     _marker+5
	cmp     #$01
	bne     L6420
;
; jump(15);
;
	lda     #$0F
	jsr     _jump
;
; goto return1;
;
	jmp     L62DF
;
; if(verb==31) {
;
L6420:	lda     _verb+1
	bne     L6425
	lda     _verb
	cmp     #$1F
	bne     L6425
;
; show_message(message137);
;
	lda     #<(_message137)
	ldx     #>(_message137)
	jsr     _show_message
;
; goto return1;
;
	jmp     L62DF
;
; if(verb==100||verb==204||verb==303||verb==0) if(noun1==82) if(marker[5]==true) {
;
L6425:	lda     _verb+1
	bne     L6D15
	lda     _verb
	cmp     #$64
	beq     L6CA3
L6D15:	lda     _verb+1
	bne     L6D16
	lda     _verb
	cmp     #$CC
	beq     L6CA3
L6D16:	lda     _verb+1
	cmp     #$01
	bne     L6D17
	lda     _verb
	cmp     #$2F
	beq     L6CA3
L6D17:	lda     _verb
	ora     _verb+1
	bne     L6434
L6CA3:	lda     _noun1+1
	bne     L6434
	lda     _noun1
	cmp     #$52
	bne     L6434
	lda     _marker+5
	cmp     #$01
	bne     L6434
;
; jump(15);
;
	lda     #$0F
	jsr     _jump
;
; goto return1;
;
	jmp     L62DF
;
; if(verb==100||verb==204||verb==303||verb==0) if(noun1==82) {
;
L6434:	lda     _verb+1
	bne     L6D18
	lda     _verb
	cmp     #$64
	beq     L6CA4
L6D18:	lda     _verb+1
	bne     L6D19
	lda     _verb
	cmp     #$CC
	beq     L6CA4
L6D19:	lda     _verb+1
	cmp     #$01
	bne     L6D1A
	lda     _verb
	cmp     #$2F
	beq     L6CA4
L6D1A:	lda     _verb
	ora     _verb+1
	bne     L6CA5
L6CA4:	lda     _noun1+1
	bne     L6CA5
	lda     _noun1
	cmp     #$52
	bne     L6CA5
;
; show_message(message137);
;
	lda     #<(_message137)
	ldx     #>(_message137)
	jsr     _show_message
;
; goto return1;
;
	jmp     L62DF
;
; if(cvn(206,5)) if(marker[5]==true) {
;
L6CA5:	lda     #$CE
	jsr     pusha0
	lda     #$05
	jsr     _cvn
	stx     tmp1
	ora     tmp1
	beq     L6CA6
	lda     _marker+5
	cmp     #$01
	bne     L6CA6
;
; show_message(message113);
;
	lda     #<(_message113)
	ldx     #>(_message113)
	jsr     _show_message
;
; goto return1;
;
	jmp     L62DF
;
; if(cvn(206,5)) {
;
L6CA6:	lda     #$CE
	jsr     pusha0
	lda     #$05
	jsr     _cvn
	stx     tmp1
	ora     tmp1
	beq     L644E
;
; show_message(message522);
;
	lda     #<(_message522)
	ldx     #>(_message522)
	jsr     _show_message
;
; goto return1;
;
	jmp     L62DF
;
; if(verb==99||verb==101) if(noun1==93) {
;
L644E:	lda     _verb+1
	bne     L6D1B
	lda     _verb
	cmp     #$63
	beq     L6455
L6D1B:	lda     _verb+1
	bne     L6D1C
	lda     _verb
	cmp     #$65
	beq     L6455
L6D1C:	jmp     L6459
L6455:	lda     _noun1+1
	bne     L6459
	lda     _noun1
	cmp     #$5D
	bne     L6459
;
; show_message(message181);
;
	lda     #<(_message181)
	ldx     #>(_message181)
	jsr     _show_message
;
; goto return1;
;
	jmp     L62DF
;
; if(verb==99||verb==101) if(noun1==91) {
;
L6459:	lda     _verb+1
	bne     L6D1D
	lda     _verb
	cmp     #$63
	beq     L6CA7
L6D1D:	lda     _verb+1
	bne     L6CA8
	lda     _verb
	cmp     #$65
	bne     L6CA8
L6CA7:	lda     _noun1+1
	bne     L6CA8
	lda     _noun1
	cmp     #$5B
	bne     L6CA8
;
; show_message(message181);
;
	lda     #<(_message181)
	ldx     #>(_message181)
	jsr     _show_message
;
; goto return1;
;
	jmp     L62DF
;
; if(cvn(70,252)) {
;
L6CA8:	lda     #$46
	jsr     pusha0
	lda     #$FC
	jsr     _cvn
	stx     tmp1
	ora     tmp1
	jeq     L62D6
;
; show_message(message315);
;
	lda     #<(_message315)
	ldx     #>(_message315)
	jsr     _show_message
;
; goto return1;
;
	jmp     L62DF
;
; if(cvn(70,258)) {
;
L6CA9:	lda     #$46
	jsr     pusha0
	ldx     #$01
	lda     #$02
	jsr     _cvn
	stx     tmp1
	ora     tmp1
	beq     L6470
;
; show_message(message321);
;
	lda     #<(_message321)
	ldx     #>(_message321)
	jsr     _show_message
;
; goto return1;
;
	jmp     L62DF
;
; if(noun1==259||noun1==252) if(verb==70) {
;
L6470:	lda     _noun1+1
	cmp     #$01
	bne     L6D1F
	lda     _noun1
	cmp     #$03
	beq     L6477
L6D1F:	lda     _noun1+1
	bne     L6D20
	lda     _noun1
	cmp     #$FC
	beq     L6477
L6D20:	jmp     L6CAA
L6477:	lda     _verb+1
	bne     L6CAA
	lda     _verb
	cmp     #$46
	bne     L6CAA
;
; show_message(message318);
;
	lda     #<(_message318)
	ldx     #>(_message318)
	jsr     _show_message
;
; goto return1;
;
	jmp     L62DF
;
; if(cvn(70,261)) {
;
L6CAA:	lda     #$46
	jsr     pusha0
	ldx     #$01
	lda     #$05
	jsr     _cvn
	stx     tmp1
	ora     tmp1
	beq     L6480
;
; show_message(message319);
;
	lda     #<(_message319)
	ldx     #>(_message319)
	jsr     _show_message
;
; goto return1;
;
	jmp     L62DF
;
; if(cvn(70,296)) {
;
L6480:	lda     #$46
	jsr     pusha0
	ldx     #$01
	lda     #$28
	jsr     _cvn
	stx     tmp1
	ora     tmp1
	jeq     L62D6
;
; show_message(message320);
;
	lda     #<(_message320)
	ldx     #>(_message320)
	jsr     _show_message
;
; goto return1;
;
	jmp     L62DF
;
; if(verb==76) {
;
L648D:	lda     _verb+1
	bne     L648E
	lda     _verb
	cmp     #$4C
	bne     L648E
;
; show_message(message520);
;
	lda     #<(_message520)
	ldx     #>(_message520)
	jsr     _show_message
;
; jump(13);
;
	ldx     #$00
	lda     #$0D
	jsr     _jump
;
; goto return1;
;
	jmp     L62DF
;
; if(verb==100||verb==204||verb==303||verb==0) if(noun1==83) {
;
L648E:	lda     _verb+1
	bne     L6D21
	lda     _verb
	cmp     #$64
	beq     L6CAB
L6D21:	lda     _verb+1
	bne     L6D22
	lda     _verb
	cmp     #$CC
	beq     L6CAB
L6D22:	lda     _verb+1
	cmp     #$01
	bne     L6D23
	lda     _verb
	cmp     #$2F
	beq     L6CAB
L6D23:	lda     _verb
	ora     _verb+1
	bne     L6CAC
L6CAB:	lda     _noun1+1
	bne     L6CAC
	lda     _noun1
	cmp     #$53
	bne     L6CAC
;
; show_message(message520);
;
	lda     #<(_message520)
	ldx     #>(_message520)
	jsr     _show_message
;
; jump(13);
;
	ldx     #$00
	lda     #$0D
	jsr     _jump
;
; goto return1;
;
	jmp     L62DF
;
; if(cvn(70,261)) {
;
L6CAC:	lda     #$46
	jsr     pusha0
	ldx     #$01
	lda     #$05
	jsr     _cvn
	stx     tmp1
	ora     tmp1
	beq     L64A3
;
; show_message(message325);
;
	lda     #<(_message325)
	ldx     #>(_message325)
	jsr     _show_message
;
; goto return1;
;
	jmp     L62DF
;
; if(cvn(70,263)) {
;
L64A3:	lda     #$46
	jsr     pusha0
	ldx     #$01
	lda     #$07
	jsr     _cvn
	stx     tmp1
	ora     tmp1
	beq     L64A9
;
; show_message(message322);
;
	lda     #<(_message322)
	ldx     #>(_message322)
	jsr     _show_message
;
; goto return1;
;
	jmp     L62DF
;
; if(cvn(70,264)) {
;
L64A9:	lda     #$46
	jsr     pusha0
	ldx     #$01
	lda     #$08
	jsr     _cvn
	stx     tmp1
	ora     tmp1
	beq     L64AF
;
; show_message(message324);
;
	lda     #<(_message324)
	ldx     #>(_message324)
	jsr     _show_message
;
; goto return1;
;
	jmp     L62DF
;
; if(cvn(70,5)) {
;
L64AF:	lda     #$46
	jsr     pusha0
	lda     #$05
	jsr     _cvn
	stx     tmp1
	ora     tmp1
	beq     L64B5
;
; show_message(message326);
;
	lda     #<(_message326)
	ldx     #>(_message326)
	jsr     _show_message
;
; goto return1;
;
	jmp     L62DF
;
; if(cvn(70,25)) {
;
L64B5:	lda     #$46
	jsr     pusha0
	lda     #$19
	jsr     _cvn
	stx     tmp1
	ora     tmp1
	beq     L64BB
;
; show_message(message253);
;
	lda     #<(_message253)
	ldx     #>(_message253)
	jsr     _show_message
;
; goto return1;
;
	jmp     L62DF
;
; if(cvn(70,273)) {
;
L64BB:	lda     #$46
	jsr     pusha0
	ldx     #$01
	lda     #$11
	jsr     _cvn
	stx     tmp1
	ora     tmp1
	jeq     L62D6
;
; show_message(message253);
;
	lda     #<(_message253)
	ldx     #>(_message253)
	jsr     _show_message
;
; goto return1;
;
	jmp     L62DF
;
; if(cvn(70,90)) {
;
L6CAD:	lda     #$46
	jsr     pusha0
	lda     #$5A
	jsr     _cvn
	stx     tmp1
	ora     tmp1
	beq     L64C9
;
; show_message(message167);
;
	lda     #<(_message167)
	ldx     #>(_message167)
	jsr     _show_message
;
; goto return1;
;
	jmp     L62DF
;
; if(cvn(70,265)) {
;
L64C9:	lda     #$46
	jsr     pusha0
	ldx     #$01
	lda     #$09
	jsr     _cvn
	stx     tmp1
	ora     tmp1
	beq     L64CF
;
; show_message(message327);
;
	lda     #<(_message327)
	ldx     #>(_message327)
	jsr     _show_message
;
; goto return1;
;
	jmp     L62DF
;
; if(cvn(70,266)) {
;
L64CF:	lda     #$46
	jsr     pusha0
	ldx     #$01
	lda     #$0A
	jsr     _cvn
	stx     tmp1
	ora     tmp1
	beq     L64D5
;
; show_message(message253);
;
	lda     #<(_message253)
	ldx     #>(_message253)
	jsr     _show_message
;
; goto return1;
;
	jmp     L62DF
;
; if(cvn(70,267)) {
;
L64D5:	lda     #$46
	jsr     pusha0
	ldx     #$01
	lda     #$0B
	jsr     _cvn
	stx     tmp1
	ora     tmp1
	beq     L64DB
;
; show_message(message328);
;
	lda     #<(_message328)
	ldx     #>(_message328)
	jsr     _show_message
;
; goto return1;
;
	jmp     L62DF
;
; if(cvn(70,268)) {
;
L64DB:	lda     #$46
	jsr     pusha0
	ldx     #$01
	lda     #$0C
	jsr     _cvn
	stx     tmp1
	ora     tmp1
	jeq     L62D6
;
; show_message(message329);
;
	lda     #<(_message329)
	ldx     #>(_message329)
	jsr     _show_message
;
; goto return1;
;
	jmp     L62DF
;
; if(verb==70||verb==208) if(noun1==24) {
;
L64E8:	lda     _verb+1
	bne     L6D24
	lda     _verb
	cmp     #$46
	beq     L6CAE
L6D24:	lda     _verb+1
	bne     L6CAF
	lda     _verb
	cmp     #$D0
	bne     L6CAF
L6CAE:	lda     _noun1+1
	bne     L6CAF
	lda     _noun1
	cmp     #$18
	bne     L6CAF
;
; show_message(message249);
;
	lda     #<(_message249)
	ldx     #>(_message249)
	jsr     _show_message
;
; goto return1;
;
	jmp     L62DF
;
; if(cvn(70,269)) {
;
L6CAF:	lda     #$46
	jsr     pusha0
	ldx     #$01
	lda     #$0D
	jsr     _cvn
	stx     tmp1
	ora     tmp1
	beq     L64F3
;
; show_message(message331);
;
	lda     #<(_message331)
	ldx     #>(_message331)
	jsr     _show_message
;
; goto return1;
;
	jmp     L62DF
;
; if(cvn(70,270)) {
;
L64F3:	lda     #$46
	jsr     pusha0
	ldx     #$01
	lda     #$0E
	jsr     _cvn
	stx     tmp1
	ora     tmp1
	jeq     L62D6
;
; show_message(message253);
;
	lda     #<(_message253)
	ldx     #>(_message253)
	jsr     _show_message
;
; goto return1;
;
	jmp     L62DF
;
; if(cvn(70,271)) {
;
L6CB0:	lda     #$46
	jsr     pusha0
	ldx     #$01
	lda     #$0F
	jsr     _cvn
	stx     tmp1
	ora     tmp1
	jeq     L62D6
;
; show_message(message253);
;
	lda     #<(_message253)
	ldx     #>(_message253)
	jsr     _show_message
;
; goto return1;
;
	jmp     L62DF
;
; if(cvn(70,265)) {
;
L6CB1:	lda     #$46
	jsr     pusha0
	ldx     #$01
	lda     #$09
	jsr     _cvn
	stx     tmp1
	ora     tmp1
	beq     L6509
;
; show_message(message327);
;
	lda     #<(_message327)
	ldx     #>(_message327)
	jsr     _show_message
;
; goto return1;
;
	jmp     L62DF
;
; if(cvn(70,274)) {
;
L6509:	lda     #$46
	jsr     pusha0
	ldx     #$01
	lda     #$12
	jsr     _cvn
	stx     tmp1
	ora     tmp1
	beq     L650F
;
; show_message(message332);
;
	lda     #<(_message332)
	ldx     #>(_message332)
	jsr     _show_message
;
; goto return1;
;
	jmp     L62DF
;
; if(cvn(70,404)) {
;
L650F:	lda     #$46
	jsr     pusha0
	ldx     #$01
	lda     #$94
	jsr     _cvn
	stx     tmp1
	ora     tmp1
	beq     L6515
;
; show_message(message333);
;
	lda     #<(_message333)
	ldx     #>(_message333)
	jsr     _show_message
;
; goto return1;
;
	jmp     L62DF
;
; if(cvn(70,409)) {
;
L6515:	lda     #$46
	jsr     pusha0
	ldx     #$01
	lda     #$99
	jsr     _cvn
	stx     tmp1
	ora     tmp1
	jeq     L62D6
;
; show_message(message334);
;
	lda     #<(_message334)
	ldx     #>(_message334)
	jsr     _show_message
;
; goto return1;
;
	jmp     L62DF
;
; if(cvn(70,410)) if(marker[33]==false) {
;
L6CB2:	lda     #$46
	jsr     pusha0
	ldx     #$01
	lda     #$9A
	jsr     _cvn
	stx     tmp1
	ora     tmp1
	beq     L6CB3
	lda     _marker+33
	bne     L6CB3
;
; show_message(message239);
;
	lda     #<(_message239)
	ldx     #>(_message239)
	jsr     _show_message
;
; goto return1;
;
	jmp     L62DF
;
; if(cvn(70,410)) if(marker[33]==true) {
;
L6CB3:	lda     #$46
	jsr     pusha0
	ldx     #$01
	lda     #$9A
	jsr     _cvn
	stx     tmp1
	ora     tmp1
	beq     L6CB4
	lda     _marker+33
	cmp     #$01
	bne     L6CB4
;
; show_message(message240);
;
	lda     #<(_message240)
	ldx     #>(_message240)
	jsr     _show_message
;
; goto return1;
;
	jmp     L62DF
;
; if(cvn(50,29)) if(marker[33]==false) {
;
L6CB4:	lda     #$32
	jsr     pusha0
	lda     #$1D
	jsr     _cvn
	stx     tmp1
	ora     tmp1
	beq     L6CB5
	lda     _marker+33
	bne     L6CB5
;
; show_message(message241);
;
	lda     #<(_message241)
	ldx     #>(_message241)
	jsr     _show_message
;
; goto return1;
;
	jmp     L62DF
;
; if(cvn(50,29)) if(marker[33]==true) if(object_is_available(100)) {
;
L6CB5:	lda     #$32
	jsr     pusha0
	lda     #$1D
	jsr     _cvn
	stx     tmp1
	ora     tmp1
	beq     L6545
	lda     _marker+33
	cmp     #$01
	bne     L6545
	ldx     #$00
	lda     #$64
	jsr     _object_is_available
	tax
	beq     L6545
;
; if(get(100)!=00) goto return1;
;
	ldx     #$00
	lda     #$64
	jsr     _get
	cpx     #$00
	jne     L62DF
	cmp     #$00
	jne     L6D01
;
; show_message(message1000);
;
	lda     #<(_message1000)
	ldx     #>(_message1000)
	jsr     _show_message
;
; goto return1;
;
	jmp     L62DF
;
; if(noun1==410||noun1==411) if(verb==202) if(marker[33]==false) {
;
L6545:	lda     _noun1+1
	cmp     #$01
	bne     L6D26
	lda     _noun1
	cmp     #$9A
	beq     L654F
L6D26:	lda     _noun1+1
	cmp     #$01
	bne     L6D27
	lda     _noun1
	cmp     #$9B
	beq     L654F
L6D27:	jmp     L6556
L654F:	lda     _verb+1
	bne     L6556
	lda     _verb
	cmp     #$CA
	bne     L6556
	lda     _marker+33
	bne     L6556
;
; set_object_position(100,current_position);
;
	lda     #$64
	jsr     pusha0
	lda     _current_position
	ldx     _current_position+1
	jsr     _set_object_position
;
; show_message(message242);
;
	lda     #<(_message242)
	ldx     #>(_message242)
	jsr     _show_message
;
; marker[33]=true;
;
	ldx     #$00
	lda     #$01
	sta     _marker+33
;
; goto return1;
;
	rts
;
; if(noun1==410||noun1==411) if(verb==202) if(marker[33]==true) {
;
L6556:	lda     _noun1+1
	cmp     #$01
	bne     L6D28
	lda     _noun1
	cmp     #$9A
	beq     L6CB6
L6D28:	lda     _noun1+1
	cmp     #$01
	bne     L6CB7
	lda     _noun1
	cmp     #$9B
	bne     L6CB7
L6CB6:	lda     _verb+1
	bne     L6CB7
	lda     _verb
	cmp     #$CA
	bne     L6CB7
	lda     _marker+33
	cmp     #$01
	bne     L6CB7
;
; show_message(message243);
;
	lda     #<(_message243)
	ldx     #>(_message243)
	jsr     _show_message
;
; goto return1;
;
	jmp     L62DF
;
; if(cvn(70,62)) {
;
L6CB7:	lda     #$46
	jsr     pusha0
	lda     #$3E
	jsr     _cvn
	stx     tmp1
	ora     tmp1
	beq     L656E
;
; show_message(message248);
;
	lda     #<(_message248)
	ldx     #>(_message248)
	jsr     _show_message
;
; goto return1;
;
	jmp     L62DF
;
; if(cvn(70,298)) {
;
L656E:	lda     #$46
	jsr     pusha0
	ldx     #$01
	lda     #$2A
	jsr     _cvn
	stx     tmp1
	ora     tmp1
	beq     L6574
;
; show_message(message335);
;
	lda     #<(_message335)
	ldx     #>(_message335)
	jsr     _show_message
;
; goto return1;
;
	jmp     L62DF
;
; if(cvn(70,28)) {
;
L6574:	lda     #$46
	jsr     pusha0
	lda     #$1C
	jsr     _cvn
	stx     tmp1
	ora     tmp1
	beq     L657A
;
; show_message(message336);
;
	lda     #<(_message336)
	ldx     #>(_message336)
	jsr     _show_message
;
; goto return1;
;
	jmp     L62DF
;
; if(cvn(70,62)) {
;
L657A:	lda     #$46
	jsr     pusha0
	lda     #$3E
	jsr     _cvn
	stx     tmp1
	ora     tmp1
	beq     L6580
;
; show_message(message337);
;
	lda     #<(_message337)
	ldx     #>(_message337)
	jsr     _show_message
;
; goto return1;
;
	jmp     L62DF
;
; if(verb==100||verb==204||verb==303||verb==0) if(noun1==84) {
;
L6580:	lda     _verb+1
	bne     L6D2A
	lda     _verb
	cmp     #$64
	beq     L6587
L6D2A:	lda     _verb+1
	bne     L6D2B
	lda     _verb
	cmp     #$CC
	beq     L6587
L6D2B:	lda     _verb+1
	cmp     #$01
	bne     L6D2C
	lda     _verb
	cmp     #$2F
	beq     L6587
L6D2C:	lda     _verb
	ora     _verb+1
	beq     L6587
	ldx     #$00
	jmp     L658D
L6587:	ldx     #$00
	lda     _noun1+1
	bne     L658D
	lda     _noun1
	cmp     #$54
	bne     L658D
;
; show_message(message228);
;
	lda     #<(_message228)
	ldx     #>(_message228)
	jsr     _show_message
;
; jump(41);
;
	ldx     #$00
	lda     #$29
	jsr     _jump
;
; goto return1;
;
	jmp     L62DF
;
; if(noun1==84||noun1==0) if(verb==184) {
;
L658D:	lda     _noun1+1
	bne     L6D2D
	lda     _noun1
	cmp     #$54
	beq     L6CB8
L6D2D:	lda     _noun1
	ora     _noun1+1
	jne     L6CFF
L6CB8:	lda     _verb+1
	jne     L6CFF
	lda     _verb
	cmp     #$B8
	jne     L6CFF
;
; show_message(message228);
;
	lda     #<(_message228)
	ldx     #>(_message228)
	jsr     _show_message
;
; jump(41);
;
	ldx     #$00
	lda     #$29
	jsr     _jump
;
; goto return1;
;
	jmp     L62DF
;
; if(noun1==25||noun1==272) if(verb==70) {
;
L65A1:	lda     _noun1+1
	bne     L6D2E
	lda     _noun1
	cmp     #$19
	beq     L6CB9
L6D2E:	lda     _noun1+1
	cmp     #$01
	bne     L6CBA
	lda     _noun1
	cmp     #$10
	bne     L6CBA
L6CB9:	lda     _verb+1
	bne     L6CBA
	lda     _verb
	cmp     #$46
	bne     L6CBA
;
; show_message(message253);
;
	lda     #<(_message253)
	ldx     #>(_message253)
	jsr     _show_message
;
; goto return1;
;
	jmp     L62DF
;
; if(cvn(70,297)) {
;
L6CBA:	lda     #$46
	jsr     pusha0
	ldx     #$01
	lda     #$29
	jsr     _cvn
	stx     tmp1
	ora     tmp1
	jeq     L62D6
;
; show_message(message330);
;
	lda     #<(_message330)
	ldx     #>(_message330)
	jsr     _show_message
;
; goto return1;
;
	jmp     L62DF
;
; if(cvn(70,265)) {
;
L6CBB:	lda     #$46
	jsr     pusha0
	ldx     #$01
	lda     #$09
	jsr     _cvn
	stx     tmp1
	ora     tmp1
	beq     L65B4
;
; show_message(message327);
;
	lda     #<(_message327)
	ldx     #>(_message327)
	jsr     _show_message
;
; goto return1;
;
	jmp     L62DF
;
; if(cvn(70,260)) {
;
L65B4:	lda     #$46
	jsr     pusha0
	ldx     #$01
	lda     #$04
	jsr     _cvn
	stx     tmp1
	ora     tmp1
	beq     L65BA
;
; show_message(message338);
;
	lda     #<(_message338)
	ldx     #>(_message338)
	jsr     _show_message
;
; goto return1;
;
	jmp     L62DF
;
; if(cvn(70,23)) {
;
L65BA:	lda     #$46
	jsr     pusha0
	lda     #$17
	jsr     _cvn
	stx     tmp1
	ora     tmp1
	beq     L65C0
;
; show_message(message253);
;
	lda     #<(_message253)
	ldx     #>(_message253)
	jsr     _show_message
;
; goto return1;
;
	jmp     L62DF
;
; if(cvn(70,266)) {
;
L65C0:	lda     #$46
	jsr     pusha0
	ldx     #$01
	lda     #$0A
	jsr     _cvn
	stx     tmp1
	ora     tmp1
	beq     L65C6
;
; show_message(message253);
;
	lda     #<(_message253)
	ldx     #>(_message253)
	jsr     _show_message
;
; goto return1;
;
	jmp     L62DF
;
; if(cvn(70,274)) {
;
L65C6:	lda     #$46
	jsr     pusha0
	ldx     #$01
	lda     #$12
	jsr     _cvn
	stx     tmp1
	ora     tmp1
	jeq     L62D6
;
; show_message(message332);
;
	lda     #<(_message332)
	ldx     #>(_message332)
	jsr     _show_message
;
; goto return1;
;
	jmp     L62DF
;
; if(verb==70||verb==208) if(noun1==98) {
;
L65D3:	lda     _verb+1
	bne     L6D30
	lda     _verb
	cmp     #$46
	beq     L6CBC
L6D30:	lda     _verb+1
	bne     L6CBD
	lda     _verb
	cmp     #$D0
	bne     L6CBD
L6CBC:	lda     _noun1+1
	bne     L6CBD
	lda     _noun1
	cmp     #$62
	bne     L6CBD
;
; show_message(message298);
;
	lda     #<(_message298)
	ldx     #>(_message298)
	jsr     _show_message
;
; goto return1;
;
	jmp     L62DF
;
; if(cvn(70,276)) {
;
L6CBD:	lda     #$46
	jsr     pusha0
	ldx     #$01
	lda     #$14
	jsr     _cvn
	stx     tmp1
	ora     tmp1
	beq     L65DE
;
; show_message(message340);
;
	lda     #<(_message340)
	ldx     #>(_message340)
	jsr     _show_message
;
; goto return1;
;
	jmp     L62DF
;
; if(cvn(70,500)) {
;
L65DE:	lda     #$46
	jsr     pusha0
	ldx     #$01
	lda     #$F4
	jsr     _cvn
	stx     tmp1
	ora     tmp1
	beq     L65E4
;
; show_message(message339);
;
	lda     #<(_message339)
	ldx     #>(_message339)
	jsr     _show_message
;
; goto return1;
;
	jmp     L62DF
;
; if(cvn(50,98)) {
;
L65E4:	lda     #$32
	jsr     pusha0
	lda     #$62
	jsr     _cvn
	stx     tmp1
	ora     tmp1
	jeq     L62D6
;
; show_message(message535);
;
	lda     #<(_message535)
	ldx     #>(_message535)
	jsr     _show_message
;
; goto return1;
;
	jmp     L62DF
;
; if(cvn(70,277)) {
;
L6CBE:	lda     #$46
	jsr     pusha0
	ldx     #$01
	lda     #$15
	jsr     _cvn
	stx     tmp1
	ora     tmp1
	beq     L65F2
;
; show_message(message323);
;
	lda     #<(_message323)
	ldx     #>(_message323)
	jsr     _show_message
;
; goto return1;
;
	jmp     L62DF
;
; if(cvn(70,270)) {
;
L65F2:	lda     #$46
	jsr     pusha0
	ldx     #$01
	lda     #$0E
	jsr     _cvn
	stx     tmp1
	ora     tmp1
	beq     L65F8
;
; show_message(message253);
;
	lda     #<(_message253)
	ldx     #>(_message253)
	jsr     _show_message
;
; goto return1;
;
	jmp     L62DF
;
; if(cvn(70,278)) {
;
L65F8:	lda     #$46
	jsr     pusha0
	ldx     #$01
	lda     #$16
	jsr     _cvn
	stx     tmp1
	ora     tmp1
	beq     L65FE
;
; show_message(message253);
;
	lda     #<(_message253)
	ldx     #>(_message253)
	jsr     _show_message
;
; goto return1;
;
	jmp     L62DF
;
; if(cvn(70,299)) {
;
L65FE:	lda     #$46
	jsr     pusha0
	ldx     #$01
	lda     #$2B
	jsr     _cvn
	stx     tmp1
	ora     tmp1
	beq     L6604
;
; show_message(message253);
;
	lda     #<(_message253)
	ldx     #>(_message253)
	jsr     _show_message
;
; goto return1;
;
	jmp     L62DF
;
; if(cvn(70,279)) {
;
L6604:	lda     #$46
	jsr     pusha0
	ldx     #$01
	lda     #$17
	jsr     _cvn
	stx     tmp1
	ora     tmp1
	jeq     L62D6
;
; show_message(message341);
;
	lda     #<(_message341)
	ldx     #>(_message341)
	jsr     _show_message
;
; goto return1;
;
	jmp     L62DF
;
; if(cvn(204,19)) if(marker[9]==false) {
;
L6CBF:	lda     #$CC
	jsr     pusha0
	lda     #$13
	jsr     _cvn
	stx     tmp1
	ora     tmp1
	beq     L6CC0
	lda     _marker+9
	bne     L6CC0
;
; marker[9]=true;
;
	lda     #$01
	sta     _marker+9
;
; show_message(message175);
;
	lda     #<(_message175)
	ldx     #>(_message175)
	jsr     _show_message
;
; marker[120]=false;
;
	ldx     #$00
	stx     _marker+120
;
; goto return1;
;
	jmp     L6D01
;
; if(cvn(204,19)) {
;
L6CC0:	lda     #$CC
	jsr     pusha0
	lda     #$13
	jsr     _cvn
	stx     tmp1
	ora     tmp1
	beq     L6621
;
; show_message(message176);
;
	lda     #<(_message176)
	ldx     #>(_message176)
	jsr     _show_message
;
; goto return1;
;
	jmp     L62DF
;
; if(cvn(219,8)) if(noun2==19) if(object_is_available(8)) if(marker[16]==false) {
;
L6621:	lda     #$DB
	jsr     pusha0
	lda     #$08
	jsr     _cvn
	stx     tmp1
	ora     tmp1
	beq     L6CC1
	lda     _noun2+1
	bne     L6CC1
	lda     _noun2
	cmp     #$13
	bne     L6CC1
	ldx     #$00
	lda     #$08
	jsr     _object_is_available
	tax
	beq     L6CC1
	lda     _marker+16
	bne     L6CC1
;
; show_message(message211);
;
	lda     #<(_message211)
	ldx     #>(_message211)
	jsr     _show_message
;
; marker[16]=true;
;
	ldx     #$00
	lda     #$01
	sta     _marker+16
;
; goto return1;
;
	rts
;
; if(cvn(219,8)) if(noun2==19) if(marker[16]==false) {
;
L6CC1:	lda     #$DB
	jsr     pusha0
	lda     #$08
	jsr     _cvn
	stx     tmp1
	ora     tmp1
	beq     L6CC2
	lda     _noun2+1
	bne     L6CC2
	lda     _noun2
	cmp     #$13
	bne     L6CC2
	lda     _marker+16
	bne     L6CC2
;
; show_message(message218);
;
	lda     #<(_message218)
	ldx     #>(_message218)
	jsr     _show_message
;
; goto return1;
;
	jmp     L62DF
;
; if(cvn(219,8)) if(noun2==19) if(marker[16]==true) {
;
L6CC2:	lda     #$DB
	jsr     pusha0
	lda     #$08
	jsr     _cvn
	stx     tmp1
	ora     tmp1
	beq     L6CC3
	lda     _noun2+1
	bne     L6CC3
	lda     _noun2
	cmp     #$13
	bne     L6CC3
	lda     _marker+16
	cmp     #$01
	bne     L6CC3
;
; show_message(message217);
;
	lda     #<(_message217)
	ldx     #>(_message217)
	jsr     _show_message
;
; goto return1;
;
	jmp     L62DF
;
; if(cvn(219,8)) if(noun2==408) if(object_is_available(8)) if(marker[16]==false) {
;
L6CC3:	lda     #$DB
	jsr     pusha0
	lda     #$08
	jsr     _cvn
	stx     tmp1
	ora     tmp1
	beq     L6CC4
	lda     _noun2+1
	cmp     #$01
	bne     L6CC4
	lda     _noun2
	cmp     #$98
	bne     L6CC4
	ldx     #$00
	lda     #$08
	jsr     _object_is_available
	tax
	beq     L6CC4
	lda     _marker+16
	bne     L6CC4
;
; show_message(message211);
;
	lda     #<(_message211)
	ldx     #>(_message211)
	jsr     _show_message
;
; marker[16]=true;
;
	ldx     #$00
	lda     #$01
	sta     _marker+16
;
; goto return1;
;
	rts
;
; if(cvn(219,8)) if(noun2==408) if(marker[16]==false) {
;
L6CC4:	lda     #$DB
	jsr     pusha0
	lda     #$08
	jsr     _cvn
	stx     tmp1
	ora     tmp1
	beq     L6CC5
	lda     _noun2+1
	cmp     #$01
	bne     L6CC5
	lda     _noun2
	cmp     #$98
	bne     L6CC5
	lda     _marker+16
	bne     L6CC5
;
; show_message(message218);
;
	lda     #<(_message218)
	ldx     #>(_message218)
	jsr     _show_message
;
; goto return1;
;
	jmp     L62DF
;
; if(cvn(219,8)) if(noun2==408) if(marker[16]==true) {
;
L6CC5:	lda     #$DB
	jsr     pusha0
	lda     #$08
	jsr     _cvn
	stx     tmp1
	ora     tmp1
	beq     L6676
	lda     _noun2+1
	cmp     #$01
	bne     L6676
	lda     _noun2
	cmp     #$98
	bne     L6676
	lda     _marker+16
	cmp     #$01
	bne     L6676
;
; show_message(message217);
;
	lda     #<(_message217)
	ldx     #>(_message217)
	jsr     _show_message
;
; goto return1;
;
	jmp     L62DF
;
; if(verb==55||verb==102) if(noun1==8) if(noun2==221) if(object_is_available(8)) if(marker[9]==true) if(marker[16]==true) {
;
L6676:	lda     _verb+1
	bne     L6D32
	lda     _verb
	cmp     #$37
	beq     L667C
L6D32:	lda     _verb+1
	bne     L6D33
	lda     _verb
	cmp     #$66
	beq     L667C
L6D33:	ldx     #$00
	jmp     L668C
L667C:	ldx     #$00
	lda     _noun1+1
	bne     L668C
	lda     _noun1
	cmp     #$08
	bne     L668C
	lda     _noun2+1
	bne     L668C
	lda     _noun2
	cmp     #$DD
	bne     L668C
	lda     #$08
	jsr     _object_is_available
	tax
	beq     L668C
	ldx     #$00
	lda     _marker+9
	cmp     #$01
	bne     L668C
	lda     _marker+16
	cmp     #$01
	bne     L668C
;
; marker[18]=true;
;
	sta     _marker+18
;
; set_object_position(8,0);
;
	lda     #$08
	jsr     pusha0
	lda     #$00
	jsr     _set_object_position
;
; show_message(message221);
;
	lda     #<(_message221)
	ldx     #>(_message221)
	jsr     _show_message
;
; goto return1;
;
	jmp     L62DF
;
; if(verb==55||verb==102) if(noun1==8) if(noun2==221) if(object_is_available(8)) if(marker[9]==true) {
;
L668C:	lda     _verb+1
	bne     L6D34
	lda     _verb
	cmp     #$37
	beq     L6CC6
L6D34:	lda     _verb+1
	bne     L6CC7
	lda     _verb
	cmp     #$66
	bne     L6CC7
L6CC6:	lda     _noun1+1
	bne     L6CC7
	lda     _noun1
	cmp     #$08
	bne     L6CC7
	lda     _noun2+1
	bne     L6CC7
	lda     _noun2
	cmp     #$DD
	bne     L6CC7
	lda     #$08
	jsr     _object_is_available
	tax
	beq     L6CC7
	lda     _marker+9
	cmp     #$01
	bne     L6CC7
;
; show_message(message222);
;
	lda     #<(_message222)
	ldx     #>(_message222)
	jsr     _show_message
;
; set_object_position(8,27);
;
	lda     #$08
	jsr     pusha0
	lda     #$1B
	jsr     _set_object_position
;
; goto return1;
;
	jmp     L62DF
;
; if(cvna(219,8,8)) {
;
L6CC7:	lda     #$DB
	jsr     pusha0
	lda     #$08
	jsr     pusha0
	jsr     _cvna
	stx     tmp1
	ora     tmp1
	beq     L66AD
;
; show_message(message210);
;
	lda     #<(_message210)
	ldx     #>(_message210)
	jsr     _show_message
;
; goto return1;
;
	jmp     L62DF
;
; if(cvn(220,8)) if(marker[16]==true) {
;
L66AD:	lda     #$DC
	jsr     pusha0
	lda     #$08
	jsr     _cvn
	stx     tmp1
	ora     tmp1
	beq     L6CC8
	lda     _marker+16
	cmp     #$01
	bne     L6CC8
;
; show_message(message220);
;
	lda     #<(_message220)
	ldx     #>(_message220)
	jsr     _show_message
;
; goto return1;
;
	jmp     L62DF
;
; if(cvn(220,8)) if(marker[16]==false) {
;
L6CC8:	lda     #$DC
	jsr     pusha0
	lda     #$08
	jsr     _cvn
	stx     tmp1
	ora     tmp1
	beq     L6CC9
	lda     _marker+16
	bne     L6CC9
;
; show_message(message219);
;
	lda     #<(_message219)
	ldx     #>(_message219)
	jsr     _show_message
;
; goto return1;
;
	jmp     L62DF
;
; if(cvna(50,8,8)) if(marker[16]==false) {
;
L6CC9:	lda     #$32
	jsr     pusha0
	lda     #$08
	jsr     pusha0
	jsr     _cvna
	stx     tmp1
	ora     tmp1
	beq     L66CB
	lda     _marker+16
	bne     L66CB
;
; if(get(8)!=00) goto return1;
;
	tax
	lda     #$08
	jsr     _get
	cpx     #$00
	jne     L62DF
	cmp     #$00
	jne     L6D01
;
; show_message(message1000);
;
	lda     #<(_message1000)
	ldx     #>(_message1000)
	jsr     _show_message
;
; goto return1;
;
	jmp     L62DF
;
; if(verb==185||verb==215) if(noun1==221) if(marker[18]==true) {
;
L66CB:	lda     _verb+1
	bne     L6D36
	lda     _verb
	cmp     #$B9
	beq     L66D5
L6D36:	lda     _verb+1
	bne     L6D37
	lda     _verb
	cmp     #$D7
	beq     L66D5
L6D37:	jmp     L66DC
L66D5:	lda     _noun1+1
	bne     L66DC
	lda     _noun1
	cmp     #$DD
	bne     L66DC
	lda     _marker+18
	cmp     #$01
	bne     L66DC
;
; show_message(message223);
;
	lda     #<(_message223)
	ldx     #>(_message223)
	jsr     _show_message
;
; marker[121]=false;
;
	lda     #$00
	sta     _marker+121
;
; jump(27);
;
	tax
	lda     #$1B
	jsr     _jump
;
; goto return1;
;
	jmp     L62DF
;
; if(verb==185||verb==215) if(noun1==221) if(marker[18]==false) {
;
L66DC:	lda     _verb+1
	bne     L6D38
	lda     _verb
	cmp     #$B9
	beq     L6CCA
L6D38:	lda     _verb+1
	bne     L66EE
	lda     _verb
	cmp     #$D7
	bne     L66EE
L6CCA:	lda     _noun1+1
	bne     L66EE
	lda     _noun1
	cmp     #$DD
	bne     L66EE
	lda     _marker+18
	bne     L66EE
;
; show_message(message398);
;
	lda     #<(_message398)
	ldx     #>(_message398)
	jsr     _show_message
;
; goto return1;
;
	jmp     L62DF
;
; if(verb==185||verb==230) if(noun1==8) if(marker[18]==true) {
;
L66EE:	lda     _verb+1
	bne     L6D3A
	lda     _verb
	cmp     #$B9
	beq     L6CCB
L6D3A:	lda     _verb+1
	bne     L66FB
	lda     _verb
	cmp     #$E6
	bne     L66FB
L6CCB:	lda     _noun1+1
	bne     L66FB
	lda     _noun1
	cmp     #$08
	bne     L66FB
	lda     _marker+18
	cmp     #$01
	bne     L66FB
;
; show_message(message223);
;
	lda     #<(_message223)
	ldx     #>(_message223)
	jsr     _show_message
;
; marker[121]=false;
;
	lda     #$00
	sta     _marker+121
;
; jump(27);
;
	tax
	lda     #$1B
	jsr     _jump
;
; goto return1;
;
	jmp     L62DF
;
; if(verb==185||verb==230) if(noun1==8) if(marker[18]==false) {
;
L66FB:	lda     _verb+1
	bne     L6D3C
	lda     _verb
	cmp     #$B9
	beq     L6CCC
L6D3C:	lda     _verb+1
	bne     L670D
	lda     _verb
	cmp     #$E6
	bne     L670D
L6CCC:	lda     _noun1+1
	bne     L670D
	lda     _noun1
	cmp     #$08
	bne     L670D
	lda     _marker+18
	bne     L670D
;
; show_message(message398);
;
	lda     #<(_message398)
	ldx     #>(_message398)
	jsr     _show_message
;
; goto return1;
;
	jmp     L62DF
;
; if(verb==85) {
;
L670D:	lda     _verb+1
	bne     L6712
	lda     _verb
	cmp     #$55
	bne     L6712
;
; show_message(message227);
;
	lda     #<(_message227)
	ldx     #>(_message227)
	jsr     _show_message
;
; goto return1;
;
	jmp     L62DF
;
; if(verb==100||verb==204||verb==303||verb==0) if(noun1==85) {
;
L6712:	lda     _verb+1
	bne     L6D3E
	lda     _verb
	cmp     #$64
	beq     L6CCD
L6D3E:	lda     _verb+1
	bne     L6D3F
	lda     _verb
	cmp     #$CC
	beq     L6CCD
L6D3F:	lda     _verb+1
	cmp     #$01
	bne     L6D40
	lda     _verb
	cmp     #$2F
	beq     L6CCD
L6D40:	lda     _verb
	ora     _verb+1
	bne     L671E
L6CCD:	lda     _noun1+1
	bne     L671E
	lda     _noun1
	cmp     #$55
	bne     L671E
;
; show_message(message227);
;
	lda     #<(_message227)
	ldx     #>(_message227)
	jsr     _show_message
;
; goto return1;
;
	jmp     L62DF
;
; if(noun1==85||noun1==0) if(verb==185) {
;
L671E:	lda     _noun1+1
	bne     L6D41
	lda     _noun1
	cmp     #$55
	beq     L6CCE
L6D41:	lda     _noun1
	ora     _noun1+1
	bne     L6CCF
L6CCE:	lda     _verb+1
	bne     L6CCF
	lda     _verb
	cmp     #$B9
	bne     L6CCF
;
; show_message(message227);
;
	lda     #<(_message227)
	ldx     #>(_message227)
	jsr     _show_message
;
; goto return1;
;
	jmp     L62DF
;
; if(cvn(70,19)) {
;
L6CCF:	lda     #$46
	jsr     pusha0
	lda     #$13
	jsr     _cvn
	stx     tmp1
	ora     tmp1
	beq     L672D
;
; show_message(message343);
;
	lda     #<(_message343)
	ldx     #>(_message343)
	jsr     _show_message
;
; goto return1;
;
	jmp     L62DF
;
; if(cvn(70,263)) {
;
L672D:	lda     #$46
	jsr     pusha0
	ldx     #$01
	lda     #$07
	jsr     _cvn
	stx     tmp1
	ora     tmp1
	beq     L6733
;
; show_message(message322);
;
	lda     #<(_message322)
	ldx     #>(_message322)
	jsr     _show_message
;
; goto return1;
;
	jmp     L62DF
;
; if(cvn(70,278)) {
;
L6733:	lda     #$46
	jsr     pusha0
	ldx     #$01
	lda     #$16
	jsr     _cvn
	stx     tmp1
	ora     tmp1
	beq     L6739
;
; show_message(message253);
;
	lda     #<(_message253)
	ldx     #>(_message253)
	jsr     _show_message
;
; goto return1;
;
	jmp     L62DF
;
; if(cvn(70,299)) {
;
L6739:	lda     #$46
	jsr     pusha0
	ldx     #$01
	lda     #$2B
	jsr     _cvn
	stx     tmp1
	ora     tmp1
	beq     L673F
;
; show_message(message346);
;
	lda     #<(_message346)
	ldx     #>(_message346)
	jsr     _show_message
;
; goto return1;
;
	jmp     L62DF
;
; if(cvn(70,408)) {
;
L673F:	lda     #$46
	jsr     pusha0
	ldx     #$01
	lda     #$98
	jsr     _cvn
	stx     tmp1
	ora     tmp1
	beq     L6745
;
; show_message(message345);
;
	lda     #<(_message345)
	ldx     #>(_message345)
	jsr     _show_message
;
; goto return1;
;
	jmp     L62DF
;
; if(cvn(70,274)) {
;
L6745:	lda     #$46
	jsr     pusha0
	ldx     #$01
	lda     #$12
	jsr     _cvn
	stx     tmp1
	ora     tmp1
	beq     L674B
;
; show_message(message332);
;
	lda     #<(_message332)
	ldx     #>(_message332)
	jsr     _show_message
;
; goto return1;
;
	jmp     L62DF
;
; if(cvn(70,300)) {
;
L674B:	lda     #$46
	jsr     pusha0
	ldx     #$01
	lda     #$2C
	jsr     _cvn
	stx     tmp1
	ora     tmp1
	jeq     L62D6
;
; show_message(message344);
;
	lda     #<(_message344)
	ldx     #>(_message344)
	jsr     _show_message
;
; goto return1;
;
	jmp     L62DF
;
; if(cvn(70,281)) {
;
L6CD0:	lda     #$46
	jsr     pusha0
	ldx     #$01
	lda     #$19
	jsr     _cvn
	stx     tmp1
	ora     tmp1
	beq     L6759
;
; show_message(message350);
;
	lda     #<(_message350)
	ldx     #>(_message350)
	jsr     _show_message
;
; goto return1;
;
	jmp     L62DF
;
; if(cvn(50,281)) {
;
L6759:	lda     #$32
	jsr     pusha0
	ldx     #$01
	lda     #$19
	jsr     _cvn
	stx     tmp1
	ora     tmp1
	beq     L675F
;
; show_message(message351);
;
	lda     #<(_message351)
	ldx     #>(_message351)
	jsr     _show_message
;
; goto return1;
;
	jmp     L62DF
;
; if(cvn(70,282)) {
;
L675F:	lda     #$46
	jsr     pusha0
	ldx     #$01
	lda     #$1A
	jsr     _cvn
	stx     tmp1
	ora     tmp1
	beq     L6765
;
; show_message(message322);
;
	lda     #<(_message322)
	ldx     #>(_message322)
	jsr     _show_message
;
; goto return1;
;
	jmp     L62DF
;
; if(noun1==283||noun1==284) if(verb==70) {
;
L6765:	lda     _noun1+1
	cmp     #$01
	bne     L6D42
	lda     _noun1
	cmp     #$1B
	beq     L676C
L6D42:	lda     _noun1+1
	cmp     #$01
	bne     L6D43
	lda     _noun1
	cmp     #$1C
	beq     L676C
L6D43:	ldx     #$00
	jmp     L6770
L676C:	ldx     #$00
	lda     _verb+1
	bne     L6770
	lda     _verb
	cmp     #$46
	bne     L6770
;
; show_message(message352);
;
	lda     #<(_message352)
	ldx     #>(_message352)
	jsr     _show_message
;
; goto return1;
;
	jmp     L62DF
;
; if(noun1==283||noun1==284) if(verb==50) {
;
L6770:	lda     _noun1+1
	cmp     #$01
	bne     L6D44
	lda     _noun1
	cmp     #$1B
	beq     L6CD1
L6D44:	lda     _noun1+1
	cmp     #$01
	bne     L677A
	lda     _noun1
	cmp     #$1C
	bne     L677A
L6CD1:	lda     _verb+1
	bne     L677A
	lda     _verb
	cmp     #$32
	bne     L677A
;
; show_message(message351);
;
	lda     #<(_message351)
	ldx     #>(_message351)
	jsr     _show_message
;
; goto return1;
;
	jmp     L62DF
;
; if(verb==31||verb==201||verb==206) if(noun1==19) {
;
L677A:	lda     _verb+1
	bne     L6D46
	lda     _verb
	cmp     #$1F
	beq     L6CD2
L6D46:	lda     _verb+1
	bne     L6D47
	lda     _verb
	cmp     #$C9
	beq     L6CD2
L6D47:	lda     _verb+1
	jne     L6CFF
	lda     _verb
	cmp     #$CE
	jne     L6CFF
L6CD2:	lda     _noun1+1
	jne     L6CFF
	lda     _noun1
	cmp     #$13
	jne     L6CFF
;
; show_message(message301);
;
	lda     #<(_message301)
	ldx     #>(_message301)
	jsr     _show_message
;
; goto return1;
;
	jmp     L62DF
;
; if(verb==231) {
;
L678B:	lda     _verb+1
	bne     L678C
	lda     _verb
	cmp     #$E7
	bne     L678C
;
; show_message(message226);
;
	lda     #<(_message226)
	ldx     #>(_message226)
	jsr     _show_message
;
; marker[121]=true;
;
	lda     #$01
	sta     _marker+121
;
; jump(25);
;
	ldx     #$00
	lda     #$19
	jsr     _jump
;
; goto return1;
;
	jmp     L62DF
;
; if(verb==100||verb==204||verb==303||verb==0) if(noun1==84) {
;
L678C:	lda     _verb+1
	bne     L6D49
	lda     _verb
	cmp     #$64
	beq     L6CD3
L6D49:	lda     _verb+1
	bne     L6D4A
	lda     _verb
	cmp     #$CC
	beq     L6CD3
L6D4A:	lda     _verb+1
	cmp     #$01
	bne     L6D4B
	lda     _verb
	cmp     #$2F
	beq     L6CD3
L6D4B:	lda     _verb
	ora     _verb+1
	bne     L679D
L6CD3:	lda     _noun1+1
	bne     L679D
	lda     _noun1
	cmp     #$54
	bne     L679D
;
; show_message(message226);
;
	lda     #<(_message226)
	ldx     #>(_message226)
	jsr     _show_message
;
; marker[121]=true;
;
	lda     #$01
	sta     _marker+121
;
; jump(25);
;
	ldx     #$00
	lda     #$19
	jsr     _jump
;
; goto return1;
;
	jmp     L62DF
;
; if(noun1==84||noun1==0) if(verb==184) {
;
L679D:	lda     _noun1+1
	bne     L6D4C
	lda     _noun1
	cmp     #$54
	beq     L6CD4
L6D4C:	lda     _noun1
	ora     _noun1+1
	bne     L67AC
L6CD4:	lda     _verb+1
	bne     L67AC
	lda     _verb
	cmp     #$B8
	bne     L67AC
;
; show_message(message226);
;
	lda     #<(_message226)
	ldx     #>(_message226)
	jsr     _show_message
;
; marker[121]=true;
;
	lda     #$01
	sta     _marker+121
;
; jump(25);
;
	ldx     #$00
	lda     #$19
	jsr     _jump
;
; goto return1;
;
	jmp     L62DF
;
; if(verb==100||verb==204||verb==303||verb==0) if(noun1==83) if(marker[51]==true) {
;
L67AC:	lda     _verb+1
	bne     L6D4D
	lda     _verb
	cmp     #$64
	beq     L6CD5
L6D4D:	lda     _verb+1
	bne     L6D4E
	lda     _verb
	cmp     #$CC
	beq     L6CD5
L6D4E:	lda     _verb+1
	cmp     #$01
	bne     L6D4F
	lda     _verb
	cmp     #$2F
	beq     L6CD5
L6D4F:	lda     _verb
	ora     _verb+1
	bne     L6CD6
L6CD5:	lda     _noun1+1
	bne     L6CD6
	lda     _noun1
	cmp     #$53
	bne     L6CD6
	lda     _marker+51
	cmp     #$01
	bne     L6CD6
;
; jump(29);
;
	lda     #$1D
	jsr     _jump
;
; goto return1;
;
	jmp     L62DF
;
; if(cvn(95,109)) if(noun2==7) if(marker[50]==false) if(object_is_available(7)) {
;
L6CD6:	lda     #$5F
	jsr     pusha0
	lda     #$6D
	jsr     _cvn
	stx     tmp1
	ora     tmp1
	beq     L6CD7
	lda     _noun2+1
	bne     L6CD7
	lda     _noun2
	cmp     #$07
	bne     L6CD7
	ldx     #$00
	lda     _marker+50
	bne     L6CD7
	lda     #$07
	jsr     _object_is_available
	tax
	beq     L6CD7
;
; marker[50]=true;
;
	lda     #$01
	sta     _marker+50
;
; show_message(message259);
;
	lda     #<(_message259)
	ldx     #>(_message259)
	jsr     _show_message
;
; goto return1;
;
	jmp     L62DF
;
; if(cvn(95,109)) if(noun2==7) if(marker[50]==false) if((get_object_position(7)!=current_position)&&(object_is_carried(7)==false)) {
;
L6CD7:	lda     #$5F
	jsr     pusha0
	lda     #$6D
	jsr     _cvn
	stx     tmp1
	ora     tmp1
	beq     L6CD8
	lda     _noun2+1
	bne     L6CD8
	lda     _noun2
	cmp     #$07
	bne     L6CD8
	ldx     #$00
	lda     _marker+50
	bne     L6CD8
	lda     #$07
	jsr     _get_object_position
	cpx     _current_position+1
	bne     L6D50
	cmp     _current_position
	beq     L6CD8
L6D50:	ldx     #$00
	lda     #$07
	jsr     _object_is_carried
	cmp     #$00
	bne     L6CD8
;
; show_message(message261);
;
	lda     #<(_message261)
	ldx     #>(_message261)
	jsr     _show_message
;
; goto return1;
;
	jmp     L62DF
;
; if(cvn(95,109)) if(noun2==7) if(marker[50]==true) {
;
L6CD8:	lda     #$5F
	jsr     pusha0
	lda     #$6D
	jsr     _cvn
	stx     tmp1
	ora     tmp1
	beq     L6CD9
	lda     _noun2+1
	bne     L6CD9
	lda     _noun2
	cmp     #$07
	bne     L6CD9
	lda     _marker+50
	cmp     #$01
	bne     L6CD9
;
; show_message(message260);
;
	lda     #<(_message260)
	ldx     #>(_message260)
	jsr     _show_message
;
; goto return1;
;
	jmp     L62DF
;
; if(cvn(95,109)) {
;
L6CD9:	lda     #$5F
	jsr     pusha0
	lda     #$6D
	jsr     _cvn
	stx     tmp1
	ora     tmp1
	beq     L67F7
;
; show_message(message258);
;
	lda     #<(_message258)
	ldx     #>(_message258)
	jsr     _show_message
;
; goto return1;
;
	jmp     L62DF
;
; if(cvn(202,109)) if(marker[50]==true) {
;
L67F7:	lda     #$CA
	jsr     pusha0
	lda     #$6D
	jsr     _cvn
	stx     tmp1
	ora     tmp1
	beq     L6CDA
	lda     _marker+50
	cmp     #$01
	bne     L6CDA
;
; show_message(message263);
;
	lda     #<(_message263)
	ldx     #>(_message263)
	jsr     _show_message
;
; marker[51]=true;
;
	lda     #$01
	sta     _marker+51
;
; set_object_position(110,current_position);
;
	lda     #$6E
	jsr     pusha0
	lda     _current_position
	ldx     _current_position+1
	jsr     _set_object_position
;
; goto return1;
;
	jmp     L62DF
;
; if(cvn(202,109)) if(marker[50]==false) {
;
L6CDA:	lda     #$CA
	jsr     pusha0
	lda     #$6D
	jsr     _cvn
	stx     tmp1
	ora     tmp1
	beq     L6810
	lda     _marker+50
	bne     L6810
;
; show_message(message262);
;
	lda     #<(_message262)
	ldx     #>(_message262)
	jsr     _show_message
;
; leave(); exit(0);
;
	lda     #<(L6816)
	ldx     #>(L6816)
	jsr     pushax
	ldy     #$02
	jsr     _printf
	ldx     #$00
	txa
	jsr     _exit
;
; if(noun1==285||noun1==286) if(verb==70) {
;
L6810:	lda     _noun1+1
	cmp     #$01
	bne     L6D51
	lda     _noun1
	cmp     #$1D
	beq     L681B
L6D51:	lda     _noun1+1
	cmp     #$01
	bne     L6D52
	lda     _noun1
	cmp     #$1E
	beq     L681B
L6D52:	jmp     L681F
L681B:	lda     _verb+1
	bne     L681F
	lda     _verb
	cmp     #$46
	bne     L681F
;
; show_message(message348);
;
	lda     #<(_message348)
	ldx     #>(_message348)
	jsr     _show_message
;
; goto return1;
;
	jmp     L62DF
;
; if(noun1==285||noun1==286) if(verb==50) {
;
L681F:	lda     _noun1+1
	cmp     #$01
	bne     L6D53
	lda     _noun1
	cmp     #$1D
	beq     L6CDB
L6D53:	lda     _noun1+1
	cmp     #$01
	bne     L6CDC
	lda     _noun1
	cmp     #$1E
	bne     L6CDC
L6CDB:	lda     _verb+1
	bne     L6CDC
	lda     _verb
	cmp     #$32
	bne     L6CDC
;
; show_message(message349);
;
	lda     #<(_message349)
	ldx     #>(_message349)
	jsr     _show_message
;
; goto return1;
;
	jmp     L62DF
;
; if(cvn(70,8)) {
;
L6CDC:	lda     #$46
	jsr     pusha0
	lda     #$08
	jsr     _cvn
	stx     tmp1
	ora     tmp1
	jeq     L62D6
;
; show_message(message347);
;
	lda     #<(_message347)
	ldx     #>(_message347)
	jsr     _show_message
;
; goto return1;
;
	jmp     L62DF
;
; if(cvn(70,10)) {
;
L6CDD:	lda     #$46
	jsr     pusha0
	lda     #$0A
	jsr     _cvn
	stx     tmp1
	ora     tmp1
	beq     L6836
;
; show_message(message285);
;
	lda     #<(_message285)
	ldx     #>(_message285)
	jsr     _show_message
;
; goto return1;
;
	jmp     L62DF
;
; if(verb==33||verb==34) if(noun1==32) if(marker[59]==true) if(object_is_available(6)) if(object_is_available(2)) if(get_object_position(9)==WEARED) if(marker[60]==true) {
;
L6836:	lda     _verb+1
	bne     L6D55
	lda     _verb
	cmp     #$21
	beq     L683D
L6D55:	lda     _verb+1
	jne     L6851
	lda     _verb
	cmp     #$22
	jne     L6851
L683D:	lda     _noun1+1
	jne     L6851
	lda     _noun1
	cmp     #$20
	jne     L6851
	lda     _marker+59
	cmp     #$01
	jne     L6851
	ldx     #$00
	lda     #$06
	jsr     _object_is_available
	tax
	jeq     L6851
	ldx     #$00
	lda     #$02
	jsr     _object_is_available
	tax
	jeq     L6851
	ldx     #$00
	lda     #$09
	jsr     _get_object_position
	cpx     #$06
	jne     L6851
	cmp     #$40
	bne     L6851
	lda     _marker+60
	cmp     #$01
	bne     L6851
;
; show_message(message291);
;
	lda     #<(_message291)
	ldx     #>(_message291)
	jsr     _show_message
;
; show_message(message290);
;
	lda     #<(_message290)
	ldx     #>(_message290)
	jsr     _show_message
;
; hold(3);
;
	ldx     #$00
	lda     #$03
	jsr     _hold
;
; show_message(message292);
;
	lda     #<(_message292)
	ldx     #>(_message292)
	jsr     _show_message
;
; hold(3);
;
	ldx     #$00
	lda     #$03
	jsr     _hold
;
; show_message(message293);
;
	lda     #<(_message293)
	ldx     #>(_message293)
	jsr     _show_message
;
; hold(3);
;
	ldx     #$00
	lda     #$03
	jsr     _hold
;
; show_message(message294);
;
	lda     #<(_message294)
	ldx     #>(_message294)
	jsr     _show_message
;
; hold(3);
;
	ldx     #$00
	lda     #$03
	jsr     _hold
;
; show_message(message295);
;
	lda     #<(_message295)
	ldx     #>(_message295)
	jsr     _show_message
;
; hold(3);
;
	ldx     #$00
	lda     #$03
	jsr     _hold
;
; show_message(message296);
;
	lda     #<(_message296)
	ldx     #>(_message296)
	jsr     _show_message
;
; hold(3);
;
	ldx     #$00
	lda     #$03
	jsr     _hold
;
; show_message(message297);
;
	lda     #<(_message297)
	ldx     #>(_message297)
	jsr     _show_message
;
; leave(); exit(0);
;
	lda     #<(L6871)
	ldx     #>(L6871)
	jsr     pushax
	ldy     #$02
	jsr     _printf
	ldx     #$00
	txa
	jsr     _exit
;
; if(verb==33||verb==34) if(noun1==32) if(marker[59]==false) {
;
L6851:	lda     _verb+1
	bne     L6D57
	lda     _verb
	cmp     #$21
	beq     L6876
L6D57:	lda     _verb+1
	bne     L687D
	lda     _verb
	cmp     #$22
	bne     L687D
L6876:	lda     _noun1+1
	bne     L687D
	lda     _noun1
	cmp     #$20
	bne     L687D
	lda     _marker+59
	bne     L687D
;
; show_message(message287);
;
	lda     #<(_message287)
	ldx     #>(_message287)
	jsr     _show_message
;
; goto return1;
;
	jmp     L62DF
;
; if(verb==33||verb==34) if(noun1==32) if((get_object_position(6)!=current_position)&&(object_is_carried(6)==false)) {
;
L687D:	lda     _verb+1
	bne     L6D59
	lda     _verb
	cmp     #$21
	beq     L6CDE
L6D59:	lda     _verb+1
	bne     L688A
	lda     _verb
	cmp     #$22
	bne     L688A
L6CDE:	lda     _noun1+1
	bne     L688A
	lda     _noun1
	cmp     #$20
	bne     L688A
	ldx     #$00
	lda     #$06
	jsr     _get_object_position
	cpx     _current_position+1
	bne     L6D5B
	cmp     _current_position
	beq     L688A
L6D5B:	ldx     #$00
	lda     #$06
	jsr     _object_is_carried
	cmp     #$00
	bne     L688A
;
; show_message(message261);
;
	lda     #<(_message261)
	ldx     #>(_message261)
	jsr     _show_message
;
; goto return1;
;
	jmp     L62DF
;
; if(verb==33||verb==34) if(noun1==32) if((get_object_position(2)!=current_position)&&(object_is_carried(2)==false)) {
;
L688A:	lda     _verb+1
	bne     L6D5C
	lda     _verb
	cmp     #$21
	beq     L6CDF
L6D5C:	lda     _verb+1
	bne     L689C
	lda     _verb
	cmp     #$22
	bne     L689C
L6CDF:	lda     _noun1+1
	bne     L689C
	lda     _noun1
	cmp     #$20
	bne     L689C
	ldx     #$00
	lda     #$02
	jsr     _get_object_position
	cpx     _current_position+1
	bne     L6D5E
	cmp     _current_position
	beq     L689C
L6D5E:	ldx     #$00
	lda     #$02
	jsr     _object_is_carried
	cmp     #$00
	bne     L689C
;
; show_message(message261);
;
	lda     #<(_message261)
	ldx     #>(_message261)
	jsr     _show_message
;
; goto return1;
;
	jmp     L62DF
;
; if(verb==33||verb==34) if(noun1==32) if(get_object_position(9)!=WEARED) {
;
L689C:	lda     _verb+1
	bne     L6D5F
	lda     _verb
	cmp     #$21
	beq     L6CE0
L6D5F:	lda     _verb+1
	bne     L68AE
	lda     _verb
	cmp     #$22
	bne     L68AE
L6CE0:	lda     _noun1+1
	bne     L68AE
	lda     _noun1
	cmp     #$20
	bne     L68AE
	ldx     #$00
	lda     #$09
	jsr     _get_object_position
	cpx     #$06
	bne     L6D61
	cmp     #$40
	beq     L68AE
;
; show_message(message288);
;
L6D61:	lda     #<(_message288)
	ldx     #>(_message288)
	jsr     _show_message
;
; goto return1;
;
	jmp     L62DF
;
; if(verb==33||verb==34) if(noun1==32) if(marker[60]==false) {
;
L68AE:	lda     _verb+1
	bne     L6D62
	lda     _verb
	cmp     #$21
	beq     L68B5
L6D62:	lda     _verb+1
	bne     L6D63
	lda     _verb
	cmp     #$22
	beq     L68B5
L6D63:	jmp     L6CE1
L68B5:	lda     _noun1+1
	bne     L6CE1
	lda     _noun1
	cmp     #$20
	bne     L6CE1
	lda     _marker+60
	bne     L6CE1
;
; show_message(message289);
;
	lda     #<(_message289)
	ldx     #>(_message289)
	jsr     _show_message
;
; goto return1;
;
	jmp     L62DF
;
; if(cvn(70,287)) {
;
L6CE1:	lda     #$46
	jsr     pusha0
	ldx     #$01
	lda     #$1F
	jsr     _cvn
	stx     tmp1
	ora     tmp1
	beq     L68C1
;
; show_message(message353);
;
	lda     #<(_message353)
	ldx     #>(_message353)
	jsr     _show_message
;
; goto return1;
;
	jmp     L62DF
;
; if(cvn(70,10)) {
;
L68C1:	lda     #$46
	jsr     pusha0
	lda     #$0A
	jsr     _cvn
	stx     tmp1
	ora     tmp1
	beq     L68C7
;
; show_message(message354);
;
	lda     #<(_message354)
	ldx     #>(_message354)
	jsr     _show_message
;
; goto return1;
;
	jmp     L62DF
;
; if(cvn(70,291)) {
;
L68C7:	lda     #$46
	jsr     pusha0
	ldx     #$01
	lda     #$23
	jsr     _cvn
	stx     tmp1
	ora     tmp1
	beq     L68CD
;
; show_message(message322);
;
	lda     #<(_message322)
	ldx     #>(_message322)
	jsr     _show_message
;
; goto return1;
;
	jmp     L62DF
;
; if(cvn(70,275)) {
;
L68CD:	lda     #$46
	jsr     pusha0
	ldx     #$01
	lda     #$13
	jsr     _cvn
	stx     tmp1
	ora     tmp1
	beq     L68D3
;
; show_message(message355);
;
	lda     #<(_message355)
	ldx     #>(_message355)
	jsr     _show_message
;
; goto return1;
;
	jmp     L62DF
;
; if(verb==102||verb==55) if(noun1==6) if(noun2==10) if(object_is_carried(6)) if(marker[20]==false) {
;
L68D3:	lda     _verb+1
	bne     L6D64
	lda     _verb
	cmp     #$66
	beq     L68DA
L6D64:	lda     _verb+1
	bne     L6D65
	lda     _verb
	cmp     #$37
	beq     L68DA
L6D65:	ldx     #$00
	jmp     L68E7
L68DA:	ldx     #$00
	lda     _noun1+1
	bne     L68E7
	lda     _noun1
	cmp     #$06
	bne     L68E7
	lda     _noun2+1
	bne     L68E7
	lda     _noun2
	cmp     #$0A
	bne     L68E7
	lda     #$06
	jsr     _object_is_carried
	tax
	beq     L68E7
	ldx     #$00
	lda     _marker+20
	bne     L68E7
;
; show_message(message525);
;
	lda     #<(_message525)
	ldx     #>(_message525)
	jsr     _show_message
;
; drop(6);
;
	ldx     #$00
	lda     #$06
	jsr     _drop
;
; marker[20]=true;
;
	ldx     #$00
	lda     #$01
	sta     _marker+20
;
; goto return1;
;
	rts
;
; if(verb==102||verb==55) if(noun1==6) if(noun2==10) if(object_is_carried(6)) if(marker[20]==true) {
;
L68E7:	lda     _verb+1
	bne     L6D66
	lda     _verb
	cmp     #$66
	beq     L6CE2
L6D66:	lda     _verb+1
	bne     L68FF
	lda     _verb
	cmp     #$37
	bne     L68FF
L6CE2:	lda     _noun1+1
	bne     L68FF
	lda     _noun1
	cmp     #$06
	bne     L68FF
	lda     _noun2+1
	bne     L68FF
	lda     _noun2
	cmp     #$0A
	bne     L68FF
	lda     #$06
	jsr     _object_is_carried
	tax
	beq     L68FF
	ldx     #$00
	lda     _marker+20
	cmp     #$01
	bne     L68FF
;
; show_message(message526);
;
	lda     #<(_message526)
	ldx     #>(_message526)
	jsr     _show_message
;
; goto return1;
;
	jmp     L62DF
;
; if(verb==102||verb==55) if(noun1==6) if(noun2==10) if((get_object_position(6)!=current_position)&&(object_is_carried(6)==false)) {
;
L68FF:	lda     _verb+1
	bne     L6D68
	lda     _verb
	cmp     #$66
	beq     L6CE3
L6D68:	lda     _verb+1
	jne     L6CFF
	lda     _verb
	cmp     #$37
	jne     L6CFF
L6CE3:	lda     _noun1+1
	jne     L6CFF
	lda     _noun1
	cmp     #$06
	jne     L6CFF
	lda     _noun2+1
	jne     L6CFF
	lda     _noun2
	cmp     #$0A
	jne     L6CFF
	lda     #$06
	jsr     _get_object_position
	cpx     _current_position+1
	bne     L6D6A
	cmp     _current_position
	jeq     L62D6
L6D6A:	ldx     #$00
	lda     #$06
	jsr     _object_is_carried
	cmp     #$00
	jne     L62D6
;
; show_message(message527);
;
	lda     #<(_message527)
	ldx     #>(_message527)
	jsr     _show_message
;
; goto return1;
;
	jmp     L62DF
;
; if(cvn(70,289)) {
;
L6CE4:	lda     #$46
	jsr     pusha0
	ldx     #$01
	lda     #$21
	jsr     _cvn
	stx     tmp1
	ora     tmp1
	jeq     L62D6
;
; show_message(message342);
;
	lda     #<(_message342)
	ldx     #>(_message342)
	jsr     _show_message
;
; goto return1;
;
	jmp     L62DF
;
; if(cvn(70,160)) if(marker[63]==false) {
;
L6CE5:	lda     #$46
	jsr     pusha0
	lda     #$A0
	jsr     _cvn
	stx     tmp1
	ora     tmp1
	beq     L6CE6
	lda     _marker+63
	bne     L6CE6
;
; show_message(message274);
;
	lda     #<(_message274)
	ldx     #>(_message274)
	jsr     _show_message
;
; marker[63]=true;
;
	lda     #$01
	sta     _marker+63
;
; set_object_position(12,current_position);
;
	lda     #$0C
	jsr     pusha0
	lda     _current_position
	ldx     _current_position+1
	jsr     _set_object_position
;
; goto return1;
;
	jmp     L62DF
;
; if(cvn(70,160)) if(marker[63]==true) {
;
L6CE6:	lda     #$46
	jsr     pusha0
	lda     #$A0
	jsr     _cvn
	stx     tmp1
	ora     tmp1
	beq     L6CE7
	lda     _marker+63
	cmp     #$01
	bne     L6CE7
;
; show_message(message253);
;
	lda     #<(_message253)
	ldx     #>(_message253)
	jsr     _show_message
;
; goto return1;
;
	jmp     L62DF
;
; if(cvn(70,162)) {
;
L6CE7:	lda     #$46
	jsr     pusha0
	lda     #$A2
	jsr     _cvn
	stx     tmp1
	ora     tmp1
	beq     L693B
;
; show_message(message275);
;
	lda     #<(_message275)
	ldx     #>(_message275)
	jsr     _show_message
;
; goto return1;
;
	jmp     L62DF
;
; if(noun1==163||noun1==161) if(verb==70) {
;
L693B:	lda     _noun1+1
	bne     L6D6B
	lda     _noun1
	cmp     #$A3
	beq     L6942
L6D6B:	lda     _noun1+1
	bne     L6D6C
	lda     _noun1
	cmp     #$A1
	beq     L6942
L6D6C:	jmp     L6CE8
L6942:	lda     _verb+1
	bne     L6CE8
	lda     _verb
	cmp     #$46
	bne     L6CE8
;
; show_message(message392);
;
	lda     #<(_message392)
	ldx     #>(_message392)
	jsr     _show_message
;
; goto return1;
;
	jmp     L62DF
;
; if(cvn(70,290)) {
;
L6CE8:	lda     #$46
	jsr     pusha0
	ldx     #$01
	lda     #$22
	jsr     _cvn
	stx     tmp1
	ora     tmp1
	beq     L694B
;
; show_message(message356);
;
	lda     #<(_message356)
	ldx     #>(_message356)
	jsr     _show_message
;
; goto return1;
;
	jmp     L62DF
;
; if(cvn(70,291)) {
;
L694B:	lda     #$46
	jsr     pusha0
	ldx     #$01
	lda     #$23
	jsr     _cvn
	stx     tmp1
	ora     tmp1
	beq     L6951
;
; show_message(message322);
;
	lda     #<(_message322)
	ldx     #>(_message322)
	jsr     _show_message
;
; goto return1;
;
	jmp     L62DF
;
; if(cvn(70,160)) {
;
L6951:	lda     #$46
	jsr     pusha0
	lda     #$A0
	jsr     _cvn
	stx     tmp1
	ora     tmp1
	beq     L6957
;
; show_message(message357);
;
	lda     #<(_message357)
	ldx     #>(_message357)
	jsr     _show_message
;
; goto return1;
;
	jmp     L62DF
;
; if(cvn(70,292)) {
;
L6957:	lda     #$46
	jsr     pusha0
	ldx     #$01
	lda     #$24
	jsr     _cvn
	stx     tmp1
	ora     tmp1
	beq     L695D
;
; show_message(message359);
;
	lda     #<(_message359)
	ldx     #>(_message359)
	jsr     _show_message
;
; goto return1;
;
	jmp     L62DF
;
; if(cvn(70,293)) {
;
L695D:	lda     #$46
	jsr     pusha0
	ldx     #$01
	lda     #$25
	jsr     _cvn
	stx     tmp1
	ora     tmp1
	jeq     L62D6
;
; show_message(message358);
;
	lda     #<(_message358)
	ldx     #>(_message358)
	jsr     _show_message
;
; goto return1;
;
	jmp     L62DF
;
; if(cvn(70,289)) {
;
L6CE9:	lda     #$46
	jsr     pusha0
	ldx     #$01
	lda     #$21
	jsr     _cvn
	stx     tmp1
	ora     tmp1
	jeq     L62D6
;
; show_message(message342);
;
	lda     #<(_message342)
	ldx     #>(_message342)
	jsr     _show_message
;
; goto return1;
;
	jmp     L62DF
;
; if(cvn(70,289)) {
;
L6CEA:	lda     #$46
	jsr     pusha0
	ldx     #$01
	lda     #$21
	jsr     _cvn
	stx     tmp1
	ora     tmp1
	jeq     L62D6
;
; show_message(message342);
;
	lda     #<(_message342)
	ldx     #>(_message342)
	jsr     _show_message
;
; goto return1;
;
	jmp     L62DF
;
; if(cvn(100,221)) if(marker[55]==true) {
;
L6CEB:	lda     #$64
	jsr     pusha0
	lda     #$DD
	jsr     _cvn
	stx     tmp1
	ora     tmp1
	beq     L697F
	lda     _marker+55
	cmp     #$01
	bne     L697F
;
; jump(30);
;
	ldx     #$00
	lda     #$1E
	jsr     _jump
;
; goto return1;
;
	jmp     L62DF
;
; if(verb==50||verb==111||verb==204) if(noun1==108) if(noun2==114) if(marker[55]==false) {
;
L697F:	lda     _verb+1
	bne     L6D6D
	lda     _verb
	cmp     #$32
	beq     L6985
L6D6D:	lda     _verb+1
	bne     L6D6E
	lda     _verb
	cmp     #$6F
	beq     L6985
L6D6E:	lda     _verb+1
	bne     L6D6F
	lda     _verb
	cmp     #$CC
	beq     L6985
L6D6F:	ldx     #$00
	jmp     L6990
L6985:	ldx     #$00
	lda     _noun1+1
	bne     L6990
	lda     _noun1
	cmp     #$6C
	bne     L6990
	lda     _noun2+1
	bne     L6990
	lda     _noun2
	cmp     #$72
	bne     L6990
	lda     _marker+55
	bne     L6990
;
; marker[55]=true;
;
	lda     #$01
	sta     _marker+55
;
; show_message(message256);
;
	lda     #<(_message256)
	ldx     #>(_message256)
	jsr     _show_message
;
; set_object_position(108,current_position);
;
	lda     #$6C
	jsr     pusha0
	lda     _current_position
	ldx     _current_position+1
	jsr     _set_object_position
;
; goto return1;
;
	jmp     L62DF
;
; if(verb==50||verb==111||verb==204) if(noun1==108) if(marker[55]==true) {
;
L6990:	lda     _verb+1
	bne     L6D70
	lda     _verb
	cmp     #$32
	beq     L6CEC
L6D70:	lda     _verb+1
	bne     L6D71
	lda     _verb
	cmp     #$6F
	beq     L6CEC
L6D71:	lda     _verb+1
	bne     L69A4
	lda     _verb
	cmp     #$CC
	bne     L69A4
L6CEC:	lda     _noun1+1
	bne     L69A4
	lda     _noun1
	cmp     #$6C
	bne     L69A4
	lda     _marker+55
	cmp     #$01
	bne     L69A4
;
; show_message(message257);
;
	lda     #<(_message257)
	ldx     #>(_message257)
	jsr     _show_message
;
; goto return1;
;
	jmp     L62DF
;
; if(verb==100||verb==204||verb==303||verb==0) if(noun1==82) if(marker[55]==true) {
;
L69A4:	lda     _verb+1
	bne     L6D73
	lda     _verb
	cmp     #$64
	beq     L6CED
L6D73:	lda     _verb+1
	bne     L6D74
	lda     _verb
	cmp     #$CC
	beq     L6CED
L6D74:	lda     _verb+1
	cmp     #$01
	bne     L6D75
	lda     _verb
	cmp     #$2F
	beq     L6CED
L6D75:	lda     _verb
	ora     _verb+1
	bne     L6CEE
L6CED:	lda     _noun1+1
	bne     L6CEE
	lda     _noun1
	cmp     #$52
	bne     L6CEE
	lda     _marker+55
	cmp     #$01
	bne     L6CEE
;
; jump(30);
;
	lda     #$1E
	jsr     _jump
;
; goto return1;
;
	jmp     L62DF
;
; if(cvn(70,301)) {
;
L6CEE:	lda     #$46
	jsr     pusha0
	ldx     #$01
	lda     #$2D
	jsr     _cvn
	stx     tmp1
	ora     tmp1
	beq     L69B8
;
; show_message(message360);
;
	lda     #<(_message360)
	ldx     #>(_message360)
	jsr     _show_message
;
; goto return1;
;
	jmp     L62DF
;
; if(cvn(70,270)) {
;
L69B8:	lda     #$46
	jsr     pusha0
	ldx     #$01
	lda     #$0E
	jsr     _cvn
	stx     tmp1
	ora     tmp1
	beq     L69BE
;
; show_message(message253);
;
	lda     #<(_message253)
	ldx     #>(_message253)
	jsr     _show_message
;
; goto return1;
;
	jmp     L62DF
;
; if(noun1==2||noun1==161) if(verb==70) {
;
L69BE:	lda     _noun1+1
	bne     L6D76
	lda     _noun1
	cmp     #$02
	beq     L69C5
L6D76:	lda     _noun1+1
	bne     L6D77
	lda     _noun1
	cmp     #$A1
	beq     L69C5
L6D77:	jmp     L6CEF
L69C5:	lda     _verb+1
	bne     L6CEF
	lda     _verb
	cmp     #$46
	bne     L6CEF
;
; show_message(message361);
;
	lda     #<(_message361)
	ldx     #>(_message361)
	jsr     _show_message
;
; goto return1;
;
	jmp     L62DF
;
; if(cvn(70,23)) {
;
L6CEF:	lda     #$46
	jsr     pusha0
	lda     #$17
	jsr     _cvn
	stx     tmp1
	ora     tmp1
	beq     L69CE
;
; show_message(message253);
;
	lda     #<(_message253)
	ldx     #>(_message253)
	jsr     _show_message
;
; goto return1;
;
	jmp     L62DF
;
; if(cvn(70,266)) {
;
L69CE:	lda     #$46
	jsr     pusha0
	ldx     #$01
	lda     #$0A
	jsr     _cvn
	stx     tmp1
	ora     tmp1
	beq     L69D4
;
; show_message(message253);
;
	lda     #<(_message253)
	ldx     #>(_message253)
	jsr     _show_message
;
; goto return1;
;
	jmp     L62DF
;
; if(cvn(70,274)) {
;
L69D4:	lda     #$46
	jsr     pusha0
	ldx     #$01
	lda     #$12
	jsr     _cvn
	stx     tmp1
	ora     tmp1
	beq     L69DA
;
; show_message(message253);
;
	lda     #<(_message253)
	ldx     #>(_message253)
	jsr     _show_message
;
; goto return1;
;
	jmp     L62DF
;
; if(cvn(405,108)) {
;
L69DA:	ldx     #$01
	lda     #$95
	jsr     pushax
	dex
	lda     #$6C
	jsr     _cvn
	stx     tmp1
	ora     tmp1
	jeq     L62D6
;
; show_message(message393);
;
	lda     #<(_message393)
	ldx     #>(_message393)
	jsr     _show_message
;
; goto return1;
;
	jmp     L62DF
;
; if(cvn(70,115)) {
;
L6CF0:	lda     #$46
	jsr     pusha0
	lda     #$73
	jsr     _cvn
	stx     tmp1
	ora     tmp1
	beq     L69E8
;
; show_message(message399);
;
	lda     #<(_message399)
	ldx     #>(_message399)
	jsr     _show_message
;
; goto return1;
;
	jmp     L62DF
;
; if(cvn(206,115)) if(noun2==4) if(object_is_available(4)) if(marker[53]==false) {
;
L69E8:	lda     #$CE
	jsr     pusha0
	lda     #$73
	jsr     _cvn
	stx     tmp1
	ora     tmp1
	beq     L6CF1
	lda     _noun2+1
	bne     L6CF1
	lda     _noun2
	cmp     #$04
	bne     L6CF1
	ldx     #$00
	jsr     _object_is_available
	tax
	beq     L6CF1
	lda     _marker+53
	bne     L6CF1
;
; show_message(message265);
;
	lda     #<(_message265)
	ldx     #>(_message265)
	jsr     _show_message
;
; hold(1);
;
	ldx     #$00
	lda     #$01
	jsr     _hold
;
; show_message(message266);
;
	lda     #<(_message266)
	ldx     #>(_message266)
	jsr     _show_message
;
; hold(1);
;
	ldx     #$00
	lda     #$01
	jsr     _hold
;
; show_message(message267);
;
	lda     #<(_message267)
	ldx     #>(_message267)
	jsr     _show_message
;
; hold(1);
;
	ldx     #$00
	lda     #$01
	jsr     _hold
;
; show_message(message271);
;
	lda     #<(_message271)
	ldx     #>(_message271)
	jsr     _show_message
;
; set_object_position(6,current_position);
;
	lda     #$06
	jsr     pusha0
	lda     _current_position
	ldx     _current_position+1
	jsr     _set_object_position
;
; set_object_position(2,current_position);
;
	lda     #$02
	jsr     pusha0
	lda     _current_position
	ldx     _current_position+1
	jsr     _set_object_position
;
; set_object_position(9,current_position);
;
	lda     #$09
	jsr     pusha0
	lda     _current_position
	ldx     _current_position+1
	jsr     _set_object_position
;
; marker[53]=true;
;
	ldx     #$00
	lda     #$01
	sta     _marker+53
;
; goto return1;
;
	rts
;
; if(cvn(206,115)) if(noun2==4) if(object_is_available(4)) if(marker[53]==true) {
;
L6CF1:	lda     #$CE
	jsr     pusha0
	lda     #$73
	jsr     _cvn
	stx     tmp1
	ora     tmp1
	beq     L6CF2
	lda     _noun2+1
	bne     L6CF2
	lda     _noun2
	cmp     #$04
	bne     L6CF2
	ldx     #$00
	jsr     _object_is_available
	tax
	beq     L6CF2
	lda     _marker+53
	cmp     #$01
	bne     L6CF2
;
; show_message(message268);
;
	lda     #<(_message268)
	ldx     #>(_message268)
	jsr     _show_message
;
; goto return1;
;
	jmp     L62DF
;
; if(cvn(206,115)) if(marker[53]==false) {
;
L6CF2:	lda     #$CE
	jsr     pusha0
	lda     #$73
	jsr     _cvn
	stx     tmp1
	ora     tmp1
	beq     L6CF3
	lda     _marker+53
	bne     L6CF3
;
; show_message(message272);
;
	lda     #<(_message272)
	ldx     #>(_message272)
	jsr     _show_message
;
; goto return1;
;
	jmp     L62DF
;
; if(cvn(70,289)) {
;
L6CF3:	lda     #$46
	jsr     pusha0
	ldx     #$01
	lda     #$21
	jsr     _cvn
	stx     tmp1
	ora     tmp1
	jeq     L62D6
;
; show_message(message342);
;
	lda     #<(_message342)
	ldx     #>(_message342)
	jsr     _show_message
;
; goto return1;
;
	jmp     L62DF
;
; if(cvn(70,289)) {
;
L6CF4:	lda     #$46
	jsr     pusha0
	ldx     #$01
	lda     #$21
	jsr     _cvn
	stx     tmp1
	ora     tmp1
	jeq     L62D6
;
; show_message(message342);
;
	lda     #<(_message342)
	ldx     #>(_message342)
	jsr     _show_message
;
; goto return1;
;
	jmp     L62DF
;
; if(cvn(70,263)) {
;
L6CF5:	lda     #$46
	jsr     pusha0
	ldx     #$01
	lda     #$07
	jsr     _cvn
	stx     tmp1
	ora     tmp1
	beq     L6A3D
;
; show_message(message322);
;
	lda     #<(_message322)
	ldx     #>(_message322)
	jsr     _show_message
;
; goto return1;
;
	jmp     L62DF
;
; if(cvn(70,25)) {
;
L6A3D:	lda     #$46
	jsr     pusha0
	lda     #$19
	jsr     _cvn
	stx     tmp1
	ora     tmp1
	beq     L6A43
;
; show_message(message253);
;
	lda     #<(_message253)
	ldx     #>(_message253)
	jsr     _show_message
;
; goto return1;
;
	jmp     L62DF
;
; if(cvn(70,24)) {
;
L6A43:	lda     #$46
	jsr     pusha0
	lda     #$18
	jsr     _cvn
	stx     tmp1
	ora     tmp1
	jeq     L62D6
;
; show_message(message331);
;
	lda     #<(_message331)
	ldx     #>(_message331)
	jsr     _show_message
;
; goto return1;
;
	jmp     L62DF
;
; if(cvn(70,404)) {
;
L6CF6:	lda     #$46
	jsr     pusha0
	ldx     #$01
	lda     #$94
	jsr     _cvn
	stx     tmp1
	ora     tmp1
	beq     L6A51
;
; marker[30]=true;
;
	lda     #$01
	sta     _marker+30
;
; show_message(message236);
;
	lda     #<(_message236)
	ldx     #>(_message236)
	jsr     _show_message
;
; goto return1;
;
	jmp     L62DF
;
; if(noun1==409||noun1==94) if(verb==208) if(marker[30]==true) {
;
L6A51:	lda     _noun1+1
	cmp     #$01
	bne     L6D78
	lda     _noun1
	cmp     #$99
	beq     L6A5B
L6D78:	lda     _noun1+1
	bne     L6D79
	lda     _noun1
	cmp     #$5E
	beq     L6A5B
L6D79:	jmp     L6A62
L6A5B:	lda     _verb+1
	bne     L6A62
	lda     _verb
	cmp     #$D0
	bne     L6A62
	lda     _marker+30
	cmp     #$01
	bne     L6A62
;
; show_message(message238);
;
	lda     #<(_message238)
	ldx     #>(_message238)
	jsr     _show_message
;
; marker[59]=true;
;
	ldx     #$00
	lda     #$01
	sta     _marker+59
;
; goto return1;
;
	rts
;
; if(noun1==409||noun1==94) if(verb==208) if(marker[30]==false) {
;
L6A62:	lda     _noun1+1
	cmp     #$01
	bne     L6D7A
	lda     _noun1
	cmp     #$99
	beq     L6CF7
L6D7A:	lda     _noun1+1
	bne     L6CF8
	lda     _noun1
	cmp     #$5E
	bne     L6CF8
L6CF7:	lda     _verb+1
	bne     L6CF8
	lda     _verb
	cmp     #$D0
	bne     L6CF8
	lda     _marker+30
	bne     L6CF8
;
; show_message(message237);
;
	lda     #<(_message237)
	ldx     #>(_message237)
	jsr     _show_message
;
; goto return1;
;
	jmp     L62DF
;
; if(cvn(215,61)) {
;
L6CF8:	lda     #$D7
	jsr     pusha0
	lda     #$3D
	jsr     _cvn
	stx     tmp1
	ora     tmp1
	beq     L6A77
;
; jump(41);
;
	ldx     #$00
	lda     #$29
	jsr     _jump
;
; goto return1;
;
	jmp     L62DF
;
; if(verb==215) {
;
L6A77:	lda     _verb+1
	bne     L6A7D
	lda     _verb
	cmp     #$D7
	bne     L6A7D
;
; show_message(message230);
;
	lda     #<(_message230)
	ldx     #>(_message230)
	jsr     _show_message
;
; leave(); exit(0);
;
	lda     #<(L6A83)
	ldx     #>(L6A83)
	jsr     pushax
	ldy     #$02
	jsr     _printf
	ldx     #$00
	txa
	jsr     _exit
;
; if(cvn(70,113)) {
;
L6A7D:	lda     #$46
	jsr     pusha0
	lda     #$71
	jsr     _cvn
	stx     tmp1
	ora     tmp1
	beq     L6A87
;
; show_message(message253);
;
	lda     #<(_message253)
	ldx     #>(_message253)
	jsr     _show_message
;
; goto return1;
;
	jmp     L62DF
;
; if(cvn(70,409)) {
;
L6A87:	lda     #$46
	jsr     pusha0
	ldx     #$01
	lda     #$99
	jsr     _cvn
	stx     tmp1
	ora     tmp1
	beq     L6A8D
;
; marker[30]=true;
;
	lda     #$01
	sta     _marker+30
;
; show_message(message252);
;
	lda     #<(_message252)
	ldx     #>(_message252)
	jsr     _show_message
;
; goto return1;
;
	jmp     L62DF
;
; if(cvn(70,295)) {
;
L6A8D:	lda     #$46
	jsr     pusha0
	ldx     #$01
	lda     #$27
	jsr     _cvn
	stx     tmp1
	ora     tmp1
	beq     L6A96
;
; show_message(message362);
;
	lda     #<(_message362)
	ldx     #>(_message362)
	jsr     _show_message
;
; goto return1;
;
	jmp     L62DF
;
; if(cvn(70,265)) {
;
L6A96:	lda     #$46
	jsr     pusha0
	ldx     #$01
	lda     #$09
	jsr     _cvn
	stx     tmp1
	ora     tmp1
	beq     L6A9C
;
; show_message(message327);
;
	lda     #<(_message327)
	ldx     #>(_message327)
	jsr     _show_message
;
; goto return1;
;
	jmp     L62DF
;
; if(cvn(70,61)) {
;
L6A9C:	lda     #$46
	jsr     pusha0
	lda     #$3D
	jsr     _cvn
	stx     tmp1
	ora     tmp1
	jeq     L62D6
;
; show_message(message363);
;
	lda     #<(_message363)
	ldx     #>(_message363)
	jsr     _show_message
;
; goto return1;
;
	jmp     L62DF
;
; if(verb==100||verb==204||verb==303||verb==0) if(noun1==85) {
;
L6AA9:	lda     _verb+1
	bne     L6D7C
	lda     _verb
	cmp     #$64
	beq     L6CF9
L6D7C:	lda     _verb+1
	bne     L6D7D
	lda     _verb
	cmp     #$CC
	beq     L6CF9
L6D7D:	lda     _verb+1
	cmp     #$01
	bne     L6D7E
	lda     _verb
	cmp     #$2F
	beq     L6CF9
L6D7E:	lda     _verb
	ora     _verb+1
	bne     L6AB1
L6CF9:	lda     _noun1+1
	bne     L6AB1
	lda     _noun1
	cmp     #$55
	bne     L6AB1
;
; show_message(message229);
;
	lda     #<(_message229)
	ldx     #>(_message229)
	jsr     _show_message
;
; jump(20);
;
	ldx     #$00
	lda     #$14
	jsr     _jump
;
; goto return1;
;
	jmp     L62DF
;
; if(noun1==85||noun1==0) if(verb==185) {
;
L6AB1:	lda     _noun1+1
	bne     L6D7F
	lda     _noun1
	cmp     #$55
	beq     L6CFA
L6D7F:	lda     _noun1
	ora     _noun1+1
	bne     L6CFB
L6CFA:	lda     _verb+1
	bne     L6CFB
	lda     _verb
	cmp     #$B9
	bne     L6CFB
;
; show_message(message229);
;
	lda     #<(_message229)
	ldx     #>(_message229)
	jsr     _show_message
;
; jump(20);
;
	ldx     #$00
	lda     #$14
	jsr     _jump
;
; goto return1;
;
	jmp     L62DF
;
; if(cvn(215,404)) {
;
L6CFB:	lda     #$D7
	jsr     pusha0
	ldx     #$01
	lda     #$94
	jsr     _cvn
	stx     tmp1
	ora     tmp1
	beq     L6AC4
;
; show_message(message231);
;
	lda     #<(_message231)
	ldx     #>(_message231)
	jsr     _show_message
;
; jump(40);
;
	ldx     #$00
	lda     #$28
	jsr     _jump
;
; goto return1;
;
	jmp     L62DF
;
; if(verb==215) {
;
L6AC4:	lda     _verb+1
	bne     L6ACC
	lda     _verb
	cmp     #$D7
	bne     L6ACC
;
; show_message(message230);
;
	lda     #<(_message230)
	ldx     #>(_message230)
	jsr     _show_message
;
; leave(); exit(0);
;
	lda     #<(L6AD2)
	ldx     #>(L6AD2)
	jsr     pushax
	ldy     #$02
	jsr     _printf
	ldx     #$00
	txa
	jsr     _exit
;
; if(cvn(70,112)) {
;
L6ACC:	lda     #$46
	jsr     pusha0
	lda     #$70
	jsr     _cvn
	stx     tmp1
	ora     tmp1
	beq     L6AD6
;
; show_message(message247);
;
	lda     #<(_message247)
	ldx     #>(_message247)
	jsr     _show_message
;
; goto return1;
;
	jmp     L62DF
;
; if(verb==233||verb==204||verb==234||verb==235) if(noun1==117) {
;
L6AD6:	lda     _verb+1
	bne     L6D80
	lda     _verb
	cmp     #$E9
	beq     L6ADD
L6D80:	lda     _verb+1
	bne     L6D81
	lda     _verb
	cmp     #$CC
	beq     L6ADD
L6D81:	lda     _verb+1
	bne     L6D82
	lda     _verb
	cmp     #$EA
	beq     L6ADD
L6D82:	lda     _verb+1
	bne     L6D83
	lda     _verb
	cmp     #$EB
	beq     L6ADD
L6D83:	jmp     L6AE3
L6ADD:	lda     _noun1+1
	bne     L6AE3
	lda     _noun1
	cmp     #$75
	bne     L6AE3
;
; show_message(message300);
;
	lda     #<(_message300)
	ldx     #>(_message300)
	jsr     _show_message
;
; goto return1;
;
	jmp     L62DF
;
; if(verb==206||verb==201) if(noun1==112) {
;
L6AE3:	lda     _verb+1
	bne     L6D84
	lda     _verb
	cmp     #$CE
	beq     L6CFC
L6D84:	lda     _verb+1
	bne     L6AED
	lda     _verb
	cmp     #$C9
	bne     L6AED
L6CFC:	lda     _noun1+1
	bne     L6AED
	lda     _noun1
	cmp     #$70
	bne     L6AED
;
; show_message(message302);
;
	lda     #<(_message302)
	ldx     #>(_message302)
	jsr     _show_message
;
; goto return1;
;
	jmp     L62DF
;
; if(verb==70||verb==208) if(noun1==232) {
;
L6AED:	lda     _verb+1
	bne     L6D86
	lda     _verb
	cmp     #$46
	beq     L6CFD
L6D86:	lda     _verb+1
	bne     L6CFE
	lda     _verb
	cmp     #$D0
	bne     L6CFE
L6CFD:	lda     _noun1+1
	bne     L6CFE
	lda     _noun1
	cmp     #$E8
	bne     L6CFE
;
; show_message(message303);
;
	lda     #<(_message303)
	ldx     #>(_message303)
	jsr     _show_message
;
; goto return1;
;
	jmp     L62DF
;
; if(cvn(70,61)) {
;
L6CFE:	lda     #$46
	jsr     pusha0
	lda     #$3D
	jsr     _cvn
	stx     tmp1
	ora     tmp1
	beq     L6AFC
;
; show_message(message363);
;
	lda     #<(_message363)
	ldx     #>(_message363)
	jsr     _show_message
;
; goto return1;
;
	jmp     L62DF
;
; if(cvn(70,302)) {
;
L6AFC:	lda     #$46
	jsr     pusha0
	ldx     #$01
	lda     #$2E
	jsr     _cvn
	stx     tmp1
	ora     tmp1
	beq     L6B02
;
; show_message(message364);
;
	lda     #<(_message364)
	ldx     #>(_message364)
	jsr     _show_message
;
; goto return1;
;
	jmp     L62DF
;
; if(cvn(70,270)) {
;
L6B02:	lda     #$46
	jsr     pusha0
	ldx     #$01
	lda     #$0E
	jsr     _cvn
	stx     tmp1
	ora     tmp1
	beq     L6B08
;
; show_message(message253);
;
	lda     #<(_message253)
	ldx     #>(_message253)
	jsr     _show_message
;
; goto return1;
;
	jmp     L62DF
;
; if(cvn(70,265)) {
;
L6B08:	lda     #$46
	jsr     pusha0
	ldx     #$01
	lda     #$09
	jsr     _cvn
	stx     tmp1
	ora     tmp1
	beq     L6B0E
;
; show_message(message327);
;
	lda     #<(_message327)
	ldx     #>(_message327)
	jsr     _show_message
;
; goto return1;
;
	jmp     L62DF
;
; if(cvn(70,404)) {
;
L6B0E:	lda     #$46
	jsr     pusha0
	ldx     #$01
	lda     #$94
	jsr     _cvn
	stx     tmp1
	ora     tmp1
	beq     L6B14
;
; show_message(message365);
;
	lda     #<(_message365)
	ldx     #>(_message365)
	jsr     _show_message
;
; goto return1;
;
	jmp     L62DF
;
; if(cvn(405,404)) {
;
L6B14:	ldx     #$01
	lda     #$95
	jsr     pushax
	lda     #$94
	jsr     _cvn
	stx     tmp1
	ora     tmp1
	beq     L6B1A
;
; show_message(message366);
;
	lda     #<(_message366)
	ldx     #>(_message366)
	jsr     _show_message
;
; goto return1;
;
	jmp     L62DF
;
; if(cvn(70,409)) {
;
L6B1A:	lda     #$46
	jsr     pusha0
	ldx     #$01
	lda     #$99
	jsr     _cvn
	stx     tmp1
	ora     tmp1
	beq     L62D6
;
; show_message(message367);
;
	lda     #<(_message367)
	ldx     #>(_message367)
	jsr     _show_message
;
; goto return1;
;
	jmp     L62DF
;
; return 0;
;
L62D6:	ldx     #$00
L6CFF:	txa
	rts
;
; return1: return 1;
;
L62DF:	ldx     #$00
L6D01:	lda     #$01
;
; }
;
	rts

.endproc

; ---------------------------------------------------------------
; void __near__ game_cycle (void)
; ---------------------------------------------------------------

.segment	"CODE"

.proc	_game_cycle: near

.segment	"CODE"

;
; while(1){
;
	jsr     decsp4
;
; current_position=next_position;
;
L6B29:	lda     _next_position
	sta     _current_position
	lda     _next_position+1
	sta     _current_position+1
;
; if(marker[120]==false&&(marker[121]==true||marker[122]==true)) {
;
	lda     _marker+120
	jne     L6B2F
	lda     _marker+121
	cmp     #$01
	beq     L6D8E
	lda     _marker+122
	cmp     #$01
	jne     L6B2F
;
; decode(world[search_room(current_position)].long_d,decompress_b,B_SIZE);
;
L6D8E:	lda     _current_position
	ldx     _current_position+1
	jsr     _search_room
	jsr     pushax
	lda     #$14
	jsr     tosmula0
	clc
	adc     #<(_world)
	tay
	txa
	adc     #>(_world)
	tax
	tya
	ldy     #$03
	jsr     pushwidx
	lda     #<(_decompress_b)
	ldx     #>(_decompress_b)
	jsr     pushax
	ldx     #$05
	lda     #$62
	jsr     _decode
;
; writesameln(decompress_b);
;
	lda     #<(_decompress_b)
	ldx     #>(_decompress_b)
	jsr     _writesameln
;
; marker[120]=true;
;
	lda     #$01
	sta     _marker+120
;
; ve=false;
;
	lda     #$00
	ldy     #$01
	sta     (sp),y
;
; for(k=0;k<OSIZE;++k)
;
	tax
	iny
	jsr     staxysp
L6B45:	ldy     #$03
	lda     (sp),y
	cmp     #$00
	bne     L6B4C
	dey
	lda     (sp),y
	cmp     #$1F
L6B4C:	bcs     L6B46
;
; if(obj[k].position==current_position) {
;
	ldy     #$05
	jsr     pushwysp
	lda     #$0E
	jsr     tosmula0
	clc
	adc     #<(_obj)
	tay
	txa
	adc     #>(_obj)
	tax
	tya
	ldy     #$0B
	jsr     ldaxidx
	cpx     _current_position+1
	bne     L6B47
	cmp     _current_position
	bne     L6B47
;
; if(ve==false) {
;
	ldy     #$01
	lda     (sp),y
	bne     L6B51
;
; show_message(message1031);
;
	lda     #<(_message1031)
	ldx     #>(_message1031)
	jsr     _show_message
;
; ve=true;
;
	lda     #$01
	tay
	sta     (sp),y
;
; decode(obj[k].desc,decompress_b,B_SIZE);
;
L6B51:	ldy     #$05
	jsr     pushwysp
	lda     #$0E
	jsr     tosmula0
	clc
	adc     #<(_obj)
	tay
	txa
	adc     #>(_obj)
	tax
	tya
	ldy     #$05
	jsr     pushwidx
	lda     #<(_decompress_b)
	ldx     #>(_decompress_b)
	jsr     pushax
	ldx     #$05
	lda     #$62
	jsr     _decode
;
; writeln(decompress_b);
;
	lda     #<(_decompress_b)
	ldx     #>(_decompress_b)
	jsr     _writeln
;
; for(k=0;k<OSIZE;++k)
;
L6B47:	ldy     #$02
	ldx     #$00
	lda     #$01
	jsr     addeqysp
	jmp     L6B45
;
; if(marker[124]==true) {
;
L6B46:	lda     _marker+124
	cmp     #$01
	jne     L6B2F
;
; pa=false;
;
	lda     #$00
	tay
	sta     (sp),y
;
; for(k=0; k<6; ++k)
;
	tax
	ldy     #$02
	jsr     staxysp
L6B63:	ldy     #$03
	lda     (sp),y
	cmp     #$00
	bne     L6B6A
	dey
	lda     (sp),y
	cmp     #$06
L6B6A:	bcs     L6B64
;
; if(world[search_room(current_position)].directions[k]!=0) {
;
	lda     _current_position
	ldx     _current_position+1
	jsr     _search_room
	jsr     pushax
	lda     #$14
	jsr     tosmula0
	clc
	adc     #<(_world)
	tay
	txa
	adc     #>(_world)
	tax
	tya
	jsr     incax8
	sta     ptr1
	stx     ptr1+1
	ldy     #$03
	jsr     ldaxysp
	jsr     aslax1
	clc
	adc     ptr1
	pha
	txa
	adc     ptr1+1
	tax
	pla
	jsr     ldaxi
	cpx     #$00
	bne     L6D8F
	cmp     #$00
	beq     L6B65
;
; if(pa==false) {
;
L6D8F:	ldy     #$00
	lda     (sp),y
	bne     L6B72
;
; show_messagenlf(message1020);
;
	lda     #<(_message1020)
	ldx     #>(_message1020)
	jsr     _show_messagenlf
;
; pa=true;
;
	lda     #$01
	ldy     #$00
	sta     (sp),y
;
; show_messagenlf(dir[k]);
;
L6B72:	ldy     #$03
	jsr     ldaxysp
	jsr     aslax1
	clc
	adc     #<(_dir)
	tay
	txa
	adc     #>(_dir)
	tax
	tya
	jsr     ldaxi
	jsr     _show_messagenlf
;
; writesameln(" ");
;
	lda     #<(L6B7C)
	ldx     #>(L6B7C)
	jsr     _writesameln
;
; for(k=0; k<6; ++k)
;
L6B65:	ldy     #$02
	ldx     #$00
	lda     #$01
	jsr     addeqysp
	jmp     L6B63
;
; writeln("");
;
L6B64:	lda     #<(L6B7F)
	ldx     #>(L6B7F)
	jsr     _writeln
;
; ++counter[125];
;
L6B2F:	inc     _counter+250
	bne     L6B83
	inc     _counter+250+1
;
; --counter[126];
;
L6B83:	lda     _counter+252
	sec
	sbc     #$01
	sta     _counter+252
	bcs     L6B86
	dec     _counter+252+1
;
; --counter[127];
;
L6B86:	lda     _counter+254
	sec
	sbc     #$01
	sta     _counter+254
	bcs     L6B89
	dec     _counter+254+1
;
; --counter[128];
;
L6B89:	lda     _counter+256
	sec
	sbc     #$01
	sta     _counter+256
	bcs     L6B8C
	dec     _counter+256+1
;
; if(hi_cond()!=0) continue;
;
L6B8C:	jsr     _hi_cond
	cpx     #$00
	jne     L6B29
	cmp     #$00
	jne     L6B29
;
; if(ls==0) show_message(message1012);
;
	lda     _ls
	ora     _ls+1
	bne     L6B90
	lda     #<(_message1012)
	ldx     #>(_message1012)
	jsr     _show_message
;
; interrogationAndAnalysis(DSIZE);
;
L6B90:	ldx     #$01
	lda     #$2A
	jsr     _interrogationAndAnalysis
;
; if(local_cond()!=0) continue;
;
	jsr     _local_cond
	cpx     #$00
	jne     L6B29
	cmp     #$00
	jne     L6B29
;
; if(low_cond()!=0) continue;
;
	jsr     _low_cond
	cpx     #$00
	jne     L6B29
	cmp     #$00
	jne     L6B29
;
; show_message(verb==0?message1009:message1010);
;
	lda     _verb
	ora     _verb+1
	bne     L6BA0
	lda     #<(_message1009)
	ldx     #>(_message1009)
	jmp     L6BA2
L6BA0:	lda     #<(_message1010)
	ldx     #>(_message1010)
L6BA2:	jsr     _show_message
;
; while(1){
;
	jmp     L6B29

.endproc

; ---------------------------------------------------------------
; int __near__ main (void)
; ---------------------------------------------------------------

.segment	"CODE"

.proc	_main: near

.segment	"CODE"

;
; init_term();
;
	lda     $00D7
	bne     L6D90
	lda     #<(L6BA8)
	ldx     #>(L6BA8)
	jsr     pushax
	ldy     #$02
	jsr     _printf
L6D90:	lda     #$01
	sta     $D030
	lda     #<(L6BAD)
	ldx     #>(L6BAD)
	jsr     _cputs
	lda     #<(L6BB0)
	ldx     #>(L6BB0)
	jsr     pushax
	ldy     #$02
	jsr     _printf
;
; greetings();
;
	jsr     _greetings
;
; next_position=101;
;
	ldx     #$00
	lda     #$65
	sta     _next_position
	stx     _next_position+1
;
; marker[124]=true;
;
	lda     #$01
	sta     _marker+124
;
; marker[121]=true;
;
	sta     _marker+121
;
; counter[121]=10000;
;
	ldx     #$27
	lda     #$10
	sta     _counter+242
	stx     _counter+242+1
;
; counter[122]=8;
;
	ldx     #$00
	lda     #$08
	sta     _counter+244
	stx     _counter+244+1
;
; game_cycle();
;
	jsr     _game_cycle
;
; return 0;
;
	ldx     #$00
	txa
;
; }
;
	rts

.endproc

